
build/telosb/main.exe:     file format elf32-msp430


Disassembly of section .text:

00004000 <__watchdog_support>:
    4000:	55 42 20 01 	mov.b	&0x0120,r5	
    4004:	35 d0 08 5a 	bis	#23048,	r5	;#0x5a08
    4008:	82 45 2a 21 	mov	r5,	&0x212a	

0000400c <__init_stack>:
    400c:	31 40 00 39 	mov	#14592,	r1	;#0x3900

00004010 <__do_copy_data>:
    4010:	3f 40 64 06 	mov	#1636,	r15	;#0x0664
    4014:	0f 93       	tst	r15		
    4016:	08 24       	jz	$+18     	;abs 0x4028
    4018:	92 42 2a 21 20 01 	mov	&0x212a,&0x0120	
    401e:	2f 83       	decd	r15		
    4020:	9f 4f cc 8c 00 11 	mov	-29492(r15),4352(r15);0x8ccc(r15), 0x1100(r15)
    4026:	f8 23       	jnz	$-14     	;abs 0x4018

00004028 <__do_clear_bss>:
    4028:	3f 40 c6 09 	mov	#2502,	r15	;#0x09c6
    402c:	0f 93       	tst	r15		
    402e:	07 24       	jz	$+16     	;abs 0x403e
    4030:	92 42 2a 21 20 01 	mov	&0x212a,&0x0120	
    4036:	1f 83       	dec	r15		
    4038:	cf 43 64 17 	mov.b	#0,	5988(r15);r3 As==00, 0x1764(r15)
    403c:	f9 23       	jnz	$-12     	;abs 0x4030

0000403e <main>:
    403e:	21 83       	decd	r1		
    4040:	b0 12 3a 4a 	call	#0x4a3a	
    4044:	47 4f       	mov.b	r15,	r7	
    4046:	3d 40 0f 00 	mov	#15,	r13	;#0x000f
    404a:	3e 40 ff 00 	mov	#255,	r14	;#0x00ff
    404e:	3f 40 24 1a 	mov	#6692,	r15	;#0x1a24
    4052:	b0 12 f4 89 	call	#0x89f4	
    4056:	f2 43 22 1c 	mov.b	#-1,	&0x1c22	;r3 As==11
    405a:	f2 43 f1 20 	mov.b	#-1,	&0x20f1	;r3 As==11
    405e:	b2 40 80 5a 20 01 	mov	#23168,	&0x0120	;#0x5a80
    4064:	a2 42 60 01 	mov	#4,	&0x0160	;r2 As==10
    4068:	82 43 2e 01 	mov	#0,	&0x012e	;r3 As==00
    406c:	a2 42 80 01 	mov	#4,	&0x0180	;r2 As==10
    4070:	82 43 1e 01 	mov	#0,	&0x011e	;r3 As==00
    4074:	b2 40 20 02 60 01 	mov	#544,	&0x0160	;#0x0220
    407a:	b2 40 20 01 80 01 	mov	#288,	&0x0180	;#0x0120
    4080:	f2 40 84 ff 57 00 	mov.b	#-124,	&0x0057	;#0xff84
    4086:	c2 43 58 00 	mov.b	#0,	&0x0058	;r3 As==00
    408a:	b2 40 00 40 82 01 	mov	#16384,	&0x0182	;#0x4000
    4090:	3b 40 0c 00 	mov	#12,	r11	;#0x000c
    4094:	3d 40 00 08 	mov	#2048,	r13	;#0x0800
    4098:	0e 43       	clr	r14		
    409a:	0c 4d       	mov	r13,	r12	
    409c:	0c de       	bis	r14,	r12	
    409e:	59 42 57 00 	mov.b	&0x0057,r9	
    40a2:	0a 4c       	mov	r12,	r10	
    40a4:	8a 10       	swpb	r10		
    40a6:	7a f0 07 00 	and.b	#7,	r10	;#0x0007
    40aa:	79 f0 f8 ff 	and.b	#-8,	r9	;#0xfff8
    40ae:	4a d9       	bis.b	r9,	r10	
    40b0:	c2 4a 57 00 	mov.b	r10,	&0x0057	
    40b4:	c2 4c 56 00 	mov.b	r12,	&0x0056	
    40b8:	79 40 03 00 	mov.b	#3,	r9	;#0x0003
    40bc:	0a 43       	clr	r10		
    40be:	08 43       	clr	r8		
    40c0:	0f 3c       	jmp	$+32     	;abs 0x40e0
    40c2:	18 42 90 01 	mov	&0x0190,r8	
    40c6:	38 52       	add	#8,	r8	;r2 As==11
    40c8:	82 48 92 01 	mov	r8,	&0x0192	
    40cc:	b2 f0 fe ff 82 01 	and	#-2,	&0x0182	;#0xfffe
    40d2:	92 b3 82 01 	bit	#1,	&0x0182	;r3 As==01
    40d6:	fd 27       	jz	$-4      	;abs 0x40d2
    40d8:	1f 42 70 01 	mov	&0x0170,r15	
    40dc:	08 4a       	mov	r10,	r8	
    40de:	0a 4f       	mov	r15,	r10	
    40e0:	79 53       	add.b	#-1,	r9	;r3 As==11
    40e2:	ef 23       	jnz	$-32     	;abs 0x40c2
    40e4:	0a 88       	sub	r8,	r10	
    40e6:	3a 90 01 04 	cmp	#1025,	r10	;#0x0401
    40ea:	01 2c       	jc	$+4      	;abs 0x40ee
    40ec:	0e 4c       	mov	r12,	r14	
    40ee:	0d 11       	rra	r13		
    40f0:	3b 53       	add	#-1,	r11	;r3 As==11
    40f2:	d3 23       	jnz	$-88     	;abs 0x409a
    40f4:	0f 4e       	mov	r14,	r15	
    40f6:	3f f0 e0 00 	and	#224,	r15	;#0x00e0
    40fa:	3f 90 e0 00 	cmp	#224,	r15	;#0x00e0
    40fe:	02 20       	jnz	$+6      	;abs 0x4104
    4100:	3e f0 e0 ff 	and	#-32,	r14	;#0xffe0
    4104:	5c 42 57 00 	mov.b	&0x0057,r12	
    4108:	0d 4e       	mov	r14,	r13	
    410a:	8d 10       	swpb	r13		
    410c:	7d f0 07 00 	and.b	#7,	r13	;#0x0007
    4110:	7c f0 f8 ff 	and.b	#-8,	r12	;#0xfff8
    4114:	4d dc       	bis.b	r12,	r13	
    4116:	c2 4d 57 00 	mov.b	r13,	&0x0057	
    411a:	c2 4e 56 00 	mov.b	r14,	&0x0056	
    411e:	5e 42 57 00 	mov.b	&0x0057,r14	
    4122:	7e f0 07 00 	and.b	#7,	r14	;#0x0007
    4126:	7e d0 80 ff 	bis.b	#-128,	r14	;#0xff80
    412a:	c2 4e 57 00 	mov.b	r14,	&0x0057	
    412e:	e2 42 58 00 	mov.b	#4,	&0x0058	;r2 As==10
    4132:	f2 f0 fd ff 00 00 	and.b	#-3,	&0x0000	;#0xfffd
    4138:	82 43 70 01 	mov	#0,	&0x0170	;r3 As==00
    413c:	b2 40 02 02 60 01 	mov	#514,	&0x0160	;#0x0202
    4142:	82 43 90 01 	mov	#0,	&0x0190	;r3 As==00
    4146:	b2 40 02 01 80 01 	mov	#258,	&0x0180	;#0x0102
    414c:	1e 42 60 01 	mov	&0x0160,r14	
    4150:	3e f0 cf ff 	and	#-49,	r14	;#0xffcf
    4154:	3e d0 20 00 	bis	#32,	r14	;#0x0020
    4158:	82 4e 60 01 	mov	r14,	&0x0160	
    415c:	1e 42 80 01 	mov	&0x0180,r14	
    4160:	3e f0 cf ff 	and	#-49,	r14	;#0xffcf
    4164:	3e d0 20 00 	bis	#32,	r14	;#0x0020
    4168:	82 4e 80 01 	mov	r14,	&0x0180	
    416c:	c2 43 26 00 	mov.b	#0,	&0x0026	;r3 As==00
    4170:	c2 43 2e 00 	mov.b	#0,	&0x002e	;r3 As==00
    4174:	c2 43 1b 00 	mov.b	#0,	&0x001b	;r3 As==00
    4178:	c2 43 1f 00 	mov.b	#0,	&0x001f	;r3 As==00
    417c:	c2 43 33 00 	mov.b	#0,	&0x0033	;r3 As==00
    4180:	c2 43 37 00 	mov.b	#0,	&0x0037	;r3 As==00
    4184:	c2 43 21 00 	mov.b	#0,	&0x0021	;r3 As==00
    4188:	f2 40 e0 ff 22 00 	mov.b	#-32,	&0x0022	;#0xffe0
    418e:	f2 40 30 00 29 00 	mov.b	#48,	&0x0029	;#0x0030
    4194:	f2 40 7b 00 2a 00 	mov.b	#123,	&0x002a	;#0x007b
    419a:	c2 43 19 00 	mov.b	#0,	&0x0019	;r3 As==00
    419e:	f2 40 f1 ff 1a 00 	mov.b	#-15,	&0x001a	;#0xfff1
    41a4:	f2 40 dd ff 1d 00 	mov.b	#-35,	&0x001d	;#0xffdd
    41aa:	f2 40 fd ff 1e 00 	mov.b	#-3,	&0x001e	;#0xfffd
    41b0:	f2 43 31 00 	mov.b	#-1,	&0x0031	;r3 As==11
    41b4:	f2 43 32 00 	mov.b	#-1,	&0x0032	;r3 As==11
    41b8:	c2 43 35 00 	mov.b	#0,	&0x0035	;r3 As==00
    41bc:	f2 43 36 00 	mov.b	#-1,	&0x0036	;r3 As==11
    41c0:	c2 43 25 00 	mov.b	#0,	&0x0025	;r3 As==00
    41c4:	c2 43 2d 00 	mov.b	#0,	&0x002d	;r3 As==00
    41c8:	1f 42 70 01 	mov	&0x0170,r15	
    41cc:	1e 42 70 01 	mov	&0x0170,r14	
    41d0:	0e 8f       	sub	r15,	r14	
    41d2:	3e 90 01 28 	cmp	#10241,	r14	;#0x2801
    41d6:	fa 2b       	jnc	$-10     	;abs 0x41cc
    41d8:	e2 d3 1a 00 	bis.b	#2,	&0x001a	;r3 As==10
    41dc:	f2 d2 1a 00 	bis.b	#8,	&0x001a	;r2 As==11
    41e0:	f2 d0 80 ff 1e 00 	bis.b	#-128,	&0x001e	;#0xff80
    41e6:	f2 d0 10 00 1e 00 	bis.b	#16,	&0x001e	;#0x0010
    41ec:	f2 d0 80 ff 1d 00 	bis.b	#-128,	&0x001d	;#0xff80
    41f2:	f2 d0 10 00 1d 00 	bis.b	#16,	&0x001d	;#0x0010
    41f8:	03 43       	nop			
    41fa:	03 43       	nop			
    41fc:	f2 f0 ef ff 1d 00 	and.b	#-17,	&0x001d	;#0xffef
    4202:	f2 f0 f7 ff 19 00 	and.b	#-9,	&0x0019	;#0xfff7
    4208:	5f 43       	mov.b	#1,	r15	;r3 As==01
    420a:	b0 12 a6 46 	call	#0x46a6	
    420e:	4f 43       	clr.b	r15		
    4210:	b0 12 a6 46 	call	#0x46a6	
    4214:	5f 43       	mov.b	#1,	r15	;r3 As==01
    4216:	b0 12 a6 46 	call	#0x46a6	
    421a:	5f 43       	mov.b	#1,	r15	;r3 As==01
    421c:	b0 12 a6 46 	call	#0x46a6	
    4220:	5f 43       	mov.b	#1,	r15	;r3 As==01
    4222:	b0 12 a6 46 	call	#0x46a6	
    4226:	4f 43       	clr.b	r15		
    4228:	b0 12 a6 46 	call	#0x46a6	
    422c:	4f 43       	clr.b	r15		
    422e:	b0 12 a6 46 	call	#0x46a6	
    4232:	5f 43       	mov.b	#1,	r15	;r3 As==01
    4234:	b0 12 a6 46 	call	#0x46a6	
    4238:	f2 d0 10 00 1d 00 	bis.b	#16,	&0x001d	;#0x0010
    423e:	f2 d2 19 00 	bis.b	#8,	&0x0019	;r2 As==11
    4242:	e2 d3 19 00 	bis.b	#2,	&0x0019	;r3 As==10
    4246:	f2 d0 10 00 32 00 	bis.b	#16,	&0x0032	;#0x0010
    424c:	f2 d0 20 00 32 00 	bis.b	#32,	&0x0032	;#0x0020
    4252:	f2 d0 40 00 32 00 	bis.b	#64,	&0x0032	;#0x0040
    4258:	f2 d0 10 00 31 00 	bis.b	#16,	&0x0031	;#0x0010
    425e:	f2 d0 20 00 31 00 	bis.b	#32,	&0x0031	;#0x0020
    4264:	f2 d0 40 00 31 00 	bis.b	#64,	&0x0031	;#0x0040
    426a:	b0 12 44 76 	call	#0x7644	
    426e:	4f 93       	tst.b	r15		
    4270:	fc 23       	jnz	$-6      	;abs 0x426a
    4272:	f2 43 dd 20 	mov.b	#-1,	&0x20dd	;r3 As==11
    4276:	c2 93 64 17 	tst.b	&0x1764	
    427a:	14 20       	jnz	$+42     	;abs 0x42a4
    427c:	e2 43 64 17 	mov.b	#2,	&0x1764	;r3 As==10
    4280:	c2 43 ca 1a 	mov.b	#0,	&0x1aca	;r3 As==00
    4284:	d2 93 08 11 	cmp.b	#1,	&0x1108	;r3 As==01
    4288:	05 20       	jnz	$+12     	;abs 0x4294
    428a:	c2 43 08 11 	mov.b	#0,	&0x1108	;r3 As==00
    428e:	f2 40 03 00 64 17 	mov.b	#3,	&0x1764	;#0x0003
    4294:	c2 93 08 11 	tst.b	&0x1108	
    4298:	03 20       	jnz	$+8      	;abs 0x42a0
    429a:	b0 12 7e 54 	call	#0x547e	
    429e:	02 3c       	jmp	$+6      	;abs 0x42a4
    42a0:	c2 43 64 17 	mov.b	#0,	&0x1764	;r3 As==00
    42a4:	f2 43 8a 1a 	mov.b	#-1,	&0x1a8a	;r3 As==11
    42a8:	b2 43 ca 18 	mov	#-1,	&0x18ca	;r3 As==11
    42ac:	c2 43 cc 18 	mov.b	#0,	&0x18cc	;r3 As==00
    42b0:	b2 43 ce 18 	mov	#-1,	&0x18ce	;r3 As==11
    42b4:	c2 43 d0 18 	mov.b	#0,	&0x18d0	;r3 As==00
    42b8:	b2 43 d2 18 	mov	#-1,	&0x18d2	;r3 As==11
    42bc:	c2 43 d4 18 	mov.b	#0,	&0x18d4	;r3 As==00
    42c0:	b2 43 d6 18 	mov	#-1,	&0x18d6	;r3 As==11
    42c4:	c2 43 d8 18 	mov.b	#0,	&0x18d8	;r3 As==00
    42c8:	b0 12 b2 45 	call	#0x45b2	
    42cc:	c2 4f c1 1b 	mov.b	r15,	&0x1bc1	
    42d0:	1f 42 62 17 	mov	&0x1762,r15	
    42d4:	1f 53       	inc	r15		
    42d6:	82 4f d0 1a 	mov	r15,	&0x1ad0	
    42da:	82 43 d2 1a 	mov	#0,	&0x1ad2	;r3 As==00
    42de:	b2 f0 ef ff 86 01 	and	#-17,	&0x0186	;#0xffef
    42e4:	b2 40 00 40 86 01 	mov	#16384,	&0x0186	;#0x4000
    42ea:	b2 40 ec 1b 86 17 	mov	#7148,	&0x1786	;#0x1bec
    42f0:	f2 f0 ef ff 22 00 	and.b	#-17,	&0x0022	;#0xffef
    42f6:	e2 d2 1e 00 	bis.b	#4,	&0x001e	;r2 As==10
    42fa:	f2 f0 fd ff 1e 00 	and.b	#-3,	&0x001e	;#0xfffd
    4300:	b2 f0 ef ff 82 01 	and	#-17,	&0x0182	;#0xffef
    4306:	b2 40 00 40 82 01 	mov	#16384,	&0x0182	;#0x4000
    430c:	f2 43 e0 1a 	mov.b	#-1,	&0x1ae0	;r3 As==11
    4310:	c2 43 a6 1b 	mov.b	#0,	&0x1ba6	;r3 As==00
    4314:	c2 43 a7 1b 	mov.b	#0,	&0x1ba7	;r3 As==00
    4318:	c2 43 a8 1b 	mov.b	#0,	&0x1ba8	;r3 As==00
    431c:	c2 43 a9 1b 	mov.b	#0,	&0x1ba9	;r3 As==00
    4320:	e2 d2 1e 00 	bis.b	#4,	&0x001e	;r2 As==10
    4324:	f2 d0 40 00 1e 00 	bis.b	#64,	&0x001e	;#0x0040
    432a:	f2 d0 20 00 1e 00 	bis.b	#32,	&0x001e	;#0x0020
    4330:	b0 12 3a 4a 	call	#0x4a3a	
    4334:	1b 42 0e 11 	mov	&0x110e,r11	
    4338:	b0 12 4c 4a 	call	#0x4a4c	
    433c:	82 4b e6 1a 	mov	r11,	&0x1ae6	
    4340:	b0 12 48 47 	call	#0x4748	
    4344:	82 4c b6 1b 	mov	r12,	&0x1bb6	
    4348:	82 4d b8 1b 	mov	r13,	&0x1bb8	
    434c:	82 4e ba 1b 	mov	r14,	&0x1bba	
    4350:	82 4f bc 1b 	mov	r15,	&0x1bbc	
    4354:	d2 42 0d 11 c8 1a 	mov.b	&0x110d,&0x1ac8	
    435a:	c2 43 c9 1a 	mov.b	#0,	&0x1ac9	;r3 As==00
    435e:	f2 40 1f 00 90 1b 	mov.b	#31,	&0x1b90	;#0x001f
    4364:	f2 40 1a 00 bf 1b 	mov.b	#26,	&0x1bbf	;#0x001a
    436a:	b0 12 48 47 	call	#0x4748	
    436e:	82 4c b6 1b 	mov	r12,	&0x1bb6	
    4372:	82 4d b8 1b 	mov	r13,	&0x1bb8	
    4376:	82 4e ba 1b 	mov	r14,	&0x1bba	
    437a:	82 4f bc 1b 	mov	r15,	&0x1bbc	
    437e:	3e 40 b6 1b 	mov	#7094,	r14	;#0x1bb6
    4382:	0d 4e       	mov	r14,	r13	
    4384:	3d 50 07 00 	add	#7,	r13	;#0x0007
    4388:	0c 43       	clr	r12		
    438a:	6f 4e       	mov.b	@r14,	r15	
    438c:	ee 4d 00 00 	mov.b	@r13,	0(r14)	;0x0000(r14)
    4390:	cd 4f 00 00 	mov.b	r15,	0(r13)	;0x0000(r13)
    4394:	1c 53       	inc	r12		
    4396:	1e 53       	inc	r14		
    4398:	3d 53       	add	#-1,	r13	;r3 As==11
    439a:	2c 92       	cmp	#4,	r12	;r2 As==10
    439c:	f6 23       	jnz	$-18     	;abs 0x438a
    439e:	d2 43 84 1a 	mov.b	#1,	&0x1a84	;r3 As==01
    43a2:	c2 43 ea 20 	mov.b	#0,	&0x20ea	;r3 As==00
    43a6:	d2 43 cb 1a 	mov.b	#1,	&0x1acb	;r3 As==01
    43aa:	c2 43 b4 1b 	mov.b	#0,	&0x1bb4	;r3 As==00
    43ae:	b0 12 44 76 	call	#0x7644	
    43b2:	4f 93       	tst.b	r15		
    43b4:	fc 23       	jnz	$-6      	;abs 0x43ae
    43b6:	4f 47       	mov.b	r7,	r15	
    43b8:	b0 12 4c 4a 	call	#0x4a4c	
    43bc:	32 d2       	eint			
    43be:	82 43 e4 20 	mov	#0,	&0x20e4	;r3 As==00
    43c2:	92 43 90 17 	mov	#1,	&0x1790	;r3 As==01
    43c6:	92 42 18 11 ea 18 	mov	&0x1118,&0x18ea	
    43cc:	92 42 16 11 ee 1a 	mov	&0x1116,&0x1aee	
    43d2:	82 43 ec 20 	mov	#0,	&0x20ec	;r3 As==00
    43d6:	82 43 fa 1a 	mov	#0,	&0x1afa	;r3 As==00
    43da:	c2 43 eb 20 	mov.b	#0,	&0x20eb	;r3 As==00
    43de:	c2 43 c6 1a 	mov.b	#0,	&0x1ac6	;r3 As==00
    43e2:	a2 43 d4 20 	mov	#2,	&0x20d4	;r3 As==10
    43e6:	82 43 8e 17 	mov	#0,	&0x178e	;r3 As==00
    43ea:	82 43 38 1a 	mov	#0,	&0x1a38	;r3 As==00
    43ee:	82 43 86 1b 	mov	#0,	&0x1b86	;r3 As==00
    43f2:	82 43 88 1b 	mov	#0,	&0x1b88	;r3 As==00
    43f6:	82 43 94 17 	mov	#0,	&0x1794	;r3 As==00
    43fa:	82 43 e6 20 	mov	#0,	&0x20e6	;r3 As==00
    43fe:	3f 40 20 00 	mov	#32,	r15	;#0x0020
    4402:	b0 12 ae 79 	call	#0x79ae	
    4406:	82 43 c8 18 	mov	#0,	&0x18c8	;r3 As==00
    440a:	82 43 1e 1a 	mov	#0,	&0x1a1e	;r3 As==00
    440e:	82 43 f0 1a 	mov	#0,	&0x1af0	;r3 As==00
    4412:	82 43 f2 1a 	mov	#0,	&0x1af2	;r3 As==00
    4416:	82 43 f4 1a 	mov	#0,	&0x1af4	;r3 As==00
    441a:	82 43 c2 1b 	mov	#0,	&0x1bc2	;r3 As==00
    441e:	82 43 c4 1b 	mov	#0,	&0x1bc4	;r3 As==00
    4422:	82 43 c6 1b 	mov	#0,	&0x1bc6	;r3 As==00
    4426:	b0 12 10 47 	call	#0x4710	
    442a:	5f 43       	mov.b	#1,	r15	;r3 As==01
    442c:	b0 12 80 55 	call	#0x5580	
    4430:	4f 93       	tst.b	r15		
    4432:	19 20       	jnz	$+52     	;abs 0x4466
    4434:	b0 12 3a 4a 	call	#0x4a3a	
    4438:	82 93 80 17 	tst	&0x1780	
    443c:	03 24       	jz	$+8      	;abs 0x4444
    443e:	b0 12 4c 4a 	call	#0x4a4c	
    4442:	19 3c       	jmp	$+52     	;abs 0x4476
    4444:	92 43 80 17 	mov	#1,	&0x1780	;r3 As==01
    4448:	b0 12 4c 4a 	call	#0x4a4c	
    444c:	b0 12 3a 4a 	call	#0x4a3a	
    4450:	f2 d0 20 00 1d 00 	bis.b	#32,	&0x001d	;#0x0020
    4456:	b0 12 4c 4a 	call	#0x4a4c	
    445a:	3e 40 14 00 	mov	#20,	r14	;#0x0014
    445e:	0f 43       	clr	r15		
    4460:	b0 12 4c 4f 	call	#0x4f4c	
    4464:	08 3c       	jmp	$+18     	;abs 0x4476
    4466:	6f 43       	mov.b	#2,	r15	;r3 As==10
    4468:	b0 12 1a 4b 	call	#0x4b1a	
    446c:	4f 93       	tst.b	r15		
    446e:	03 20       	jnz	$+8      	;abs 0x4476
    4470:	5f 43       	mov.b	#1,	r15	;r3 As==01
    4472:	b0 12 1a 4b 	call	#0x4b1a	
    4476:	b0 12 3a 4a 	call	#0x4a3a	
    447a:	4a 4f       	mov.b	r15,	r10	
    447c:	86 3c       	jmp	$+270    	;abs 0x458a
    447e:	c2 93 14 11 	tst.b	&0x1114	
    4482:	77 24       	jz	$+240    	;abs 0x4572
    4484:	b2 b0 10 00 62 01 	bit	#16,	&0x0162	;#0x0010
    448a:	08 20       	jnz	$+18     	;abs 0x449c
    448c:	b2 b0 10 00 64 01 	bit	#16,	&0x0164	;#0x0010
    4492:	04 20       	jnz	$+10     	;abs 0x449c
    4494:	b2 b0 10 00 66 01 	bit	#16,	&0x0166	;#0x0010
    449a:	07 24       	jz	$+16     	;abs 0x44aa
    449c:	1e 42 60 01 	mov	&0x0160,r14	
    44a0:	3e f0 00 03 	and	#768,	r14	;#0x0300
    44a4:	3e 90 00 02 	cmp	#512,	r14	;#0x0200
    44a8:	2e 24       	jz	$+94     	;abs 0x4506
    44aa:	5f 42 04 00 	mov.b	&0x0004,r15	
    44ae:	3f b0 c0 00 	bit	#192,	r15	;#0x00c0
    44b2:	05 24       	jz	$+12     	;abs 0x44be
    44b4:	5f 42 71 00 	mov.b	&0x0071,r15	
    44b8:	3f f0 20 00 	and	#32,	r15	;#0x0020
    44bc:	26 20       	jnz	$+78     	;abs 0x450a
    44be:	5f 42 05 00 	mov.b	&0x0005,r15	
    44c2:	3f b0 30 00 	bit	#48,	r15	;#0x0030
    44c6:	05 24       	jz	$+12     	;abs 0x44d2
    44c8:	5f 42 79 00 	mov.b	&0x0079,r15	
    44cc:	3f f0 20 00 	and	#32,	r15	;#0x0020
    44d0:	1e 20       	jnz	$+62     	;abs 0x450e
    44d2:	5f 42 70 00 	mov.b	&0x0070,r15	
    44d6:	1f f3       	and	#1,	r15	;r3 As==01
    44d8:	1c 24       	jz	$+58     	;abs 0x4512
    44da:	5f 42 71 00 	mov.b	&0x0071,r15	
    44de:	3f f0 20 00 	and	#32,	r15	;#0x0020
    44e2:	1a 24       	jz	$+54     	;abs 0x4518
    44e4:	5f 42 72 00 	mov.b	&0x0072,r15	
    44e8:	3f f0 20 00 	and	#32,	r15	;#0x0020
    44ec:	18 24       	jz	$+50     	;abs 0x451e
    44ee:	5f 42 70 00 	mov.b	&0x0070,r15	
    44f2:	2f f2       	and	#4,	r15	;r2 As==10
    44f4:	17 24       	jz	$+48     	;abs 0x4524
    44f6:	5f 42 70 00 	mov.b	&0x0070,r15	
    44fa:	3f f0 20 00 	and	#32,	r15	;#0x0020
    44fe:	15 20       	jnz	$+44     	;abs 0x452a
    4500:	7e 40 05 00 	mov.b	#5,	r14	;#0x0005
    4504:	13 3c       	jmp	$+40     	;abs 0x452c
    4506:	6e 43       	mov.b	#2,	r14	;r3 As==10
    4508:	11 3c       	jmp	$+36     	;abs 0x452c
    450a:	6e 43       	mov.b	#2,	r14	;r3 As==10
    450c:	0f 3c       	jmp	$+32     	;abs 0x452c
    450e:	6e 43       	mov.b	#2,	r14	;r3 As==10
    4510:	0d 3c       	jmp	$+28     	;abs 0x452c
    4512:	7e 40 05 00 	mov.b	#5,	r14	;#0x0005
    4516:	0a 3c       	jmp	$+22     	;abs 0x452c
    4518:	7e 40 05 00 	mov.b	#5,	r14	;#0x0005
    451c:	07 3c       	jmp	$+16     	;abs 0x452c
    451e:	7e 40 05 00 	mov.b	#5,	r14	;#0x0005
    4522:	04 3c       	jmp	$+10     	;abs 0x452c
    4524:	7e 40 05 00 	mov.b	#5,	r14	;#0x0005
    4528:	01 3c       	jmp	$+4      	;abs 0x452c
    452a:	6e 43       	mov.b	#2,	r14	;r3 As==10
    452c:	b2 b0 10 00 a0 01 	bit	#16,	&0x01a0	;#0x0010
    4532:	19 24       	jz	$+52     	;abs 0x4566
    4534:	b2 b0 10 00 a2 01 	bit	#16,	&0x01a2	;#0x0010
    453a:	05 24       	jz	$+12     	;abs 0x4546
    453c:	b2 b2 a2 01 	bit	#8,	&0x01a2	;r2 As==11
    4540:	0f 24       	jz	$+32     	;abs 0x4560
    4542:	6e 43       	mov.b	#2,	r14	;r3 As==10
    4544:	10 3c       	jmp	$+34     	;abs 0x4566
    4546:	1f 42 a2 01 	mov	&0x01a2,r15	
    454a:	3f b0 00 04 	bit	#1024,	r15	;#0x0400
    454e:	0b 24       	jz	$+24     	;abs 0x4566
    4550:	1d 42 60 01 	mov	&0x0160,r13	
    4554:	3d f0 00 03 	and	#768,	r13	;#0x0300
    4558:	3d 90 00 02 	cmp	#512,	r13	;#0x0200
    455c:	04 20       	jnz	$+10     	;abs 0x4566
    455e:	02 3c       	jmp	$+6      	;abs 0x4564
    4560:	4e 43       	clr.b	r14		
    4562:	01 3c       	jmp	$+4      	;abs 0x4566
    4564:	6e 43       	mov.b	#2,	r14	;r3 As==10
    4566:	7e 90 05 00 	cmp.b	#5,	r14	;#0x0005
    456a:	01 28       	jnc	$+4      	;abs 0x456e
    456c:	6e 42       	mov.b	#4,	r14	;r2 As==10
    456e:	c2 4e 7e 17 	mov.b	r14,	&0x177e	
    4572:	5e 42 7e 17 	mov.b	&0x177e,r14	
    4576:	0e 5e       	rla	r14		
    4578:	1e 4e b4 8b 	mov	-29772(r14),r14	;0x8bb4(r14)
    457c:	3e d2       	bis	#8,	r14	;r2 As==11
    457e:	81 4e 00 00 	mov	r14,	0(r1)	;0x0000(r1)
    4582:	22 d1       	bis	@r1,	r2	
    4584:	32 c2       	dint			
    4586:	03 43       	nop			
    4588:	03 43       	nop			
    458a:	f2 93 22 1c 	cmp.b	#-1,	&0x1c22	;r3 As==11
    458e:	77 27       	jz	$-272    	;abs 0x447e
    4590:	b0 12 0a 49 	call	#0x490a	
    4594:	4b 4f       	mov.b	r15,	r11	
    4596:	7f 93       	cmp.b	#-1,	r15	;r3 As==11
    4598:	72 27       	jz	$-282    	;abs 0x447e
    459a:	4f 4a       	mov.b	r10,	r15	
    459c:	b0 12 4c 4a 	call	#0x4a4c	
    45a0:	4f 4b       	mov.b	r11,	r15	
    45a2:	b0 12 c2 6b 	call	#0x6bc2	
    45a6:	67 3f       	jmp	$-304    	;abs 0x4476

000045a8 <__stop_progExec__>:
    45a8:	32 d0 f0 00 	bis	#240,	r2	;#0x00f0
    45ac:	fd 3f       	jmp	$-4      	;abs 0x45a8

000045ae <__ctors_end>:
    45ae:	30 40 6e 8b 	br	#0x8b6e	

000045b2 <RandomMlcgC__Random__rand16>:
    45b2:	0b 12       	push	r11		
    45b4:	0a 12       	push	r10		
    45b6:	09 12       	push	r9		
    45b8:	08 12       	push	r8		
    45ba:	07 12       	push	r7		
    45bc:	06 12       	push	r6		
    45be:	3c 40 4e 83 	mov	#-31922,r12	;#0x834e
    45c2:	0d 43       	clr	r13		
    45c4:	1e 42 d0 1a 	mov	&0x1ad0,r14	
    45c8:	1f 42 d2 1a 	mov	&0x1ad2,r15	
    45cc:	b0 12 6e 7a 	call	#0x7a6e	
    45d0:	07 4d       	mov	r13,	r7	
    45d2:	08 4e       	mov	r14,	r8	
    45d4:	09 4f       	mov	r15,	r9	
    45d6:	0e 4c       	mov	r12,	r14	
    45d8:	0f 47       	mov	r7,	r15	
    45da:	12 c3       	clrc			
    45dc:	0f 10       	rrc	r15		
    45de:	0e 10       	rrc	r14		
    45e0:	08 5e       	add	r14,	r8	
    45e2:	09 6f       	addc	r15,	r9	
    45e4:	09 93       	tst	r9		
    45e6:	05 34       	jge	$+12     	;abs 0x45f2
    45e8:	38 f3       	and	#-1,	r8	;r3 As==11
    45ea:	39 f0 ff 7f 	and	#32767,	r9	;#0x7fff
    45ee:	18 53       	inc	r8		
    45f0:	09 63       	adc	r9		
    45f2:	82 48 d0 1a 	mov	r8,	&0x1ad0	
    45f6:	82 49 d2 1a 	mov	r9,	&0x1ad2	
    45fa:	0f 48       	mov	r8,	r15	
    45fc:	36 41       	pop	r6		
    45fe:	37 41       	pop	r7		
    4600:	38 41       	pop	r8		
    4602:	39 41       	pop	r9		
    4604:	3a 41       	pop	r10		
    4606:	3b 41       	pop	r11		
    4608:	30 41       	ret			

0000460a <CC2420SpiP__SpiByte__write>:
    460a:	c2 4f 77 00 	mov.b	r15,	&0x0077	
    460e:	5f 42 02 00 	mov.b	&0x0002,r15	
    4612:	3f f0 40 00 	and	#64,	r15	;#0x0040
    4616:	fb 27       	jz	$-8      	;abs 0x460e
    4618:	f2 f0 bf ff 02 00 	and.b	#-65,	&0x0002	;#0xffbf
    461e:	5f 42 76 00 	mov.b	&0x0076,r15	
    4622:	30 41       	ret			

00004624 <OneWireMasterP__BusyWait__wait>:
    4624:	1e 42 70 01 	mov	&0x0170,r14	
    4628:	3f 90 01 80 	cmp	#-32767,r15	;#0x8001
    462c:	0a 28       	jnc	$+22     	;abs 0x4642
    462e:	3f 50 00 80 	add	#-32768,r15	;#0x8000
    4632:	1d 42 70 01 	mov	&0x0170,r13	
    4636:	0d 8e       	sub	r14,	r13	
    4638:	0f 9d       	cmp	r13,	r15	
    463a:	fb 2f       	jc	$-8      	;abs 0x4632
    463c:	0e 5f       	add	r15,	r14	
    463e:	3f 40 00 80 	mov	#-32768,r15	;#0x8000
    4642:	1d 42 70 01 	mov	&0x0170,r13	
    4646:	0d 8e       	sub	r14,	r13	
    4648:	0f 9d       	cmp	r13,	r15	
    464a:	fb 2f       	jc	$-8      	;abs 0x4642
    464c:	30 41       	ret			

0000464e <OneWireMasterP__Pin__makeInput>:
    464e:	f2 f0 ef ff 2a 00 	and.b	#-17,	&0x002a	;#0xffef
    4654:	30 41       	ret			

00004656 <OneWireMasterP__Pin__makeOutput>:
    4656:	f2 d0 10 00 2a 00 	bis.b	#16,	&0x002a	;#0x0010
    465c:	30 41       	ret			

0000465e <Msp430TimerP__1__Timer__get>:
    465e:	1f 42 90 01 	mov	&0x0190,r15	
    4662:	01 3c       	jmp	$+4      	;abs 0x4666
    4664:	0f 4e       	mov	r14,	r15	
    4666:	1e 42 90 01 	mov	&0x0190,r14	
    466a:	0f 9e       	cmp	r14,	r15	
    466c:	fb 23       	jnz	$-8      	;abs 0x4664
    466e:	30 41       	ret			

00004670 <GpioCaptureC__0__enableCapture>:
    4670:	b2 f0 ef ff 84 01 	and	#-17,	&0x0184	;#0xffef
    4676:	e2 d3 1f 00 	bis.b	#2,	&0x001f	;r3 As==10
    467a:	b2 f0 fe ff 84 01 	and	#-2,	&0x0184	;#0xfffe
    4680:	b2 f0 fd ff 84 01 	and	#-3,	&0x0184	;#0xfffd
    4686:	4f 4f       	mov.b	r15,	r15	
    4688:	8f 10       	swpb	r15		
    468a:	7e 40 06 00 	mov.b	#6,	r14	;#0x0006
    468e:	0f 5f       	rla	r15		
    4690:	7e 53       	add.b	#-1,	r14	;r3 As==11
    4692:	fd 23       	jnz	$-4      	;abs 0x468e
    4694:	3f d0 00 01 	bis	#256,	r15	;#0x0100
    4698:	82 4f 84 01 	mov	r15,	&0x0184	
    469c:	b2 d0 10 00 84 01 	bis	#16,	&0x0184	;#0x0010
    46a2:	4f 43       	clr.b	r15		
    46a4:	30 41       	ret			

000046a6 <MotePlatformC__TOSH_FLASH_M25P_DP_bit>:
    46a6:	4f 93       	tst.b	r15		
    46a8:	04 24       	jz	$+10     	;abs 0x46b2
    46aa:	5f 42 19 00 	mov.b	&0x0019,r15	
    46ae:	6f d3       	bis.b	#2,	r15	;r3 As==10
    46b0:	04 3c       	jmp	$+10     	;abs 0x46ba
    46b2:	5f 42 19 00 	mov.b	&0x0019,r15	
    46b6:	7f f0 fd ff 	and.b	#-3,	r15	;#0xfffd
    46ba:	c2 4f 19 00 	mov.b	r15,	&0x0019	
    46be:	f2 d2 19 00 	bis.b	#8,	&0x0019	;r2 As==11
    46c2:	f2 f0 f7 ff 19 00 	and.b	#-9,	&0x0019	;#0xfff7
    46c8:	30 41       	ret			

000046ca <CC2420PacketP__getNetwork>:
    46ca:	5c 4f 02 00 	mov.b	2(r15),	r12	;0x0002(r15)
    46ce:	8c 10       	swpb	r12		
    46d0:	5e 4f 01 00 	mov.b	1(r15),	r14	;0x0001(r15)
    46d4:	0c de       	bis	r14,	r12	
    46d6:	0e 4c       	mov	r12,	r14	
    46d8:	8e 10       	swpb	r14		
    46da:	4e 4e       	mov.b	r14,	r14	
    46dc:	12 c3       	clrc			
    46de:	0e 10       	rrc	r14		
    46e0:	12 c3       	clrc			
    46e2:	0e 10       	rrc	r14		
    46e4:	3e f0 03 00 	and	#3,	r14	;#0x0003
    46e8:	5d 4e c0 8b 	mov.b	-29760(r14),r13	;0x8bc0(r14)
    46ec:	8d 11       	sxt	r13		
    46ee:	0e 4c       	mov	r12,	r14	
    46f0:	8e 10       	swpb	r14		
    46f2:	4e 4e       	mov.b	r14,	r14	
    46f4:	7c 40 06 00 	mov.b	#6,	r12	;#0x0006
    46f8:	12 c3       	clrc			
    46fa:	0e 10       	rrc	r14		
    46fc:	7c 53       	add.b	#-1,	r12	;r3 As==11
    46fe:	fc 23       	jnz	$-6      	;abs 0x46f8
    4700:	5e 4e c0 8b 	mov.b	-29760(r14),r14	;0x8bc0(r14)
    4704:	8e 11       	sxt	r14		
    4706:	0e 5d       	add	r13,	r14	
    4708:	3e 50 06 00 	add	#6,	r14	;#0x0006
    470c:	0f 5e       	add	r14,	r15	
    470e:	30 41       	ret			

00004710 <SenderC__DQIInit>:
    4710:	c2 43 20 1c 	mov.b	#0,	&0x1c20	;r3 As==00
    4714:	82 43 28 21 	mov	#0,	&0x2128	;r3 As==00
    4718:	82 43 20 1a 	mov	#0,	&0x1a20	;r3 As==00
    471c:	82 43 90 1a 	mov	#0,	&0x1a90	;r3 As==00
    4720:	b2 40 0f 27 8a 1b 	mov	#9999,	&0x1b8a	;#0x270f
    4726:	c2 43 ab 1b 	mov.b	#0,	&0x1bab	;r3 As==00
    472a:	82 43 e8 18 	mov	#0,	&0x18e8	;r3 As==00
    472e:	30 41       	ret			

00004730 <CC2420ReceiveP__reset_state>:
    4730:	f2 40 80 ff e6 18 	mov.b	#-128,	&0x18e6	;#0xff80
    4736:	c2 43 8e 1a 	mov.b	#0,	&0x1a8e	;r3 As==00
    473a:	c2 43 d8 20 	mov.b	#0,	&0x20d8	;r3 As==00
    473e:	c2 43 21 1c 	mov.b	#0,	&0x1c21	;r3 As==00
    4742:	c2 43 85 1a 	mov.b	#0,	&0x1a85	;r3 As==00
    4746:	30 41       	ret			

00004748 <LocalIeeeEui64P__LocalIeeeEui64__getId>:
    4748:	0b 12       	push	r11		
    474a:	0a 12       	push	r10		
    474c:	09 12       	push	r9		
    474e:	08 12       	push	r8		
    4750:	c2 93 70 17 	tst.b	&0x1770	
    4754:	b0 20       	jnz	$+354    	;abs 0x48b6
    4756:	c2 93 6e 17 	tst.b	&0x176e	
    475a:	82 20       	jnz	$+262    	;abs 0x4860
    475c:	b0 12 4e 46 	call	#0x464e	
    4760:	f2 f0 ef ff 29 00 	and.b	#-17,	&0x0029	;#0xffef
    4766:	b0 12 56 46 	call	#0x4656	
    476a:	3f 40 30 02 	mov	#560,	r15	;#0x0230
    476e:	b0 12 24 46 	call	#0x4624	
    4772:	b0 12 4e 46 	call	#0x464e	
    4776:	3f 40 3c 00 	mov	#60,	r15	;#0x003c
    477a:	b0 12 24 46 	call	#0x4624	
    477e:	0b 43       	clr	r11		
    4780:	f2 b0 10 00 28 00 	bit.b	#16,	&0x0028	;#0x0010
    4786:	09 24       	jz	$+20     	;abs 0x479a
    4788:	3b 50 05 00 	add	#5,	r11	;#0x0005
    478c:	3f 40 05 00 	mov	#5,	r15	;#0x0005
    4790:	b0 12 24 46 	call	#0x4624	
    4794:	3b 90 f0 00 	cmp	#240,	r11	;#0x00f0
    4798:	f3 23       	jnz	$-24     	;abs 0x4780
    479a:	3f 40 a4 01 	mov	#420,	r15	;#0x01a4
    479e:	b0 12 24 46 	call	#0x4624	
    47a2:	3b 90 f0 00 	cmp	#240,	r11	;#0x00f0
    47a6:	5e 2c       	jc	$+190    	;abs 0x4864
    47a8:	7a 42       	mov.b	#8,	r10	;r2 As==11
    47aa:	7b 40 33 00 	mov.b	#51,	r11	;#0x0033
    47ae:	1b b3       	bit	#1,	r11	;r3 As==01
    47b0:	0b 24       	jz	$+24     	;abs 0x47c8
    47b2:	b0 12 56 46 	call	#0x4656	
    47b6:	3f 40 05 00 	mov	#5,	r15	;#0x0005
    47ba:	b0 12 24 46 	call	#0x4624	
    47be:	b0 12 4e 46 	call	#0x464e	
    47c2:	3f 40 41 00 	mov	#65,	r15	;#0x0041
    47c6:	0a 3c       	jmp	$+22     	;abs 0x47dc
    47c8:	b0 12 56 46 	call	#0x4656	
    47cc:	3f 40 3c 00 	mov	#60,	r15	;#0x003c
    47d0:	b0 12 24 46 	call	#0x4624	
    47d4:	b0 12 4e 46 	call	#0x464e	
    47d8:	3f 40 05 00 	mov	#5,	r15	;#0x0005
    47dc:	b0 12 24 46 	call	#0x4624	
    47e0:	12 c3       	clrc			
    47e2:	4b 10       	rrc.b	r11		
    47e4:	7a 53       	add.b	#-1,	r10	;r3 As==11
    47e6:	e3 23       	jnz	$-56     	;abs 0x47ae
    47e8:	3a 40 ac 1b 	mov	#7084,	r10	;#0x1bac
    47ec:	79 42       	mov.b	#8,	r9	;r2 As==11
    47ee:	4b 43       	clr.b	r11		
    47f0:	12 c3       	clrc			
    47f2:	4b 10       	rrc.b	r11		
    47f4:	b0 12 56 46 	call	#0x4656	
    47f8:	3f 40 05 00 	mov	#5,	r15	;#0x0005
    47fc:	b0 12 24 46 	call	#0x4624	
    4800:	b0 12 4e 46 	call	#0x464e	
    4804:	3f 40 05 00 	mov	#5,	r15	;#0x0005
    4808:	b0 12 24 46 	call	#0x4624	
    480c:	58 42 28 00 	mov.b	&0x0028,r8	
    4810:	3f 40 41 00 	mov	#65,	r15	;#0x0041
    4814:	b0 12 24 46 	call	#0x4624	
    4818:	78 b0 10 00 	bit.b	#16,	r8	;#0x0010
    481c:	02 24       	jz	$+6      	;abs 0x4822
    481e:	7b d0 80 ff 	bis.b	#-128,	r11	;#0xff80
    4822:	79 53       	add.b	#-1,	r9	;r3 As==11
    4824:	e5 23       	jnz	$-52     	;abs 0x47f0
    4826:	ca 4b 00 00 	mov.b	r11,	0(r10)	;0x0000(r10)
    482a:	1a 53       	inc	r10		
    482c:	3a 90 b4 1b 	cmp	#7092,	r10	;#0x1bb4
    4830:	dd 23       	jnz	$-68     	;abs 0x47ec
    4832:	0e 43       	clr	r14		
    4834:	4f 43       	clr.b	r15		
    4836:	5f ee ac 1b 	xor.b	7084(r14),r15	;0x1bac(r14)
    483a:	7d 42       	mov.b	#8,	r13	;r2 As==11
    483c:	0c 4f       	mov	r15,	r12	
    483e:	1c f3       	and	#1,	r12	;r3 As==01
    4840:	12 c3       	clrc			
    4842:	4f 10       	rrc.b	r15		
    4844:	0c 93       	tst	r12		
    4846:	02 24       	jz	$+6      	;abs 0x484c
    4848:	7f e0 8c ff 	xor.b	#-116,	r15	;#0xff8c
    484c:	7d 53       	add.b	#-1,	r13	;r3 As==11
    484e:	f6 23       	jnz	$-18     	;abs 0x483c
    4850:	1e 53       	inc	r14		
    4852:	3e 92       	cmp	#8,	r14	;r2 As==11
    4854:	f0 23       	jnz	$-30     	;abs 0x4836
    4856:	4f 93       	tst.b	r15		
    4858:	07 20       	jnz	$+16     	;abs 0x4868
    485a:	d2 43 6e 17 	mov.b	#1,	&0x176e	;r3 As==01
    485e:	06 3c       	jmp	$+14     	;abs 0x486c
    4860:	4f 43       	clr.b	r15		
    4862:	04 3c       	jmp	$+10     	;abs 0x486c
    4864:	6f 42       	mov.b	#4,	r15	;r2 As==10
    4866:	02 3c       	jmp	$+6      	;abs 0x486c
    4868:	7f 40 06 00 	mov.b	#6,	r15	;#0x0006
    486c:	c2 93 6e 17 	tst.b	&0x176e	
    4870:	07 24       	jz	$+16     	;abs 0x4880
    4872:	5e 42 ad 1b 	mov.b	&0x1bad,r14	
    4876:	5d 42 ae 1b 	mov.b	&0x1bae,r13	
    487a:	5c 42 af 1b 	mov.b	&0x1baf,r12	
    487e:	03 3c       	jmp	$+8      	;abs 0x4886
    4880:	4c 43       	clr.b	r12		
    4882:	4d 43       	clr.b	r13		
    4884:	4e 43       	clr.b	r14		
    4886:	4f 93       	tst.b	r15		
    4888:	16 20       	jnz	$+46     	;abs 0x48b6
    488a:	c2 43 72 17 	mov.b	#0,	&0x1772	;r3 As==00
    488e:	f2 40 12 00 73 17 	mov.b	#18,	&0x1773	;#0x0012
    4894:	f2 40 6d 00 74 17 	mov.b	#109,	&0x1774	;#0x006d
    489a:	f2 40 45 00 75 17 	mov.b	#69,	&0x1775	;#0x0045
    48a0:	f2 40 50 00 76 17 	mov.b	#80,	&0x1776	;#0x0050
    48a6:	c2 4c 77 17 	mov.b	r12,	&0x1777	
    48aa:	c2 4d 78 17 	mov.b	r13,	&0x1778	
    48ae:	c2 4e 79 17 	mov.b	r14,	&0x1779	
    48b2:	d2 43 70 17 	mov.b	#1,	&0x1770	;r3 As==01
    48b6:	1c 42 72 17 	mov	&0x1772,r12	
    48ba:	1d 42 74 17 	mov	&0x1774,r13	
    48be:	1e 42 76 17 	mov	&0x1776,r14	
    48c2:	1f 42 78 17 	mov	&0x1778,r15	
    48c6:	38 41       	pop	r8		
    48c8:	39 41       	pop	r9		
    48ca:	3a 41       	pop	r10		
    48cc:	3b 41       	pop	r11		
    48ce:	30 41       	ret			

000048d0 <qACK_pop>:
    48d0:	0b 12       	push	r11		
    48d2:	0a 12       	push	r10		
    48d4:	0b 4f       	mov	r15,	r11	
    48d6:	2a 4f       	mov	@r15,	r10	
    48d8:	0a 93       	tst	r10		
    48da:	0b 24       	jz	$+24     	;abs 0x48f2
    48dc:	9f 4a 06 00 00 00 	mov	6(r10),	0(r15)	;0x0006(r10), 0x0000(r15)
    48e2:	2f 4a       	mov	@r10,	r15	
    48e4:	b0 12 66 8b 	call	#0x8b66	
    48e8:	0f 4a       	mov	r10,	r15	
    48ea:	b0 12 66 8b 	call	#0x8b66	
    48ee:	bb 53 04 00 	add	#-1,	4(r11)	;r3 As==11, 0x0004(r11)
    48f2:	3a 41       	pop	r10		
    48f4:	3b 41       	pop	r11		
    48f6:	30 41       	ret			

000048f8 <HplMsp430Usart0P__Usart__resetUsart>:
    48f8:	4f 93       	tst.b	r15		
    48fa:	03 24       	jz	$+8      	;abs 0x4902
    48fc:	d2 43 70 00 	mov.b	#1,	&0x0070	;r3 As==01
    4900:	30 41       	ret			
    4902:	f2 f0 fe ff 70 00 	and.b	#-2,	&0x0070	;#0xfffe
    4908:	30 41       	ret			

0000490a <SchedulerBasicP__popTask.part.89>:
    490a:	5f 42 22 1c 	mov.b	&0x1c22,r15	
    490e:	4e 4f       	mov.b	r15,	r14	
    4910:	3e 50 24 1a 	add	#6692,	r14	;#0x1a24
    4914:	6d 4e       	mov.b	@r14,	r13	
    4916:	c2 4d 22 1c 	mov.b	r13,	&0x1c22	
    491a:	7d 93       	cmp.b	#-1,	r13	;r3 As==11
    491c:	02 20       	jnz	$+6      	;abs 0x4922
    491e:	f2 43 f1 20 	mov.b	#-1,	&0x20f1	;r3 As==11
    4922:	fe 43 00 00 	mov.b	#-1,	0(r14)	;r3 As==11, 0x0000(r14)
    4926:	30 41       	ret			

00004928 <Msp430TimerP__0__Event__fired>:
    4928:	5f 93       	cmp.b	#1,	r15	;r3 As==01
    492a:	0c 24       	jz	$+26     	;abs 0x4944
    492c:	03 28       	jnc	$+8      	;abs 0x4934
    492e:	6f 93       	cmp.b	#2,	r15	;r3 As==10
    4930:	18 20       	jnz	$+50     	;abs 0x4962
    4932:	10 3c       	jmp	$+34     	;abs 0x4954
    4934:	1f 42 62 01 	mov	&0x0162,r15	
    4938:	8f 10       	swpb	r15		
    493a:	5f f3       	and.b	#1,	r15	;r3 As==01
    493c:	12 24       	jz	$+38     	;abs 0x4962
    493e:	1f 42 72 01 	mov	&0x0172,r15	
    4942:	30 41       	ret			
    4944:	1f 42 64 01 	mov	&0x0164,r15	
    4948:	8f 10       	swpb	r15		
    494a:	5f f3       	and.b	#1,	r15	;r3 As==01
    494c:	0a 24       	jz	$+22     	;abs 0x4962
    494e:	1f 42 74 01 	mov	&0x0174,r15	
    4952:	30 41       	ret			
    4954:	1f 42 66 01 	mov	&0x0166,r15	
    4958:	8f 10       	swpb	r15		
    495a:	5f f3       	and.b	#1,	r15	;r3 As==01
    495c:	02 24       	jz	$+6      	;abs 0x4962
    495e:	1f 42 76 01 	mov	&0x0176,r15	
    4962:	30 41       	ret			

00004964 <ArbiterP__0__ResourceConfigure__unconfigure.part.112>:
    4964:	5f 43       	mov.b	#1,	r15	;r3 As==01
    4966:	b0 12 f8 48 	call	#0x48f8	
    496a:	f2 f0 bf ff 04 00 	and.b	#-65,	&0x0004	;#0xffbf
    4970:	3f 40 1b 00 	mov	#27,	r15	;#0x001b
    4974:	ff f0 fd ff 00 00 	and.b	#-3,	0(r15)	;#0xfffd, 0x0000(r15)
    497a:	ff f0 fb ff 00 00 	and.b	#-5,	0(r15)	;#0xfffb, 0x0000(r15)
    4980:	ff f0 f7 ff 00 00 	and.b	#-9,	0(r15)	;#0xfff7, 0x0000(r15)
    4986:	4f 43       	clr.b	r15		
    4988:	b0 12 f8 48 	call	#0x48f8	
    498c:	30 41       	ret			

0000498e <pq_pop>:
    498e:	0b 12       	push	r11		
    4990:	0a 12       	push	r10		
    4992:	09 12       	push	r9		
    4994:	08 12       	push	r8		
    4996:	31 50 ee ff 	add	#-18,	r1	;#0xffee
    499a:	0b 4f       	mov	r15,	r11	
    499c:	19 4f 32 01 	mov	306(r15),r9	;0x0132(r15)
    49a0:	09 93       	tst	r9		
    49a2:	16 20       	jnz	$+46     	;abs 0x49d0
    49a4:	4b 43       	clr.b	r11		
    49a6:	c1 4b 00 00 	mov.b	r11,	0(r1)	;0x0000(r1)
    49aa:	81 43 02 00 	mov	#0,	2(r1)	;r3 As==00, 0x0002(r1)
    49ae:	81 43 04 00 	mov	#0,	4(r1)	;r3 As==00, 0x0004(r1)
    49b2:	3d 40 06 00 	mov	#6,	r13	;#0x0006
    49b6:	0e 41       	mov	r1,	r14	
    49b8:	0f 41       	mov	r1,	r15	
    49ba:	3f 50 06 00 	add	#6,	r15	;#0x0006
    49be:	b0 12 fa 88 	call	#0x88fa	
    49c2:	c1 4b 06 00 	mov.b	r11,	6(r1)	;0x0006(r1)
    49c6:	81 43 08 00 	mov	#0,	8(r1)	;r3 As==00, 0x0008(r1)
    49ca:	81 43 0a 00 	mov	#0,	10(r1)	;r3 As==00, 0x000a(r1)
    49ce:	27 3c       	jmp	$+80     	;abs 0x4a1e
    49d0:	3d 40 06 00 	mov	#6,	r13	;#0x0006
    49d4:	0e 4f       	mov	r15,	r14	
    49d6:	3e 50 06 00 	add	#6,	r14	;#0x0006
    49da:	0f 41       	mov	r1,	r15	
    49dc:	3f 50 0c 00 	add	#12,	r15	;#0x000c
    49e0:	b0 12 fa 88 	call	#0x88fa	
    49e4:	0e 4b       	mov	r11,	r14	
    49e6:	3a 40 31 00 	mov	#49,	r10	;#0x0031
    49ea:	08 4e       	mov	r14,	r8	
    49ec:	38 50 06 00 	add	#6,	r8	;#0x0006
    49f0:	3d 40 06 00 	mov	#6,	r13	;#0x0006
    49f4:	3e 50 0c 00 	add	#12,	r14	;#0x000c
    49f8:	0f 48       	mov	r8,	r15	
    49fa:	b0 12 fa 88 	call	#0x88fa	
    49fe:	3a 53       	add	#-1,	r10	;r3 As==11
    4a00:	0e 48       	mov	r8,	r14	
    4a02:	f3 23       	jnz	$-24     	;abs 0x49ea
    4a04:	39 53       	add	#-1,	r9	;r3 As==11
    4a06:	8b 49 32 01 	mov	r9,	306(r11);0x0132(r11)
    4a0a:	3d 40 06 00 	mov	#6,	r13	;#0x0006
    4a0e:	0e 41       	mov	r1,	r14	
    4a10:	3e 50 0c 00 	add	#12,	r14	;#0x000c
    4a14:	0f 41       	mov	r1,	r15	
    4a16:	3f 50 06 00 	add	#6,	r15	;#0x0006
    4a1a:	b0 12 fa 88 	call	#0x88fa	
    4a1e:	1c 41 06 00 	mov	6(r1),	r12	;0x0006(r1)
    4a22:	1d 41 08 00 	mov	8(r1),	r13	;0x0008(r1)
    4a26:	1e 41 0a 00 	mov	10(r1),	r14	;0x000a(r1)
    4a2a:	0f 43       	clr	r15		
    4a2c:	31 50 12 00 	add	#18,	r1	;#0x0012
    4a30:	38 41       	pop	r8		
    4a32:	39 41       	pop	r9		
    4a34:	3a 41       	pop	r10		
    4a36:	3b 41       	pop	r11		
    4a38:	30 41       	ret			

00004a3a <__nesc_atomic_start>:
    4a3a:	0e 42       	mov	r2,	r14	
    4a3c:	32 c2       	dint			
    4a3e:	03 43       	nop			
    4a40:	03 43       	nop			
    4a42:	3e f2       	and	#8,	r14	;r2 As==11
    4a44:	5f 43       	mov.b	#1,	r15	;r3 As==01
    4a46:	01 20       	jnz	$+4      	;abs 0x4a4a
    4a48:	4f 43       	clr.b	r15		
    4a4a:	30 41       	ret			

00004a4c <__nesc_atomic_end>:
    4a4c:	4f 93       	tst.b	r15		
    4a4e:	01 24       	jz	$+4      	;abs 0x4a52
    4a50:	32 d2       	eint			
    4a52:	30 41       	ret			

00004a54 <Msp430SpiNoDmaP__0__continueOp>:
    4a54:	0b 12       	push	r11		
    4a56:	b0 12 3a 4a 	call	#0x4a3a	
    4a5a:	1d 42 da 1a 	mov	&0x1ada,r13	
    4a5e:	1e 42 d6 20 	mov	&0x20d6,r14	
    4a62:	0d 93       	tst	r13		
    4a64:	03 24       	jz	$+8      	;abs 0x4a6c
    4a66:	0d 5e       	add	r14,	r13	
    4a68:	6d 4d       	mov.b	@r13,	r13	
    4a6a:	01 3c       	jmp	$+4      	;abs 0x4a6e
    4a6c:	4d 43       	clr.b	r13		
    4a6e:	c2 4d 77 00 	mov.b	r13,	&0x0077	
    4a72:	6e 53       	incd.b	r14		
    4a74:	1d 42 da 20 	mov	&0x20da,r13	
    4a78:	4c 4e       	mov.b	r14,	r12	
    4a7a:	0d 9c       	cmp	r12,	r13	
    4a7c:	1c 2c       	jc	$+58     	;abs 0x4ab6
    4a7e:	4e 4d       	mov.b	r13,	r14	
    4a80:	1a 3c       	jmp	$+54     	;abs 0x4ab6
    4a82:	5d 42 02 00 	mov.b	&0x0002,r13	
    4a86:	3d f0 40 00 	and	#64,	r13	;#0x0040
    4a8a:	fb 27       	jz	$-8      	;abs 0x4a82
    4a8c:	5b 42 76 00 	mov.b	&0x0076,r11	
    4a90:	1d 42 84 1b 	mov	&0x1b84,r13	
    4a94:	0d 93       	tst	r13		
    4a96:	03 24       	jz	$+8      	;abs 0x4a9e
    4a98:	0c 5d       	add	r13,	r12	
    4a9a:	cc 4b 00 00 	mov.b	r11,	0(r12)	;0x0000(r12)
    4a9e:	1d 42 da 1a 	mov	&0x1ada,r13	
    4aa2:	0d 93       	tst	r13		
    4aa4:	04 24       	jz	$+10     	;abs 0x4aae
    4aa6:	1d 52 d6 20 	add	&0x20d6,r13	
    4aaa:	6d 4d       	mov.b	@r13,	r13	
    4aac:	01 3c       	jmp	$+4      	;abs 0x4ab0
    4aae:	4d 43       	clr.b	r13		
    4ab0:	c2 4d 77 00 	mov.b	r13,	&0x0077	
    4ab4:	01 3c       	jmp	$+4      	;abs 0x4ab8
    4ab6:	4e 4e       	mov.b	r14,	r14	
    4ab8:	1c 42 d6 20 	mov	&0x20d6,r12	
    4abc:	0d 4c       	mov	r12,	r13	
    4abe:	1d 53       	inc	r13		
    4ac0:	82 4d d6 20 	mov	r13,	&0x20d6	
    4ac4:	0d 9e       	cmp	r14,	r13	
    4ac6:	dd 2b       	jnc	$-68     	;abs 0x4a82
    4ac8:	b0 12 4c 4a 	call	#0x4a4c	
    4acc:	3b 41       	pop	r11		
    4ace:	30 41       	ret			

00004ad0 <CC2420SpiP__WorkingState__isIdle>:
    4ad0:	0b 12       	push	r11		
    4ad2:	b0 12 3a 4a 	call	#0x4a3a	
    4ad6:	5b 43       	mov.b	#1,	r11	;r3 As==01
    4ad8:	c2 93 a6 1b 	tst.b	&0x1ba6	
    4adc:	01 24       	jz	$+4      	;abs 0x4ae0
    4ade:	4b 43       	clr.b	r11		
    4ae0:	b0 12 4c 4a 	call	#0x4a4c	
    4ae4:	4f 4b       	mov.b	r11,	r15	
    4ae6:	3b 41       	pop	r11		
    4ae8:	30 41       	ret			

00004aea <CC2420SpiP__Strobe__strobe>:
    4aea:	0b 12       	push	r11		
    4aec:	0a 12       	push	r10		
    4aee:	4a 4f       	mov.b	r15,	r10	
    4af0:	b0 12 3a 4a 	call	#0x4a3a	
    4af4:	4b 4f       	mov.b	r15,	r11	
    4af6:	b0 12 d0 4a 	call	#0x4ad0	
    4afa:	4f 93       	tst.b	r15		
    4afc:	05 24       	jz	$+12     	;abs 0x4b08
    4afe:	4f 4b       	mov.b	r11,	r15	
    4b00:	b0 12 4c 4a 	call	#0x4a4c	
    4b04:	4f 43       	clr.b	r15		
    4b06:	06 3c       	jmp	$+14     	;abs 0x4b14
    4b08:	4f 4b       	mov.b	r11,	r15	
    4b0a:	b0 12 4c 4a 	call	#0x4a4c	
    4b0e:	4f 4a       	mov.b	r10,	r15	
    4b10:	b0 12 0a 46 	call	#0x460a	
    4b14:	3a 41       	pop	r10		
    4b16:	3b 41       	pop	r11		
    4b18:	30 41       	ret			

00004b1a <CC2420CsmaP__SplitControlState__isState>:
    4b1a:	0b 12       	push	r11		
    4b1c:	0a 12       	push	r10		
    4b1e:	4a 4f       	mov.b	r15,	r10	
    4b20:	b0 12 3a 4a 	call	#0x4a3a	
    4b24:	5b 43       	mov.b	#1,	r11	;r3 As==01
    4b26:	5a 92 a7 1b 	cmp.b	&0x1ba7,r10	
    4b2a:	01 24       	jz	$+4      	;abs 0x4b2e
    4b2c:	4b 43       	clr.b	r11		
    4b2e:	b0 12 4c 4a 	call	#0x4a4c	
    4b32:	4f 4b       	mov.b	r11,	r15	
    4b34:	3a 41       	pop	r10		
    4b36:	3b 41       	pop	r11		
    4b38:	30 41       	ret			

00004b3a <Msp430GpioC__1__GeneralIO__clr>:
    4b3a:	b0 12 3a 4a 	call	#0x4a3a	
    4b3e:	f2 f0 fb ff 1d 00 	and.b	#-5,	&0x001d	;#0xfffb
    4b44:	b0 12 4c 4a 	call	#0x4a4c	
    4b48:	30 41       	ret			

00004b4a <SchedulerBasicP__TaskBasic__postTask>:
    4b4a:	0b 12       	push	r11		
    4b4c:	4b 4f       	mov.b	r15,	r11	
    4b4e:	b0 12 3a 4a 	call	#0x4a3a	
    4b52:	4e 4b       	mov.b	r11,	r14	
    4b54:	fe 93 24 1a 	cmp.b	#-1,	6692(r14);r3 As==11, 0x1a24(r14)
    4b58:	06 20       	jnz	$+14     	;abs 0x4b66
    4b5a:	1e 43       	mov	#1,	r14	;r3 As==01
    4b5c:	c2 9b f1 20 	cmp.b	r11,	&0x20f1	
    4b60:	03 24       	jz	$+8      	;abs 0x4b68
    4b62:	0e 43       	clr	r14		
    4b64:	01 3c       	jmp	$+4      	;abs 0x4b68
    4b66:	1e 43       	mov	#1,	r14	;r3 As==01
    4b68:	0e 93       	tst	r14		
    4b6a:	0e 20       	jnz	$+30     	;abs 0x4b88
    4b6c:	f2 93 22 1c 	cmp.b	#-1,	&0x1c22	;r3 As==11
    4b70:	03 20       	jnz	$+8      	;abs 0x4b78
    4b72:	c2 4b 22 1c 	mov.b	r11,	&0x1c22	
    4b76:	04 3c       	jmp	$+10     	;abs 0x4b80
    4b78:	5e 42 f1 20 	mov.b	&0x20f1,r14	
    4b7c:	ce 4b 24 1a 	mov.b	r11,	6692(r14);0x1a24(r14)
    4b80:	c2 4b f1 20 	mov.b	r11,	&0x20f1	
    4b84:	4b 43       	clr.b	r11		
    4b86:	02 3c       	jmp	$+6      	;abs 0x4b8c
    4b88:	7b 40 05 00 	mov.b	#5,	r11	;#0x0005
    4b8c:	b0 12 4c 4a 	call	#0x4a4c	
    4b90:	4f 4b       	mov.b	r11,	r15	
    4b92:	3b 41       	pop	r11		
    4b94:	30 41       	ret			

00004b96 <CC2420SpiP__attemptRelease>:
    4b96:	c2 93 7c 17 	tst.b	&0x177c	
    4b9a:	39 20       	jnz	$+116    	;abs 0x4c0e
    4b9c:	f2 93 13 11 	cmp.b	#-1,	&0x1113	;r3 As==11
    4ba0:	36 20       	jnz	$+110    	;abs 0x4c0e
    4ba2:	b0 12 d0 4a 	call	#0x4ad0	
    4ba6:	4f 93       	tst.b	r15		
    4ba8:	32 24       	jz	$+102    	;abs 0x4c0e
    4baa:	d2 43 c0 1b 	mov.b	#1,	&0x1bc0	;r3 As==01
    4bae:	c2 93 22 1a 	tst.b	&0x1a22	
    4bb2:	02 24       	jz	$+6      	;abs 0x4bb8
    4bb4:	c2 43 c0 1b 	mov.b	#0,	&0x1bc0	;r3 As==00
    4bb8:	c2 93 c0 1b 	tst.b	&0x1bc0	
    4bbc:	2a 24       	jz	$+86     	;abs 0x4c12
    4bbe:	f2 90 03 00 7a 17 	cmp.b	#3,	&0x177a	;#0x0003
    4bc4:	29 20       	jnz	$+84     	;abs 0x4c18
    4bc6:	c2 93 10 11 	tst.b	&0x1110	
    4bca:	28 20       	jnz	$+82     	;abs 0x4c1c
    4bcc:	5e 42 12 11 	mov.b	&0x1112,r14	
    4bd0:	7e 93       	cmp.b	#-1,	r14	;r3 As==11
    4bd2:	16 24       	jz	$+46     	;abs 0x4c00
    4bd4:	4f 4e       	mov.b	r14,	r15	
    4bd6:	5d 4f e0 1a 	mov.b	6880(r15),r13	;0x1ae0(r15)
    4bda:	c2 4d 12 11 	mov.b	r13,	&0x1112	
    4bde:	7d 93       	cmp.b	#-1,	r13	;r3 As==11
    4be0:	02 20       	jnz	$+6      	;abs 0x4be6
    4be2:	f2 43 11 11 	mov.b	#-1,	&0x1111	;r3 As==11
    4be6:	ff 43 e0 1a 	mov.b	#-1,	6880(r15);r3 As==11, 0x1ae0(r15)
    4bea:	c2 4e be 1b 	mov.b	r14,	&0x1bbe	
    4bee:	f2 43 10 11 	mov.b	#-1,	&0x1110	;r3 As==11
    4bf2:	d2 43 7a 17 	mov.b	#1,	&0x177a	;r3 As==01
    4bf6:	7f 40 07 00 	mov.b	#7,	r15	;#0x0007
    4bfa:	b0 12 4a 4b 	call	#0x4b4a	
    4bfe:	04 3c       	jmp	$+10     	;abs 0x4c08
    4c00:	d2 43 10 11 	mov.b	#1,	&0x1110	;r3 As==01
    4c04:	c2 43 7a 17 	mov.b	#0,	&0x177a	;r3 As==00
    4c08:	b0 12 64 49 	call	#0x4964	
    4c0c:	05 3c       	jmp	$+12     	;abs 0x4c18
    4c0e:	5f 43       	mov.b	#1,	r15	;r3 As==01
    4c10:	30 41       	ret			
    4c12:	7f 40 05 00 	mov.b	#5,	r15	;#0x0005
    4c16:	30 41       	ret			
    4c18:	4f 43       	clr.b	r15		
    4c1a:	30 41       	ret			
    4c1c:	4f 43       	clr.b	r15		
    4c1e:	30 41       	ret			

00004c20 <ArbiterP__0__ResourceDefaultOwner__release>:
    4c20:	d2 93 10 11 	cmp.b	#1,	&0x1110	;r3 As==01
    4c24:	13 20       	jnz	$+40     	;abs 0x4c4c
    4c26:	5f 42 7a 17 	mov.b	&0x177a,r15	
    4c2a:	5f 93       	cmp.b	#1,	r15	;r3 As==01
    4c2c:	05 20       	jnz	$+12     	;abs 0x4c38
    4c2e:	7f 40 07 00 	mov.b	#7,	r15	;#0x0007
    4c32:	b0 12 4a 4b 	call	#0x4b4a	
    4c36:	08 3c       	jmp	$+18     	;abs 0x4c48
    4c38:	6f 93       	cmp.b	#2,	r15	;r3 As==10
    4c3a:	0a 20       	jnz	$+22     	;abs 0x4c50
    4c3c:	d2 42 be 1b 10 11 	mov.b	&0x1bbe,&0x1110	
    4c42:	f2 40 03 00 7a 17 	mov.b	#3,	&0x177a	;#0x0003
    4c48:	4f 43       	clr.b	r15		
    4c4a:	30 41       	ret			
    4c4c:	5f 43       	mov.b	#1,	r15	;r3 As==01
    4c4e:	30 41       	ret			
    4c50:	5f 43       	mov.b	#1,	r15	;r3 As==01
    4c52:	30 41       	ret			

00004c54 <CC2420SpiP__SpiPacket__send.part.115>:
    4c54:	b0 12 3a 4a 	call	#0x4a3a	
    4c58:	f2 f0 bf ff 02 00 	and.b	#-65,	&0x0002	;#0xffbf
    4c5e:	f2 d0 40 00 00 00 	bis.b	#64,	&0x0000	;#0x0040
    4c64:	b0 12 4c 4a 	call	#0x4a4c	
    4c68:	b0 12 54 4a 	call	#0x4a54	
    4c6c:	30 41       	ret			

00004c6e <CC2420ReceiveP__RXFIFO__continueRead>:
    4c6e:	4e 4e       	mov.b	r14,	r14	
    4c70:	c2 43 e8 1a 	mov.b	#0,	&0x1ae8	;r3 As==00
    4c74:	82 43 da 1a 	mov	#0,	&0x1ada	;r3 As==00
    4c78:	82 4f 84 1b 	mov	r15,	&0x1b84	
    4c7c:	82 4e da 20 	mov	r14,	&0x20da	
    4c80:	82 43 d6 20 	mov	#0,	&0x20d6	;r3 As==00
    4c84:	0e 93       	tst	r14		
    4c86:	03 24       	jz	$+8      	;abs 0x4c8e
    4c88:	b0 12 54 4c 	call	#0x4c54	
    4c8c:	04 3c       	jmp	$+10     	;abs 0x4c96
    4c8e:	7f 40 06 00 	mov.b	#6,	r15	;#0x0006
    4c92:	b0 12 4a 4b 	call	#0x4b4a	
    4c96:	4f 43       	clr.b	r15		
    4c98:	30 41       	ret			

00004c9a <CC2420ReceiveP__RXFIFO__beginRead>:
    4c9a:	0b 12       	push	r11		
    4c9c:	0a 12       	push	r10		
    4c9e:	09 12       	push	r9		
    4ca0:	0a 4f       	mov	r15,	r10	
    4ca2:	49 4e       	mov.b	r14,	r9	
    4ca4:	b0 12 3a 4a 	call	#0x4a3a	
    4ca8:	4b 4f       	mov.b	r15,	r11	
    4caa:	b0 12 d0 4a 	call	#0x4ad0	
    4cae:	4f 93       	tst.b	r15		
    4cb0:	05 24       	jz	$+12     	;abs 0x4cbc
    4cb2:	4f 4b       	mov.b	r11,	r15	
    4cb4:	b0 12 4c 4a 	call	#0x4a4c	
    4cb8:	4b 43       	clr.b	r11		
    4cba:	1f 3c       	jmp	$+64     	;abs 0x4cfa
    4cbc:	4f 4b       	mov.b	r11,	r15	
    4cbe:	b0 12 4c 4a 	call	#0x4a4c	
    4cc2:	b2 40 7f 00 ea 1a 	mov	#127,	&0x1aea	;#0x007f
    4cc8:	7f 40 7f 00 	mov.b	#127,	r15	;#0x007f
    4ccc:	b0 12 0a 46 	call	#0x460a	
    4cd0:	4b 4f       	mov.b	r15,	r11	
    4cd2:	4e 49       	mov.b	r9,	r14	
    4cd4:	c2 43 e8 1a 	mov.b	#0,	&0x1ae8	;r3 As==00
    4cd8:	82 43 da 1a 	mov	#0,	&0x1ada	;r3 As==00
    4cdc:	82 4a 84 1b 	mov	r10,	&0x1b84	
    4ce0:	82 4e da 20 	mov	r14,	&0x20da	
    4ce4:	82 43 d6 20 	mov	#0,	&0x20d6	;r3 As==00
    4ce8:	0e 93       	tst	r14		
    4cea:	03 24       	jz	$+8      	;abs 0x4cf2
    4cec:	b0 12 54 4c 	call	#0x4c54	
    4cf0:	04 3c       	jmp	$+10     	;abs 0x4cfa
    4cf2:	7f 40 06 00 	mov.b	#6,	r15	;#0x0006
    4cf6:	b0 12 4a 4b 	call	#0x4b4a	
    4cfa:	4f 4b       	mov.b	r11,	r15	
    4cfc:	39 41       	pop	r9		
    4cfe:	3a 41       	pop	r10		
    4d00:	3b 41       	pop	r11		
    4d02:	30 41       	ret			

00004d04 <CC2420ReceiveP__receive>:
    4d04:	b0 12 3a 4b 	call	#0x4b3a	
    4d08:	5e 43       	mov.b	#1,	r14	;r3 As==01
    4d0a:	1f 42 86 17 	mov	&0x1786,r15	
    4d0e:	b0 12 9a 4c 	call	#0x4c9a	
    4d12:	30 41       	ret			

00004d14 <CC2420TransmitP__Send__sendDone.isra.122>:
    4d14:	0b 12       	push	r11		
    4d16:	4b 4f       	mov.b	r15,	r11	
    4d18:	b0 12 3a 4a 	call	#0x4a3a	
    4d1c:	c2 4b 82 17 	mov.b	r11,	&0x1782	
    4d20:	b0 12 4c 4a 	call	#0x4a4c	
    4d24:	6f 43       	mov.b	#2,	r15	;r3 As==10
    4d26:	b0 12 4a 4b 	call	#0x4b4a	
    4d2a:	3b 41       	pop	r11		
    4d2c:	30 41       	ret			

00004d2e <CC2420TransmitP__signalDone>:
    4d2e:	0b 12       	push	r11		
    4d30:	4b 4f       	mov.b	r15,	r11	
    4d32:	92 43 6c 17 	mov	#1,	&0x176c	;r3 As==01
    4d36:	c2 43 22 1a 	mov.b	#0,	&0x1a22	;r3 As==00
    4d3a:	b0 12 96 4b 	call	#0x4b96	
    4d3e:	4f 4b       	mov.b	r11,	r15	
    4d40:	b0 12 14 4d 	call	#0x4d14	
    4d44:	3b 41       	pop	r11		
    4d46:	30 41       	ret			

00004d48 <Msp430GpioC__1__GeneralIO__set>:
    4d48:	b0 12 3a 4a 	call	#0x4a3a	
    4d4c:	e2 d2 1d 00 	bis.b	#4,	&0x001d	;r2 As==10
    4d50:	b0 12 4c 4a 	call	#0x4a4c	
    4d54:	30 41       	ret			

00004d56 <CC2420SpiP__Resource__release>:
    4d56:	0b 12       	push	r11		
    4d58:	0a 12       	push	r10		
    4d5a:	09 12       	push	r9		
    4d5c:	4b 4f       	mov.b	r15,	r11	
    4d5e:	b0 12 3a 4a 	call	#0x4a3a	
    4d62:	4a 4f       	mov.b	r15,	r10	
    4d64:	c2 9b 13 11 	cmp.b	r11,	&0x1113	
    4d68:	04 24       	jz	$+10     	;abs 0x4d72
    4d6a:	b0 12 4c 4a 	call	#0x4a4c	
    4d6e:	5f 43       	mov.b	#1,	r15	;r3 As==01
    4d70:	4c 3c       	jmp	$+154    	;abs 0x4e0a
    4d72:	f2 43 13 11 	mov.b	#-1,	&0x1113	;r3 As==11
    4d76:	5b 42 7c 17 	mov.b	&0x177c,r11	
    4d7a:	4b 93       	tst.b	r11		
    4d7c:	09 20       	jnz	$+20     	;abs 0x4d90
    4d7e:	b0 12 3a 4a 	call	#0x4a3a	
    4d82:	c2 43 a6 1b 	mov.b	#0,	&0x1ba6	;r3 As==00
    4d86:	b0 12 4c 4a 	call	#0x4a4c	
    4d8a:	b0 12 96 4b 	call	#0x4b96	
    4d8e:	35 3c       	jmp	$+108    	;abs 0x4dfa
    4d90:	4c 43       	clr.b	r12		
    4d92:	49 4b       	mov.b	r11,	r9	
    4d94:	02 12       	push	r2		
    4d96:	32 c2       	dint			
    4d98:	03 43       	nop			
    4d9a:	c2 4c 30 01 	mov.b	r12,	&0x0130	
    4d9e:	f2 40 cd ff 38 01 	mov.b	#-51,	&0x0138	;#0xffcd
    4da4:	1e 42 3a 01 	mov	&0x013a,r14	
    4da8:	32 41       	pop	r2		
    4daa:	8e 10       	swpb	r14		
    4dac:	12 c3       	clrc			
    4dae:	4e 10       	rrc.b	r14		
    4db0:	12 c3       	clrc			
    4db2:	4e 10       	rrc.b	r14		
    4db4:	4d 4e       	mov.b	r14,	r13	
    4db6:	4d 5d       	rla.b	r13		
    4db8:	4d 5d       	rla.b	r13		
    4dba:	4e 5d       	add.b	r13,	r14	
    4dbc:	4c 8e       	sub.b	r14,	r12	
    4dbe:	4e 4c       	mov.b	r12,	r14	
    4dc0:	4f 4c       	mov.b	r12,	r15	
    4dc2:	0d 49       	mov	r9,	r13	
    4dc4:	7c f0 0f 00 	and.b	#15,	r12	;#0x000f
    4dc8:	4c 93       	tst.b	r12		
    4dca:	03 24       	jz	$+8      	;abs 0x4dd2
    4dcc:	0d 11       	rra	r13		
    4dce:	7c 53       	add.b	#-1,	r12	;r3 As==11
    4dd0:	fb 3f       	jmp	$-8      	;abs 0x4dc8
    4dd2:	1d f3       	and	#1,	r13	;r3 As==01
    4dd4:	17 24       	jz	$+48     	;abs 0x4e04
    4dd6:	c2 4e 13 11 	mov.b	r14,	&0x1113	
    4dda:	1e 43       	mov	#1,	r14	;r3 As==01
    4ddc:	4d 4f       	mov.b	r15,	r13	
    4dde:	7d f0 0f 00 	and.b	#15,	r13	;#0x000f
    4de2:	4d 93       	tst.b	r13		
    4de4:	03 24       	jz	$+8      	;abs 0x4dec
    4de6:	0e 5e       	rla	r14		
    4de8:	7d 53       	add.b	#-1,	r13	;r3 As==11
    4dea:	fb 3f       	jmp	$-8      	;abs 0x4de2
    4dec:	4b ce       	bic.b	r14,	r11	
    4dee:	c2 4b 7c 17 	mov.b	r11,	&0x177c	
    4df2:	7f 40 05 00 	mov.b	#5,	r15	;#0x0005
    4df6:	b0 12 4a 4b 	call	#0x4b4a	
    4dfa:	4f 4a       	mov.b	r10,	r15	
    4dfc:	b0 12 4c 4a 	call	#0x4a4c	
    4e00:	4f 43       	clr.b	r15		
    4e02:	03 3c       	jmp	$+8      	;abs 0x4e0a
    4e04:	4c 4e       	mov.b	r14,	r12	
    4e06:	5c 53       	inc.b	r12		
    4e08:	c5 3f       	jmp	$-116    	;abs 0x4d94
    4e0a:	39 41       	pop	r9		
    4e0c:	3a 41       	pop	r10		
    4e0e:	3b 41       	pop	r11		
    4e10:	30 41       	ret			

00004e12 <CC2420TransmitP__releaseSpiResource>:
    4e12:	7f 40 03 00 	mov.b	#3,	r15	;#0x0003
    4e16:	b0 12 56 4d 	call	#0x4d56	
    4e1a:	4f 43       	clr.b	r15		
    4e1c:	30 41       	ret			

00004e1e <TransformAlarmC__0__Counter__get>:
    4e1e:	0b 12       	push	r11		
    4e20:	0a 12       	push	r10		
    4e22:	09 12       	push	r9		
    4e24:	b0 12 3a 4a 	call	#0x4a3a	
    4e28:	49 4f       	mov.b	r15,	r9	
    4e2a:	1b 42 36 1b 	mov	&0x1b36,r11	
    4e2e:	b0 12 5e 46 	call	#0x465e	
    4e32:	0a 4f       	mov	r15,	r10	
    4e34:	1f 42 80 01 	mov	&0x0180,r15	
    4e38:	5f f3       	and.b	#1,	r15	;r3 As==01
    4e3a:	04 24       	jz	$+10     	;abs 0x4e44
    4e3c:	1b 53       	inc	r11		
    4e3e:	b0 12 5e 46 	call	#0x465e	
    4e42:	0a 4f       	mov	r15,	r10	
    4e44:	0c 43       	clr	r12		
    4e46:	0d 43       	clr	r13		
    4e48:	0d 4b       	mov	r11,	r13	
    4e4a:	0e 4a       	mov	r10,	r14	
    4e4c:	0f 43       	clr	r15		
    4e4e:	0a 4c       	mov	r12,	r10	
    4e50:	0b 4d       	mov	r13,	r11	
    4e52:	0a de       	bis	r14,	r10	
    4e54:	0b df       	bis	r15,	r11	
    4e56:	4f 49       	mov.b	r9,	r15	
    4e58:	b0 12 4c 4a 	call	#0x4a4c	
    4e5c:	0e 4a       	mov	r10,	r14	
    4e5e:	0f 4b       	mov	r11,	r15	
    4e60:	39 41       	pop	r9		
    4e62:	3a 41       	pop	r10		
    4e64:	3b 41       	pop	r11		
    4e66:	30 41       	ret			

00004e68 <TransformAlarmC__0__set_alarm>:
    4e68:	0b 12       	push	r11		
    4e6a:	0a 12       	push	r10		
    4e6c:	09 12       	push	r9		
    4e6e:	08 12       	push	r8		
    4e70:	b0 12 1e 4e 	call	#0x4e1e	
    4e74:	08 4e       	mov	r14,	r8	
    4e76:	09 4f       	mov	r15,	r9	
    4e78:	1e 42 e2 1a 	mov	&0x1ae2,r14	
    4e7c:	1f 42 e4 1a 	mov	&0x1ae4,r15	
    4e80:	0a 4e       	mov	r14,	r10	
    4e82:	0b 4f       	mov	r15,	r11	
    4e84:	1a 52 dc 1a 	add	&0x1adc,r10	
    4e88:	1b 62 de 1a 	addc	&0x1ade,r11	
    4e8c:	09 9f       	cmp	r15,	r9	
    4e8e:	09 28       	jnc	$+20     	;abs 0x4ea2
    4e90:	02 20       	jnz	$+6      	;abs 0x4e96
    4e92:	08 9e       	cmp	r14,	r8	
    4e94:	06 28       	jnc	$+14     	;abs 0x4ea2
    4e96:	0b 9f       	cmp	r15,	r11	
    4e98:	10 28       	jnc	$+34     	;abs 0x4eba
    4e9a:	09 20       	jnz	$+20     	;abs 0x4eae
    4e9c:	0a 9e       	cmp	r14,	r10	
    4e9e:	0d 28       	jnc	$+28     	;abs 0x4eba
    4ea0:	06 3c       	jmp	$+14     	;abs 0x4eae
    4ea2:	0b 9f       	cmp	r15,	r11	
    4ea4:	04 28       	jnc	$+10     	;abs 0x4eae
    4ea6:	0f 9b       	cmp	r11,	r15	
    4ea8:	27 28       	jnc	$+80     	;abs 0x4ef8
    4eaa:	0a 9e       	cmp	r14,	r10	
    4eac:	25 2c       	jc	$+76     	;abs 0x4ef8
    4eae:	09 9b       	cmp	r11,	r9	
    4eb0:	04 28       	jnc	$+10     	;abs 0x4eba
    4eb2:	0b 99       	cmp	r9,	r11	
    4eb4:	21 28       	jnc	$+68     	;abs 0x4ef8
    4eb6:	08 9a       	cmp	r10,	r8	
    4eb8:	1f 2c       	jc	$+64     	;abs 0x4ef8
    4eba:	0c 4a       	mov	r10,	r12	
    4ebc:	0d 4b       	mov	r11,	r13	
    4ebe:	0c 88       	sub	r8,	r12	
    4ec0:	0d 79       	subc	r9,	r13	
    4ec2:	0d 93       	tst	r13		
    4ec4:	03 20       	jnz	$+8      	;abs 0x4ecc
    4ec6:	3c 90 01 80 	cmp	#-32767,r12	;#0x8001
    4eca:	18 28       	jnc	$+50     	;abs 0x4efc
    4ecc:	0e 48       	mov	r8,	r14	
    4ece:	0f 49       	mov	r9,	r15	
    4ed0:	3e 50 00 80 	add	#-32768,r14	;#0x8000
    4ed4:	0f 63       	adc	r15		
    4ed6:	82 4e e2 1a 	mov	r14,	&0x1ae2	
    4eda:	82 4f e4 1a 	mov	r15,	&0x1ae4	
    4ede:	0e 4c       	mov	r12,	r14	
    4ee0:	0f 4d       	mov	r13,	r15	
    4ee2:	3e 50 00 80 	add	#-32768,r14	;#0x8000
    4ee6:	3f 63       	addc	#-1,	r15	;r3 As==11
    4ee8:	82 4e dc 1a 	mov	r14,	&0x1adc	
    4eec:	82 4f de 1a 	mov	r15,	&0x1ade	
    4ef0:	3c 40 00 80 	mov	#-32768,r12	;#0x8000
    4ef4:	0d 43       	clr	r13		
    4ef6:	0a 3c       	jmp	$+22     	;abs 0x4f0c
    4ef8:	0c 43       	clr	r12		
    4efa:	0d 43       	clr	r13		
    4efc:	82 4a e2 1a 	mov	r10,	&0x1ae2	
    4f00:	82 4b e4 1a 	mov	r11,	&0x1ae4	
    4f04:	82 43 dc 1a 	mov	#0,	&0x1adc	;r3 As==00
    4f08:	82 43 de 1a 	mov	#0,	&0x1ade	;r3 As==00
    4f0c:	0a 4c       	mov	r12,	r10	
    4f0e:	b0 12 5e 46 	call	#0x465e	
    4f12:	0e 4f       	mov	r15,	r14	
    4f14:	0e 88       	sub	r8,	r14	
    4f16:	0e 9a       	cmp	r10,	r14	
    4f18:	05 2c       	jc	$+12     	;abs 0x4f24
    4f1a:	0c 4a       	mov	r10,	r12	
    4f1c:	0c 8e       	sub	r14,	r12	
    4f1e:	3c 90 03 00 	cmp	#3,	r12	;#0x0003
    4f22:	06 2c       	jc	$+14     	;abs 0x4f30
    4f24:	b0 12 5e 46 	call	#0x465e	
    4f28:	2f 53       	incd	r15		
    4f2a:	82 4f 92 01 	mov	r15,	&0x0192	
    4f2e:	03 3c       	jmp	$+8      	;abs 0x4f36
    4f30:	0c 5f       	add	r15,	r12	
    4f32:	82 4c 92 01 	mov	r12,	&0x0192	
    4f36:	b2 f0 fe ff 82 01 	and	#-2,	&0x0182	;#0xfffe
    4f3c:	b2 d0 10 00 82 01 	bis	#16,	&0x0182	;#0x0010
    4f42:	38 41       	pop	r8		
    4f44:	39 41       	pop	r9		
    4f46:	3a 41       	pop	r10		
    4f48:	3b 41       	pop	r11		
    4f4a:	30 41       	ret			

00004f4c <TransformAlarmC__0__Alarm__start>:
    4f4c:	0b 12       	push	r11		
    4f4e:	0a 12       	push	r10		
    4f50:	09 12       	push	r9		
    4f52:	08 12       	push	r8		
    4f54:	21 83       	decd	r1		
    4f56:	0a 4e       	mov	r14,	r10	
    4f58:	0b 4f       	mov	r15,	r11	
    4f5a:	b0 12 1e 4e 	call	#0x4e1e	
    4f5e:	08 4e       	mov	r14,	r8	
    4f60:	09 4f       	mov	r15,	r9	
    4f62:	b0 12 3a 4a 	call	#0x4a3a	
    4f66:	82 48 e2 1a 	mov	r8,	&0x1ae2	
    4f6a:	82 49 e4 1a 	mov	r9,	&0x1ae4	
    4f6e:	82 4a dc 1a 	mov	r10,	&0x1adc	
    4f72:	82 4b de 1a 	mov	r11,	&0x1ade	
    4f76:	81 4f 00 00 	mov	r15,	0(r1)	;0x0000(r1)
    4f7a:	b0 12 68 4e 	call	#0x4e68	
    4f7e:	2f 41       	mov	@r1,	r15	
    4f80:	b0 12 4c 4a 	call	#0x4a4c	
    4f84:	21 53       	incd	r1		
    4f86:	38 41       	pop	r8		
    4f88:	39 41       	pop	r9		
    4f8a:	3a 41       	pop	r10		
    4f8c:	3b 41       	pop	r11		
    4f8e:	30 41       	ret			

00004f90 <CC2420TransmitP__congestionBackoff>:
    4f90:	0b 12       	push	r11		
    4f92:	b0 12 3a 4a 	call	#0x4a3a	
    4f96:	4b 4f       	mov.b	r15,	r11	
    4f98:	b0 12 b2 45 	call	#0x45b2	
    4f9c:	3e 40 46 00 	mov	#70,	r14	;#0x0046
    4fa0:	b0 12 34 7b 	call	#0x7b34	
    4fa4:	0e 4f       	mov	r15,	r14	
    4fa6:	3e 50 0b 00 	add	#11,	r14	;#0x000b
    4faa:	82 4e ee 20 	mov	r14,	&0x20ee	
    4fae:	0f 43       	clr	r15		
    4fb0:	b0 12 4c 4f 	call	#0x4f4c	
    4fb4:	4f 4b       	mov.b	r11,	r15	
    4fb6:	b0 12 4c 4a 	call	#0x4a4c	
    4fba:	3b 41       	pop	r11		
    4fbc:	30 41       	ret			

00004fbe <CC2420TransmitP__attemptSend>:
    4fbe:	0b 12       	push	r11		
    4fc0:	0a 12       	push	r10		
    4fc2:	b0 12 3a 4a 	call	#0x4a3a	
    4fc6:	4a 4f       	mov.b	r15,	r10	
    4fc8:	b2 92 6c 17 	cmp	#8,	&0x176c	;r2 As==11
    4fcc:	12 20       	jnz	$+38     	;abs 0x4ff2
    4fce:	7f 40 09 00 	mov.b	#9,	r15	;#0x0009
    4fd2:	b0 12 ea 4a 	call	#0x4aea	
    4fd6:	b0 12 12 4e 	call	#0x4e12	
    4fda:	b0 12 48 4d 	call	#0x4d48	
    4fde:	92 43 6c 17 	mov	#1,	&0x176c	;r3 As==01
    4fe2:	7f 40 03 00 	mov.b	#3,	r15	;#0x0003
    4fe6:	b0 12 14 4d 	call	#0x4d14	
    4fea:	4f 4a       	mov.b	r10,	r15	
    4fec:	b0 12 4c 4a 	call	#0x4a4c	
    4ff0:	2f 3c       	jmp	$+96     	;abs 0x5050
    4ff2:	b0 12 3a 4b 	call	#0x4b3a	
    4ff6:	c2 93 26 21 	tst.b	&0x2126	
    4ffa:	03 24       	jz	$+8      	;abs 0x5002
    4ffc:	7f 40 05 00 	mov.b	#5,	r15	;#0x0005
    5000:	01 3c       	jmp	$+4      	;abs 0x5004
    5002:	6f 42       	mov.b	#4,	r15	;r2 As==10
    5004:	b0 12 ea 4a 	call	#0x4aea	
    5008:	4e 4f       	mov.b	r15,	r14	
    500a:	3e f2       	and	#8,	r14	;r2 As==11
    500c:	05 20       	jnz	$+12     	;abs 0x5018
    500e:	4f 43       	clr.b	r15		
    5010:	b0 12 ea 4a 	call	#0x4aea	
    5014:	3f f2       	and	#8,	r15	;r2 As==11
    5016:	04 20       	jnz	$+10     	;abs 0x5020
    5018:	5b 43       	mov.b	#1,	r11	;r3 As==01
    501a:	3f 40 03 00 	mov	#3,	r15	;#0x0003
    501e:	03 3c       	jmp	$+8      	;abs 0x5026
    5020:	4b 43       	clr.b	r11		
    5022:	3f 40 05 00 	mov	#5,	r15	;#0x0005
    5026:	82 4f 6c 17 	mov	r15,	&0x176c	
    502a:	b0 12 48 4d 	call	#0x4d48	
    502e:	4f 4a       	mov.b	r10,	r15	
    5030:	b0 12 4c 4a 	call	#0x4a4c	
    5034:	4b 93       	tst.b	r11		
    5036:	07 24       	jz	$+16     	;abs 0x5046
    5038:	c2 43 92 17 	mov.b	#0,	&0x1792	;r3 As==00
    503c:	b0 12 12 4e 	call	#0x4e12	
    5040:	b0 12 90 4f 	call	#0x4f90	
    5044:	05 3c       	jmp	$+12     	;abs 0x5050
    5046:	3e 40 40 01 	mov	#320,	r14	;#0x0140
    504a:	0f 43       	clr	r15		
    504c:	b0 12 4c 4f 	call	#0x4f4c	
    5050:	3a 41       	pop	r10		
    5052:	3b 41       	pop	r11		
    5054:	30 41       	ret			

00005056 <CC2420SpiP__Reg__write>:
    5056:	0b 12       	push	r11		
    5058:	0a 12       	push	r10		
    505a:	09 12       	push	r9		
    505c:	49 4f       	mov.b	r15,	r9	
    505e:	0a 4e       	mov	r14,	r10	
    5060:	b0 12 3a 4a 	call	#0x4a3a	
    5064:	4b 4f       	mov.b	r15,	r11	
    5066:	b0 12 d0 4a 	call	#0x4ad0	
    506a:	4f 93       	tst.b	r15		
    506c:	05 24       	jz	$+12     	;abs 0x5078
    506e:	4f 4b       	mov.b	r11,	r15	
    5070:	b0 12 4c 4a 	call	#0x4a4c	
    5074:	4f 43       	clr.b	r15		
    5076:	0d 3c       	jmp	$+28     	;abs 0x5092
    5078:	4f 4b       	mov.b	r11,	r15	
    507a:	b0 12 4c 4a 	call	#0x4a4c	
    507e:	4f 49       	mov.b	r9,	r15	
    5080:	b0 12 0a 46 	call	#0x460a	
    5084:	0f 4a       	mov	r10,	r15	
    5086:	8f 10       	swpb	r15		
    5088:	b0 12 0a 46 	call	#0x460a	
    508c:	4f 4a       	mov.b	r10,	r15	
    508e:	b0 12 0a 46 	call	#0x460a	
    5092:	39 41       	pop	r9		
    5094:	3a 41       	pop	r10		
    5096:	3b 41       	pop	r11		
    5098:	30 41       	ret			

0000509a <CC2420SpiP__Ram__write>:
    509a:	0b 12       	push	r11		
    509c:	0a 12       	push	r10		
    509e:	09 12       	push	r9		
    50a0:	08 12       	push	r8		
    50a2:	07 12       	push	r7		
    50a4:	08 4f       	mov	r15,	r8	
    50a6:	4a 4e       	mov.b	r14,	r10	
    50a8:	07 4d       	mov	r13,	r7	
    50aa:	4b 4c       	mov.b	r12,	r11	
    50ac:	b0 12 3a 4a 	call	#0x4a3a	
    50b0:	49 4f       	mov.b	r15,	r9	
    50b2:	b0 12 d0 4a 	call	#0x4ad0	
    50b6:	4f 93       	tst.b	r15		
    50b8:	05 24       	jz	$+12     	;abs 0x50c4
    50ba:	4f 49       	mov.b	r9,	r15	
    50bc:	b0 12 4c 4a 	call	#0x4a4c	
    50c0:	4f 43       	clr.b	r15		
    50c2:	21 3c       	jmp	$+68     	;abs 0x5106
    50c4:	4f 49       	mov.b	r9,	r15	
    50c6:	b0 12 4c 4a 	call	#0x4a4c	
    50ca:	4a 4a       	mov.b	r10,	r10	
    50cc:	0a 58       	add	r8,	r10	
    50ce:	4f 4a       	mov.b	r10,	r15	
    50d0:	7f d0 80 ff 	bis.b	#-128,	r15	;#0xff80
    50d4:	b0 12 0a 46 	call	#0x460a	
    50d8:	49 4f       	mov.b	r15,	r9	
    50da:	0e 4a       	mov	r10,	r14	
    50dc:	12 c3       	clrc			
    50de:	0e 10       	rrc	r14		
    50e0:	4f 4e       	mov.b	r14,	r15	
    50e2:	7f f0 c0 ff 	and.b	#-64,	r15	;#0xffc0
    50e6:	b0 12 0a 46 	call	#0x460a	
    50ea:	4a 4b       	mov.b	r11,	r10	
    50ec:	09 3c       	jmp	$+20     	;abs 0x5100
    50ee:	4e 4b       	mov.b	r11,	r14	
    50f0:	0f 4a       	mov	r10,	r15	
    50f2:	0f 8e       	sub	r14,	r15	
    50f4:	0e 4f       	mov	r15,	r14	
    50f6:	0e 57       	add	r7,	r14	
    50f8:	6f 4e       	mov.b	@r14,	r15	
    50fa:	b0 12 0a 46 	call	#0x460a	
    50fe:	7b 53       	add.b	#-1,	r11	;r3 As==11
    5100:	4b 93       	tst.b	r11		
    5102:	f5 23       	jnz	$-20     	;abs 0x50ee
    5104:	4f 49       	mov.b	r9,	r15	
    5106:	37 41       	pop	r7		
    5108:	38 41       	pop	r8		
    510a:	39 41       	pop	r9		
    510c:	3a 41       	pop	r10		
    510e:	3b 41       	pop	r11		
    5110:	30 41       	ret			

00005112 <CC2420ControlP__writeId>:
    5112:	0b 12       	push	r11		
    5114:	31 50 f4 ff 	add	#-12,	r1	;#0xfff4
    5118:	b0 12 3a 4a 	call	#0x4a3a	
    511c:	4b 4f       	mov.b	r15,	r11	
    511e:	3d 42       	mov	#8,	r13	;r2 As==11
    5120:	3e 40 b6 1b 	mov	#7094,	r14	;#0x1bb6
    5124:	0f 41       	mov	r1,	r15	
    5126:	b0 12 fa 88 	call	#0x88fa	
    512a:	1e 42 c8 1a 	mov	&0x1ac8,r14	
    512e:	c1 4e 08 00 	mov.b	r14,	8(r1)	;0x0008(r1)
    5132:	8e 10       	swpb	r14		
    5134:	c1 4e 09 00 	mov.b	r14,	9(r1)	;0x0009(r1)
    5138:	1e 42 e6 1a 	mov	&0x1ae6,r14	
    513c:	c1 4e 0a 00 	mov.b	r14,	10(r1)	;0x000a(r1)
    5140:	8e 10       	swpb	r14		
    5142:	c1 4e 0b 00 	mov.b	r14,	11(r1)	;0x000b(r1)
    5146:	4f 4b       	mov.b	r11,	r15	
    5148:	b0 12 4c 4a 	call	#0x4a4c	
    514c:	7c 40 0c 00 	mov.b	#12,	r12	;#0x000c
    5150:	0d 41       	mov	r1,	r13	
    5152:	4e 43       	clr.b	r14		
    5154:	3f 40 60 01 	mov	#352,	r15	;#0x0160
    5158:	b0 12 9a 50 	call	#0x509a	
    515c:	31 50 0c 00 	add	#12,	r1	;#0x000c
    5160:	3b 41       	pop	r11		
    5162:	30 41       	ret			

00005164 <CC2420CsmaP__SplitControlState__forceState>:
    5164:	0b 12       	push	r11		
    5166:	4b 4f       	mov.b	r15,	r11	
    5168:	b0 12 3a 4a 	call	#0x4a3a	
    516c:	c2 4b a7 1b 	mov.b	r11,	&0x1ba7	
    5170:	b0 12 4c 4a 	call	#0x4a4c	
    5174:	3b 41       	pop	r11		
    5176:	30 41       	ret			

00005178 <TransformAlarmC__1__Counter__get>:
    5178:	0b 12       	push	r11		
    517a:	0a 12       	push	r10		
    517c:	09 12       	push	r9		
    517e:	08 12       	push	r8		
    5180:	07 12       	push	r7		
    5182:	b0 12 3a 4a 	call	#0x4a3a	
    5186:	47 4f       	mov.b	r15,	r7	
    5188:	1a 42 d6 1a 	mov	&0x1ad6,r10	
    518c:	1b 42 d8 1a 	mov	&0x1ad8,r11	
    5190:	b0 12 5e 46 	call	#0x465e	
    5194:	0d 4f       	mov	r15,	r13	
    5196:	1f 42 80 01 	mov	&0x0180,r15	
    519a:	5f f3       	and.b	#1,	r15	;r3 As==01
    519c:	05 24       	jz	$+12     	;abs 0x51a8
    519e:	1a 53       	inc	r10		
    51a0:	0b 63       	adc	r11		
    51a2:	b0 12 5e 46 	call	#0x465e	
    51a6:	0d 4f       	mov	r15,	r13	
    51a8:	12 c3       	clrc			
    51aa:	0d 10       	rrc	r13		
    51ac:	12 c3       	clrc			
    51ae:	0d 10       	rrc	r13		
    51b0:	12 c3       	clrc			
    51b2:	0d 10       	rrc	r13		
    51b4:	12 c3       	clrc			
    51b6:	0d 10       	rrc	r13		
    51b8:	12 c3       	clrc			
    51ba:	0d 10       	rrc	r13		
    51bc:	08 4d       	mov	r13,	r8	
    51be:	09 43       	clr	r9		
    51c0:	0e 4a       	mov	r10,	r14	
    51c2:	0f 4b       	mov	r11,	r15	
    51c4:	4f ea       	xor.b	r10,	r15	
    51c6:	0f ea       	xor	r10,	r15	
    51c8:	8f 10       	swpb	r15		
    51ca:	4e 4e       	mov.b	r14,	r14	
    51cc:	8e 10       	swpb	r14		
    51ce:	0e 5e       	rla	r14		
    51d0:	0f 6f       	rlc	r15		
    51d2:	0e 5e       	rla	r14		
    51d4:	0f 6f       	rlc	r15		
    51d6:	0e 5e       	rla	r14		
    51d8:	0f 6f       	rlc	r15		
    51da:	08 de       	bis	r14,	r8	
    51dc:	09 df       	bis	r15,	r9	
    51de:	4f 47       	mov.b	r7,	r15	
    51e0:	b0 12 4c 4a 	call	#0x4a4c	
    51e4:	0e 48       	mov	r8,	r14	
    51e6:	0f 49       	mov	r9,	r15	
    51e8:	37 41       	pop	r7		
    51ea:	38 41       	pop	r8		
    51ec:	39 41       	pop	r9		
    51ee:	3a 41       	pop	r10		
    51f0:	3b 41       	pop	r11		
    51f2:	30 41       	ret			

000051f4 <TransformAlarmC__1__set_alarm>:
    51f4:	0b 12       	push	r11		
    51f6:	0a 12       	push	r10		
    51f8:	09 12       	push	r9		
    51fa:	08 12       	push	r8		
    51fc:	b0 12 78 51 	call	#0x5178	
    5200:	08 4e       	mov	r14,	r8	
    5202:	09 4f       	mov	r15,	r9	
    5204:	1e 42 8a 17 	mov	&0x178a,r14	
    5208:	1f 42 8c 17 	mov	&0x178c,r15	
    520c:	0a 4e       	mov	r14,	r10	
    520e:	0b 4f       	mov	r15,	r11	
    5210:	1a 52 86 1a 	add	&0x1a86,r10	
    5214:	1b 62 88 1a 	addc	&0x1a88,r11	
    5218:	09 9f       	cmp	r15,	r9	
    521a:	09 28       	jnc	$+20     	;abs 0x522e
    521c:	02 20       	jnz	$+6      	;abs 0x5222
    521e:	08 9e       	cmp	r14,	r8	
    5220:	06 28       	jnc	$+14     	;abs 0x522e
    5222:	0b 9f       	cmp	r15,	r11	
    5224:	10 28       	jnc	$+34     	;abs 0x5246
    5226:	09 20       	jnz	$+20     	;abs 0x523a
    5228:	0a 9e       	cmp	r14,	r10	
    522a:	0d 28       	jnc	$+28     	;abs 0x5246
    522c:	06 3c       	jmp	$+14     	;abs 0x523a
    522e:	0b 9f       	cmp	r15,	r11	
    5230:	04 28       	jnc	$+10     	;abs 0x523a
    5232:	0f 9b       	cmp	r11,	r15	
    5234:	27 28       	jnc	$+80     	;abs 0x5284
    5236:	0a 9e       	cmp	r14,	r10	
    5238:	25 2c       	jc	$+76     	;abs 0x5284
    523a:	09 9b       	cmp	r11,	r9	
    523c:	04 28       	jnc	$+10     	;abs 0x5246
    523e:	0b 99       	cmp	r9,	r11	
    5240:	21 28       	jnc	$+68     	;abs 0x5284
    5242:	08 9a       	cmp	r10,	r8	
    5244:	1f 2c       	jc	$+64     	;abs 0x5284
    5246:	0c 4a       	mov	r10,	r12	
    5248:	0d 4b       	mov	r11,	r13	
    524a:	0c 88       	sub	r8,	r12	
    524c:	0d 79       	subc	r9,	r13	
    524e:	0d 93       	tst	r13		
    5250:	03 20       	jnz	$+8      	;abs 0x5258
    5252:	3c 90 01 04 	cmp	#1025,	r12	;#0x0401
    5256:	18 28       	jnc	$+50     	;abs 0x5288
    5258:	0e 48       	mov	r8,	r14	
    525a:	0f 49       	mov	r9,	r15	
    525c:	3e 50 00 04 	add	#1024,	r14	;#0x0400
    5260:	0f 63       	adc	r15		
    5262:	82 4e 8a 17 	mov	r14,	&0x178a	
    5266:	82 4f 8c 17 	mov	r15,	&0x178c	
    526a:	0e 4c       	mov	r12,	r14	
    526c:	0f 4d       	mov	r13,	r15	
    526e:	3e 50 00 fc 	add	#-1024,	r14	;#0xfc00
    5272:	3f 63       	addc	#-1,	r15	;r3 As==11
    5274:	82 4e 86 1a 	mov	r14,	&0x1a86	
    5278:	82 4f 88 1a 	mov	r15,	&0x1a88	
    527c:	3c 40 00 04 	mov	#1024,	r12	;#0x0400
    5280:	0d 43       	clr	r13		
    5282:	0a 3c       	jmp	$+22     	;abs 0x5298
    5284:	0c 43       	clr	r12		
    5286:	0d 43       	clr	r13		
    5288:	82 4a 8a 17 	mov	r10,	&0x178a	
    528c:	82 4b 8c 17 	mov	r11,	&0x178c	
    5290:	82 43 86 1a 	mov	#0,	&0x1a86	;r3 As==00
    5294:	82 43 88 1a 	mov	#0,	&0x1a88	;r3 As==00
    5298:	0a 4c       	mov	r12,	r10	
    529a:	0a 5a       	rla	r10		
    529c:	0a 5a       	rla	r10		
    529e:	0a 5a       	rla	r10		
    52a0:	0a 5a       	rla	r10		
    52a2:	0a 5a       	rla	r10		
    52a4:	b0 12 5e 46 	call	#0x465e	
    52a8:	08 58       	rla	r8		
    52aa:	08 58       	rla	r8		
    52ac:	08 58       	rla	r8		
    52ae:	08 58       	rla	r8		
    52b0:	08 58       	rla	r8		
    52b2:	0e 4f       	mov	r15,	r14	
    52b4:	0e 88       	sub	r8,	r14	
    52b6:	0e 9a       	cmp	r10,	r14	
    52b8:	04 2c       	jc	$+10     	;abs 0x52c2
    52ba:	0a 8e       	sub	r14,	r10	
    52bc:	3a 90 03 00 	cmp	#3,	r10	;#0x0003
    52c0:	06 2c       	jc	$+14     	;abs 0x52ce
    52c2:	b0 12 5e 46 	call	#0x465e	
    52c6:	2f 53       	incd	r15		
    52c8:	82 4f 96 01 	mov	r15,	&0x0196	
    52cc:	03 3c       	jmp	$+8      	;abs 0x52d4
    52ce:	0a 5f       	add	r15,	r10	
    52d0:	82 4a 96 01 	mov	r10,	&0x0196	
    52d4:	b2 f0 fe ff 86 01 	and	#-2,	&0x0186	;#0xfffe
    52da:	b2 d0 10 00 86 01 	bis	#16,	&0x0186	;#0x0010
    52e0:	38 41       	pop	r8		
    52e2:	39 41       	pop	r9		
    52e4:	3a 41       	pop	r10		
    52e6:	3b 41       	pop	r11		
    52e8:	30 41       	ret			

000052ea <CC2420ControlP__RSTN__clr>:
    52ea:	b0 12 3a 4a 	call	#0x4a3a	
    52ee:	f2 f0 bf ff 1d 00 	and.b	#-65,	&0x001d	;#0xffbf
    52f4:	b0 12 4c 4a 	call	#0x4a4c	
    52f8:	30 41       	ret			

000052fa <CC2420ControlP__RSTN__set>:
    52fa:	b0 12 3a 4a 	call	#0x4a3a	
    52fe:	f2 d0 40 00 1d 00 	bis.b	#64,	&0x001d	;#0x0040
    5304:	b0 12 4c 4a 	call	#0x4a4c	
    5308:	30 41       	ret			

0000530a <CC2420TransmitP__loadTXFIFO>:
    530a:	0b 12       	push	r11		
    530c:	0a 12       	push	r10		
    530e:	09 12       	push	r9		
    5310:	1b 42 ce 1a 	mov	&0x1ace,r11	
    5314:	5a 4b 2a 00 	mov.b	42(r11),r10	;0x002a(r11)
    5318:	4a 93       	tst.b	r10		
    531a:	02 20       	jnz	$+6      	;abs 0x5320
    531c:	7a 40 1f 00 	mov.b	#31,	r10	;#0x001f
    5320:	b0 12 3a 4b 	call	#0x4b3a	
    5324:	c2 9a 6f 1a 	cmp.b	r10,	&0x1a6f	
    5328:	07 24       	jz	$+16     	;abs 0x5338
    532a:	4e 4a       	mov.b	r10,	r14	
    532c:	3e d0 e0 80 	bis	#-32544,r14	;#0x80e0
    5330:	7f 40 15 00 	mov.b	#21,	r15	;#0x0015
    5334:	b0 12 56 50 	call	#0x5056	
    5338:	c2 4a 6f 1a 	mov.b	r10,	&0x1a6f	
    533c:	69 4b       	mov.b	@r11,	r9	
    533e:	b0 12 3a 4a 	call	#0x4a3a	
    5342:	4a 4f       	mov.b	r15,	r10	
    5344:	b0 12 d0 4a 	call	#0x4ad0	
    5348:	4f 93       	tst.b	r15		
    534a:	04 24       	jz	$+10     	;abs 0x5354
    534c:	4f 4a       	mov.b	r10,	r15	
    534e:	b0 12 4c 4a 	call	#0x4a4c	
    5352:	20 3c       	jmp	$+66     	;abs 0x5394
    5354:	4f 4a       	mov.b	r10,	r15	
    5356:	b0 12 4c 4a 	call	#0x4a4c	
    535a:	b2 40 3e 00 ea 1a 	mov	#62,	&0x1aea	;#0x003e
    5360:	7f 40 3e 00 	mov.b	#62,	r15	;#0x003e
    5364:	b0 12 0a 46 	call	#0x460a	
    5368:	4f 49       	mov.b	r9,	r15	
    536a:	7f 53       	add.b	#-1,	r15	;r3 As==11
    536c:	4f 4f       	mov.b	r15,	r15	
    536e:	c2 43 e8 1a 	mov.b	#0,	&0x1ae8	;r3 As==00
    5372:	82 4b da 1a 	mov	r11,	&0x1ada	
    5376:	82 43 84 1b 	mov	#0,	&0x1b84	;r3 As==00
    537a:	82 4f da 20 	mov	r15,	&0x20da	
    537e:	82 43 d6 20 	mov	#0,	&0x20d6	;r3 As==00
    5382:	0f 93       	tst	r15		
    5384:	03 24       	jz	$+8      	;abs 0x538c
    5386:	b0 12 54 4c 	call	#0x4c54	
    538a:	04 3c       	jmp	$+10     	;abs 0x5394
    538c:	7f 40 06 00 	mov.b	#6,	r15	;#0x0006
    5390:	b0 12 4a 4b 	call	#0x4b4a	
    5394:	39 41       	pop	r9		
    5396:	3a 41       	pop	r10		
    5398:	3b 41       	pop	r11		
    539a:	30 41       	ret			

0000539c <SenderC__Leds__led2Toggle>:
    539c:	b0 12 3a 4a 	call	#0x4a3a	
    53a0:	f2 e0 40 00 31 00 	xor.b	#64,	&0x0031	;#0x0040
    53a6:	b0 12 4c 4a 	call	#0x4a4c	
    53aa:	30 41       	ret			

000053ac <SenderC__Leds__led1Toggle>:
    53ac:	b0 12 3a 4a 	call	#0x4a3a	
    53b0:	f2 e0 20 00 31 00 	xor.b	#32,	&0x0031	;#0x0020
    53b6:	b0 12 4c 4a 	call	#0x4a4c	
    53ba:	30 41       	ret			

000053bc <AMQueueImplP__0__Send__sendDone.isra.146>:
    53bc:	5f 93       	cmp.b	#1,	r15	;r3 As==01
    53be:	0a 24       	jz	$+22     	;abs 0x53d4
    53c0:	03 28       	jnc	$+8      	;abs 0x53c8
    53c2:	6f 93       	cmp.b	#2,	r15	;r3 As==10
    53c4:	1c 20       	jnz	$+58     	;abs 0x53fe
    53c6:	0e 3c       	jmp	$+30     	;abs 0x53e4
    53c8:	3e 90 38 1b 	cmp	#6968,	r14	;#0x1b38
    53cc:	18 20       	jnz	$+50     	;abs 0x53fe
    53ce:	c2 43 c6 1a 	mov.b	#0,	&0x1ac6	;r3 As==00
    53d2:	30 41       	ret			
    53d4:	3e 90 3a 1a 	cmp	#6714,	r14	;#0x1a3a
    53d8:	12 20       	jnz	$+38     	;abs 0x53fe
    53da:	c2 43 c6 1a 	mov.b	#0,	&0x1ac6	;r3 As==00
    53de:	b0 12 9c 53 	call	#0x539c	
    53e2:	30 41       	ret			
    53e4:	3e 90 f2 20 	cmp	#8434,	r14	;#0x20f2
    53e8:	06 24       	jz	$+14     	;abs 0x53f6
    53ea:	3e 90 fc 1a 	cmp	#6908,	r14	;#0x1afc
    53ee:	03 24       	jz	$+8      	;abs 0x53f6
    53f0:	3e 90 92 1a 	cmp	#6802,	r14	;#0x1a92
    53f4:	04 20       	jnz	$+10     	;abs 0x53fe
    53f6:	c2 43 c6 1a 	mov.b	#0,	&0x1ac6	;r3 As==00
    53fa:	b0 12 ac 53 	call	#0x53ac	
    53fe:	30 41       	ret			

00005400 <CC2420ControlP__writeFsctrl>:
    5400:	0b 12       	push	r11		
    5402:	b0 12 3a 4a 	call	#0x4a3a	
    5406:	5b 42 bf 1b 	mov.b	&0x1bbf,r11	
    540a:	b0 12 4c 4a 	call	#0x4a4c	
    540e:	0f 4b       	mov	r11,	r15	
    5410:	0f 5f       	rla	r15		
    5412:	0f 5f       	rla	r15		
    5414:	0f 5b       	add	r11,	r15	
    5416:	3f 50 2e 01 	add	#302,	r15	;#0x012e
    541a:	0e 4f       	mov	r15,	r14	
    541c:	3e d0 00 40 	bis	#16384,	r14	;#0x4000
    5420:	7f 40 18 00 	mov.b	#24,	r15	;#0x0018
    5424:	b0 12 56 50 	call	#0x5056	
    5428:	3b 41       	pop	r11		
    542a:	30 41       	ret			

0000542c <CC2420ControlP__writeMdmctrl0>:
    542c:	0b 12       	push	r11		
    542e:	b0 12 3a 4a 	call	#0x4a3a	
    5432:	4b 4f       	mov.b	r15,	r11	
    5434:	c2 93 84 1a 	tst.b	&0x1a84	
    5438:	04 24       	jz	$+10     	;abs 0x5442
    543a:	1e 43       	mov	#1,	r14	;r3 As==01
    543c:	c2 93 ea 20 	tst.b	&0x20ea	
    5440:	01 20       	jnz	$+4      	;abs 0x5444
    5442:	0e 43       	clr	r14		
    5444:	4e 4e       	mov.b	r14,	r14	
    5446:	8e 10       	swpb	r14		
    5448:	0e 5e       	rla	r14		
    544a:	0e 5e       	rla	r14		
    544c:	0e 5e       	rla	r14		
    544e:	c2 93 cb 1a 	tst.b	&0x1acb	
    5452:	04 24       	jz	$+10     	;abs 0x545c
    5454:	1d 43       	mov	#1,	r13	;r3 As==01
    5456:	c2 93 b4 1b 	tst.b	&0x1bb4	
    545a:	01 20       	jnz	$+4      	;abs 0x545e
    545c:	0d 43       	clr	r13		
    545e:	3e d0 e2 22 	bis	#8930,	r14	;#0x22e2
    5462:	0d 5d       	rla	r13		
    5464:	0d 5d       	rla	r13		
    5466:	0d 5d       	rla	r13		
    5468:	0d 5d       	rla	r13		
    546a:	0e dd       	bis	r13,	r14	
    546c:	7f 40 11 00 	mov.b	#17,	r15	;#0x0011
    5470:	b0 12 56 50 	call	#0x5056	
    5474:	4f 4b       	mov.b	r11,	r15	
    5476:	b0 12 4c 4a 	call	#0x4a4c	
    547a:	3b 41       	pop	r11		
    547c:	30 41       	ret			

0000547e <Msp430UartP__0__ResourceConfigure__configure.constprop.158>:
    547e:	1f 42 00 11 	mov	&0x1100,r15	
    5482:	12 c3       	clrc			
    5484:	0f 10       	rrc	r15		
    5486:	c2 4f dc 20 	mov.b	r15,	&0x20dc	
    548a:	b0 12 3a 4a 	call	#0x4a3a	
    548e:	d2 43 78 00 	mov.b	#1,	&0x0078	;r3 As==01
    5492:	f2 f0 ef ff 05 00 	and.b	#-17,	&0x0005	;#0xffef
    5498:	f2 f0 fd ff 33 00 	and.b	#-3,	&0x0033	;#0xfffd
    549e:	f2 f0 fb ff 33 00 	and.b	#-5,	&0x0033	;#0xfffb
    54a4:	f2 f0 f7 ff 33 00 	and.b	#-9,	&0x0033	;#0xfff7
    54aa:	5e 42 03 11 	mov.b	&0x1103,r14	
    54ae:	7e f0 fa ff 	and.b	#-6,	r14	;#0xfffa
    54b2:	5e d3       	bis.b	#1,	r14	;r3 As==01
    54b4:	c2 4e 78 00 	mov.b	r14,	&0x0078	
    54b8:	d2 42 04 11 79 00 	mov.b	&0x1104,&0x0079	
    54be:	d2 42 05 11 7a 00 	mov.b	&0x1105,&0x007a	
    54c4:	1e 42 00 11 	mov	&0x1100,r14	
    54c8:	c2 4e 7c 00 	mov.b	r14,	&0x007c	
    54cc:	8e 10       	swpb	r14		
    54ce:	4e 4e       	mov.b	r14,	r14	
    54d0:	c2 4e 7d 00 	mov.b	r14,	&0x007d	
    54d4:	d2 42 02 11 7b 00 	mov.b	&0x1102,&0x007b	
    54da:	5e 42 06 11 	mov.b	&0x1106,r14	
    54de:	7e f0 03 00 	and.b	#3,	r14	;#0x0003
    54e2:	7e 90 03 00 	cmp.b	#3,	r14	;#0x0003
    54e6:	0b 20       	jnz	$+24     	;abs 0x54fe
    54e8:	f2 d0 40 00 1b 00 	bis.b	#64,	&0x001b	;#0x0040
    54ee:	f2 d0 80 ff 1b 00 	bis.b	#-128,	&0x001b	;#0xff80
    54f4:	5e 42 05 00 	mov.b	&0x0005,r14	
    54f8:	7e d0 30 00 	bis.b	#48,	r14	;#0x0030
    54fc:	0f 3c       	jmp	$+32     	;abs 0x551c
    54fe:	6e 93       	cmp.b	#2,	r14	;r3 As==10
    5500:	10 20       	jnz	$+34     	;abs 0x5522
    5502:	f2 f0 df ff 05 00 	and.b	#-33,	&0x0005	;#0xffdf
    5508:	f2 f0 bf ff 1b 00 	and.b	#-65,	&0x001b	;#0xffbf
    550e:	f2 d0 80 ff 1b 00 	bis.b	#-128,	&0x001b	;#0xff80
    5514:	5e 42 05 00 	mov.b	&0x0005,r14	
    5518:	7e d0 10 00 	bis.b	#16,	r14	;#0x0010
    551c:	c2 4e 05 00 	mov.b	r14,	&0x0005	
    5520:	19 3c       	jmp	$+52     	;abs 0x5554
    5522:	5e 93       	cmp.b	#1,	r14	;r3 As==01
    5524:	0e 20       	jnz	$+30     	;abs 0x5542
    5526:	f2 f0 ef ff 05 00 	and.b	#-17,	&0x0005	;#0xffef
    552c:	f2 f0 7f 00 1b 00 	and.b	#127,	&0x001b	;#0x007f
    5532:	f2 d0 40 00 1b 00 	bis.b	#64,	&0x001b	;#0x0040
    5538:	5e 42 05 00 	mov.b	&0x0005,r14	
    553c:	7e d0 20 00 	bis.b	#32,	r14	;#0x0020
    5540:	ed 3f       	jmp	$-36     	;abs 0x551c
    5542:	f2 f0 cf ff 05 00 	and.b	#-49,	&0x0005	;#0xffcf
    5548:	f2 f0 bf ff 1b 00 	and.b	#-65,	&0x001b	;#0xffbf
    554e:	f2 f0 7f 00 1b 00 	and.b	#127,	&0x001b	;#0x007f
    5554:	f2 f0 fe ff 78 00 	and.b	#-2,	&0x0078	;#0xfffe
    555a:	f2 f0 cf ff 03 00 	and.b	#-49,	&0x0003	;#0xffcf
    5560:	f2 f0 cf ff 01 00 	and.b	#-49,	&0x0001	;#0xffcf
    5566:	b0 12 4c 4a 	call	#0x4a4c	
    556a:	b0 12 3a 4a 	call	#0x4a3a	
    556e:	f2 f0 cf ff 03 00 	and.b	#-49,	&0x0003	;#0xffcf
    5574:	f2 d0 30 00 01 00 	bis.b	#48,	&0x0001	;#0x0030
    557a:	b0 12 4c 4a 	call	#0x4a4c	
    557e:	30 41       	ret			

00005580 <StateImplP__State__requestState.constprop.159>:
    5580:	0b 12       	push	r11		
    5582:	4b 4f       	mov.b	r15,	r11	
    5584:	b0 12 3a 4a 	call	#0x4a3a	
    5588:	4e 4b       	mov.b	r11,	r14	
    558a:	3e 50 a6 1b 	add	#7078,	r14	;#0x1ba6
    558e:	ce 93 00 00 	tst.b	0(r14)		;0x0000(r14)
    5592:	04 20       	jnz	$+10     	;abs 0x559c
    5594:	de 43 00 00 	mov.b	#1,	0(r14)	;r3 As==01, 0x0000(r14)
    5598:	4b 43       	clr.b	r11		
    559a:	01 3c       	jmp	$+4      	;abs 0x559e
    559c:	5b 43       	mov.b	#1,	r11	;r3 As==01
    559e:	b0 12 4c 4a 	call	#0x4a4c	
    55a2:	4f 4b       	mov.b	r11,	r15	
    55a4:	3b 41       	pop	r11		
    55a6:	30 41       	ret			

000055a8 <CC2420SpiP__Resource__request>:
    55a8:	0b 12       	push	r11		
    55aa:	0a 12       	push	r10		
    55ac:	4b 4f       	mov.b	r15,	r11	
    55ae:	b0 12 3a 4a 	call	#0x4a3a	
    55b2:	4a 4f       	mov.b	r15,	r10	
    55b4:	4f 43       	clr.b	r15		
    55b6:	b0 12 80 55 	call	#0x5580	
    55ba:	4f 93       	tst.b	r15		
    55bc:	2f 20       	jnz	$+96     	;abs 0x561c
    55be:	c2 4b 13 11 	mov.b	r11,	&0x1113	
    55c2:	c2 93 10 11 	tst.b	&0x1110	
    55c6:	3c 20       	jnz	$+122    	;abs 0x5640
    55c8:	f2 90 03 00 7a 17 	cmp.b	#3,	&0x177a	;#0x0003
    55ce:	38 20       	jnz	$+114    	;abs 0x5640
    55d0:	7f 40 05 00 	mov.b	#5,	r15	;#0x0005
    55d4:	b0 12 4a 4b 	call	#0x4b4a	
    55d8:	2c 3c       	jmp	$+90     	;abs 0x5632
    55da:	d2 43 7a 17 	mov.b	#1,	&0x177a	;r3 As==01
    55de:	c2 43 be 1b 	mov.b	#0,	&0x1bbe	;r3 As==00
    55e2:	b0 12 20 4c 	call	#0x4c20	
    55e6:	25 3c       	jmp	$+76     	;abs 0x5632
    55e8:	c2 93 be 1b 	tst.b	&0x1bbe	
    55ec:	22 24       	jz	$+70     	;abs 0x5632
    55ee:	1e 43       	mov	#1,	r14	;r3 As==01
    55f0:	f2 93 e0 1a 	cmp.b	#-1,	&0x1ae0	;r3 As==11
    55f4:	04 20       	jnz	$+10     	;abs 0x55fe
    55f6:	c2 93 11 11 	tst.b	&0x1111	
    55fa:	01 24       	jz	$+4      	;abs 0x55fe
    55fc:	0e 43       	clr	r14		
    55fe:	0e 93       	tst	r14		
    5600:	18 20       	jnz	$+50     	;abs 0x5632
    5602:	f2 93 12 11 	cmp.b	#-1,	&0x1112	;r3 As==11
    5606:	03 20       	jnz	$+8      	;abs 0x560e
    5608:	c2 43 12 11 	mov.b	#0,	&0x1112	;r3 As==00
    560c:	04 3c       	jmp	$+10     	;abs 0x5616
    560e:	5e 42 11 11 	mov.b	&0x1111,r14	
    5612:	ce 43 e0 1a 	mov.b	#0,	6880(r14);r3 As==00, 0x1ae0(r14)
    5616:	c2 43 11 11 	mov.b	#0,	&0x1111	;r3 As==00
    561a:	0b 3c       	jmp	$+24     	;abs 0x5632
    561c:	1e 43       	mov	#1,	r14	;r3 As==01
    561e:	4d 4b       	mov.b	r11,	r13	
    5620:	7d f0 0f 00 	and.b	#15,	r13	;#0x000f
    5624:	4d 93       	tst.b	r13		
    5626:	03 24       	jz	$+8      	;abs 0x562e
    5628:	0e 5e       	rla	r14		
    562a:	7d 53       	add.b	#-1,	r13	;r3 As==11
    562c:	fb 3f       	jmp	$-8      	;abs 0x5624
    562e:	c2 de 7c 17 	bis.b	r14,	&0x177c	
    5632:	4f 4a       	mov.b	r10,	r15	
    5634:	b0 12 4c 4a 	call	#0x4a4c	
    5638:	4f 43       	clr.b	r15		
    563a:	3a 41       	pop	r10		
    563c:	3b 41       	pop	r11		
    563e:	30 41       	ret			
    5640:	c2 93 7a 17 	tst.b	&0x177a	
    5644:	d1 23       	jnz	$-92     	;abs 0x55e8
    5646:	c9 3f       	jmp	$-108    	;abs 0x55da

00005648 <HplMsp430Usart0P__Usart__setModeSpi.constprop.160>:
    5648:	0b 12       	push	r11		
    564a:	b0 12 3a 4a 	call	#0x4a3a	
    564e:	4b 4f       	mov.b	r15,	r11	
    5650:	5f 43       	mov.b	#1,	r15	;r3 As==01
    5652:	b0 12 f8 48 	call	#0x48f8	
    5656:	f2 f0 da ff 70 00 	and.b	#-38,	&0x0070	;#0xffda
    565c:	5f 43       	mov.b	#1,	r15	;r3 As==01
    565e:	b0 12 f8 48 	call	#0x48f8	
    5662:	f2 f0 3f 00 04 00 	and.b	#63,	&0x0004	;#0x003f
    5668:	3e 40 1b 00 	mov	#27,	r14	;#0x001b
    566c:	fe f0 ef ff 00 00 	and.b	#-17,	0(r14)	;#0xffef, 0x0000(r14)
    5672:	fe f0 df ff 00 00 	and.b	#-33,	0(r14)	;#0xffdf, 0x0000(r14)
    5678:	3d 40 60 17 	mov	#5984,	r13	;#0x1760
    567c:	6f 4d       	mov.b	@r13,	r15	
    567e:	7f d0 05 00 	bis.b	#5,	r15	;#0x0005
    5682:	c2 4f 70 00 	mov.b	r15,	&0x0070	
    5686:	d2 4d 01 00 71 00 	mov.b	1(r13),	&0x0071	;0x0001(r13)
    568c:	1d 42 5e 17 	mov	&0x175e,r13	
    5690:	c2 4d 74 00 	mov.b	r13,	&0x0074	
    5694:	8d 10       	swpb	r13		
    5696:	4d 4d       	mov.b	r13,	r13	
    5698:	c2 4d 75 00 	mov.b	r13,	&0x0075	
    569c:	c2 43 73 00 	mov.b	#0,	&0x0073	;r3 As==00
    56a0:	ee d3 00 00 	bis.b	#2,	0(r14)	;r3 As==10, 0x0000(r14)
    56a4:	ee d2 00 00 	bis.b	#4,	0(r14)	;r2 As==10, 0x0000(r14)
    56a8:	fe d2 00 00 	bis.b	#8,	0(r14)	;r2 As==11, 0x0000(r14)
    56ac:	f2 d0 40 00 04 00 	bis.b	#64,	&0x0004	;#0x0040
    56b2:	4f 43       	clr.b	r15		
    56b4:	b0 12 f8 48 	call	#0x48f8	
    56b8:	f2 f0 3f 00 02 00 	and.b	#63,	&0x0002	;#0x003f
    56be:	f2 f0 3f 00 00 00 	and.b	#63,	&0x0000	;#0x003f
    56c4:	4f 4b       	mov.b	r11,	r15	
    56c6:	b0 12 4c 4a 	call	#0x4a4c	
    56ca:	3b 41       	pop	r11		
    56cc:	30 41       	ret			

000056ce <CC2420SpiP__Resource__immediateRequest>:
    56ce:	0b 12       	push	r11		
    56d0:	0a 12       	push	r10		
    56d2:	4b 4f       	mov.b	r15,	r11	
    56d4:	b0 12 3a 4a 	call	#0x4a3a	
    56d8:	4a 4f       	mov.b	r15,	r10	
    56da:	4f 43       	clr.b	r15		
    56dc:	b0 12 80 55 	call	#0x5580	
    56e0:	4f 93       	tst.b	r15		
    56e2:	06 24       	jz	$+14     	;abs 0x56f0
    56e4:	4f 4a       	mov.b	r10,	r15	
    56e6:	b0 12 4c 4a 	call	#0x4a4c	
    56ea:	7f 40 05 00 	mov.b	#5,	r15	;#0x0005
    56ee:	1e 3c       	jmp	$+62     	;abs 0x572c
    56f0:	c2 93 10 11 	tst.b	&0x1110	
    56f4:	1e 20       	jnz	$+62     	;abs 0x5732
    56f6:	f2 90 03 00 7a 17 	cmp.b	#3,	&0x177a	;#0x0003
    56fc:	1a 20       	jnz	$+54     	;abs 0x5732
    56fe:	0b 3c       	jmp	$+24     	;abs 0x5716
    5700:	e2 43 7a 17 	mov.b	#2,	&0x177a	;r3 As==10
    5704:	c2 43 be 1b 	mov.b	#0,	&0x1bbe	;r3 As==00
    5708:	b0 12 20 4c 	call	#0x4c20	
    570c:	c2 93 10 11 	tst.b	&0x1110	
    5710:	06 20       	jnz	$+14     	;abs 0x571e
    5712:	b0 12 48 56 	call	#0x5648	
    5716:	c2 4b 13 11 	mov.b	r11,	&0x1113	
    571a:	4b 43       	clr.b	r11		
    571c:	03 3c       	jmp	$+8      	;abs 0x5724
    571e:	c2 43 7a 17 	mov.b	#0,	&0x177a	;r3 As==00
    5722:	0a 3c       	jmp	$+22     	;abs 0x5738
    5724:	4f 4a       	mov.b	r10,	r15	
    5726:	b0 12 4c 4a 	call	#0x4a4c	
    572a:	4f 4b       	mov.b	r11,	r15	
    572c:	3a 41       	pop	r10		
    572e:	3b 41       	pop	r11		
    5730:	30 41       	ret			
    5732:	c2 93 7a 17 	tst.b	&0x177a	
    5736:	e4 27       	jz	$-54     	;abs 0x5700
    5738:	b0 12 3a 4a 	call	#0x4a3a	
    573c:	c2 43 a6 1b 	mov.b	#0,	&0x1ba6	;r3 As==00
    5740:	b0 12 4c 4a 	call	#0x4a4c	
    5744:	5b 43       	mov.b	#1,	r11	;r3 As==01
    5746:	ee 3f       	jmp	$-34     	;abs 0x5724

00005748 <CC2420ReceiveP__beginReceive>:
    5748:	a2 43 34 1a 	mov	#2,	&0x1a34	;r3 As==10
    574c:	d2 43 8e 1a 	mov.b	#1,	&0x1a8e	;r3 As==01
    5750:	e2 92 13 11 	cmp.b	#4,	&0x1113	;r2 As==10
    5754:	05 24       	jz	$+12     	;abs 0x5760
    5756:	6f 42       	mov.b	#4,	r15	;r2 As==10
    5758:	b0 12 ce 56 	call	#0x56ce	
    575c:	4f 93       	tst.b	r15		
    575e:	03 20       	jnz	$+8      	;abs 0x5766
    5760:	b0 12 04 4d 	call	#0x4d04	
    5764:	30 41       	ret			
    5766:	6f 42       	mov.b	#4,	r15	;r2 As==10
    5768:	b0 12 a8 55 	call	#0x55a8	
    576c:	30 41       	ret			

0000576e <CC2420ReceiveP__waitForNextPacket>:
    576e:	0b 12       	push	r11		
    5770:	b0 12 3a 4a 	call	#0x4a3a	
    5774:	4b 4f       	mov.b	r15,	r11	
    5776:	82 93 34 1a 	tst	&0x1a34	
    577a:	18 24       	jz	$+50     	;abs 0x57ac
    577c:	c2 43 8e 1a 	mov.b	#0,	&0x1a8e	;r3 As==00
    5780:	5e 42 85 1a 	mov.b	&0x1a85,r14	
    5784:	4e 93       	tst.b	r14		
    5786:	03 24       	jz	$+8      	;abs 0x578e
    5788:	f2 b2 20 00 	bit.b	#8,	&0x0020	;r2 As==11
    578c:	05 20       	jnz	$+12     	;abs 0x5798
    578e:	d2 b3 20 00 	bit.b	#1,	&0x0020	;r3 As==01
    5792:	08 20       	jnz	$+18     	;abs 0x57a4
    5794:	4e 93       	tst.b	r14		
    5796:	03 24       	jz	$+8      	;abs 0x579e
    5798:	7e 53       	add.b	#-1,	r14	;r3 As==11
    579a:	c2 4e 85 1a 	mov.b	r14,	&0x1a85	
    579e:	b0 12 48 57 	call	#0x5748	
    57a2:	07 3c       	jmp	$+16     	;abs 0x57b2
    57a4:	92 43 34 1a 	mov	#1,	&0x1a34	;r3 As==01
    57a8:	c2 43 85 1a 	mov.b	#0,	&0x1a85	;r3 As==00
    57ac:	6f 42       	mov.b	#4,	r15	;r2 As==10
    57ae:	b0 12 56 4d 	call	#0x4d56	
    57b2:	4f 4b       	mov.b	r11,	r15	
    57b4:	b0 12 4c 4a 	call	#0x4a4c	
    57b8:	3b 41       	pop	r11		
    57ba:	30 41       	ret			

000057bc <CC2420ReceiveP__flush>:
    57bc:	b0 12 30 47 	call	#0x4730	
    57c0:	b0 12 48 4d 	call	#0x4d48	
    57c4:	b0 12 3a 4b 	call	#0x4b3a	
    57c8:	7f 42       	mov.b	#8,	r15	;r2 As==11
    57ca:	b0 12 ea 4a 	call	#0x4aea	
    57ce:	7f 42       	mov.b	#8,	r15	;r2 As==11
    57d0:	b0 12 ea 4a 	call	#0x4aea	
    57d4:	b0 12 48 4d 	call	#0x4d48	
    57d8:	6f 42       	mov.b	#4,	r15	;r2 As==10
    57da:	b0 12 56 4d 	call	#0x4d56	
    57de:	b0 12 6e 57 	call	#0x576e	
    57e2:	30 41       	ret			

000057e4 <Msp430SpiNoDmaP__0__signalDone>:
    57e4:	0b 12       	push	r11		
    57e6:	0a 12       	push	r10		
    57e8:	09 12       	push	r9		
    57ea:	08 12       	push	r8		
    57ec:	07 12       	push	r7		
    57ee:	17 42 84 1b 	mov	&0x1b84,r7	
    57f2:	c2 93 e8 1a 	tst.b	&0x1ae8	
    57f6:	02 24       	jz	$+6      	;abs 0x57fc
    57f8:	30 40 e4 5a 	br	#0x5ae4	
    57fc:	1f 42 ea 1a 	mov	&0x1aea,r15	
    5800:	3f b0 40 00 	bit	#64,	r15	;#0x0040
    5804:	02 20       	jnz	$+6      	;abs 0x580a
    5806:	30 40 7c 5a 	br	#0x5a7c	
    580a:	7f f0 bf ff 	and.b	#-65,	r15	;#0xffbf
    580e:	7f 90 3f 00 	cmp.b	#63,	r15	;#0x003f
    5812:	02 24       	jz	$+6      	;abs 0x5818
    5814:	30 40 e4 5a 	br	#0x5ae4	
    5818:	1b 42 86 17 	mov	&0x1786,r11	
    581c:	6e 4b       	mov.b	@r11,	r14	
    581e:	c2 4e 36 1a 	mov.b	r14,	&0x1a36	
    5822:	1f 42 34 1a 	mov	&0x1a34,r15	
    5826:	3f 90 05 00 	cmp	#5,	r15	;#0x0005
    582a:	39 24       	jz	$+116    	;abs 0x589e
    582c:	3f 90 06 00 	cmp	#6,	r15	;#0x0006
    5830:	84 24       	jz	$+266    	;abs 0x593a
    5832:	2f 93       	cmp	#2,	r15	;r3 As==10
    5834:	02 24       	jz	$+6      	;abs 0x583a
    5836:	30 40 6c 5a 	br	#0x5a6c	
    583a:	b2 40 05 00 34 1a 	mov	#5,	&0x1a34	;#0x0005
    5840:	5d 42 e6 18 	mov.b	&0x18e6,r13	
    5844:	4d 9e       	cmp.b	r14,	r13	
    5846:	27 24       	jz	$+80     	;abs 0x5896
    5848:	26 28       	jnc	$+78     	;abs 0x5896
    584a:	f2 b2 20 00 	bit.b	#8,	&0x0020	;r2 As==11
    584e:	08 20       	jnz	$+18     	;abs 0x5860
    5850:	d2 b3 20 00 	bit.b	#1,	&0x0020	;r3 As==01
    5854:	05 20       	jnz	$+12     	;abs 0x5860
    5856:	4f 4e       	mov.b	r14,	r15	
    5858:	7f e3       	xor.b	#-1,	r15	;r3 As==11
    585a:	4f 5d       	add.b	r13,	r15	
    585c:	c2 4f e6 18 	mov.b	r15,	&0x18e6	
    5860:	7e 90 2a 00 	cmp.b	#42,	r14	;#0x002a
    5864:	18 2c       	jc	$+50     	;abs 0x5896
    5866:	4e 93       	tst.b	r14		
    5868:	0e 24       	jz	$+30     	;abs 0x5886
    586a:	0f 4b       	mov	r11,	r15	
    586c:	1f 53       	inc	r15		
    586e:	7e 92       	cmp.b	#8,	r14	;r2 As==11
    5870:	03 28       	jnc	$+8      	;abs 0x5878
    5872:	7e 40 07 00 	mov.b	#7,	r14	;#0x0007
    5876:	03 3c       	jmp	$+8      	;abs 0x587e
    5878:	b2 40 06 00 34 1a 	mov	#6,	&0x1a34	;#0x0006
    587e:	b0 12 6e 4c 	call	#0x4c6e	
    5882:	30 40 e4 5a 	br	#0x5ae4	
    5886:	c2 43 8e 1a 	mov.b	#0,	&0x1a8e	;r3 As==00
    588a:	b0 12 48 4d 	call	#0x4d48	
    588e:	6f 42       	mov.b	#4,	r15	;r2 As==10
    5890:	b0 12 56 4d 	call	#0x4d56	
    5894:	e8 3c       	jmp	$+466    	;abs 0x5a66
    5896:	b0 12 bc 57 	call	#0x57bc	
    589a:	30 40 e4 5a 	br	#0x5ae4	
    589e:	b2 40 06 00 34 1a 	mov	#6,	&0x1a34	;#0x0006
    58a4:	c2 93 cb 1a 	tst.b	&0x1acb	
    58a8:	41 24       	jz	$+132    	;abs 0x592c
    58aa:	c2 93 b4 1b 	tst.b	&0x1bb4	
    58ae:	3e 20       	jnz	$+126    	;abs 0x592c
    58b0:	5f 4b 02 00 	mov.b	2(r11),	r15	;0x0002(r11)
    58b4:	8f 10       	swpb	r15		
    58b6:	5e 4b 01 00 	mov.b	1(r11),	r14	;0x0001(r11)
    58ba:	0f de       	bis	r14,	r15	
    58bc:	3f f0 20 00 	and	#32,	r15	;#0x0020
    58c0:	35 24       	jz	$+108    	;abs 0x592c
    58c2:	5a 4b 07 00 	mov.b	7(r11),	r10	;0x0007(r11)
    58c6:	8a 10       	swpb	r10		
    58c8:	5f 4b 06 00 	mov.b	6(r11),	r15	;0x0006(r11)
    58cc:	0a df       	bis	r15,	r10	
    58ce:	b0 12 3a 4a 	call	#0x4a3a	
    58d2:	19 42 e6 1a 	mov	&0x1ae6,r9	
    58d6:	b0 12 4c 4a 	call	#0x4a4c	
    58da:	0a 99       	cmp	r9,	r10	
    58dc:	08 24       	jz	$+18     	;abs 0x58ee
    58de:	5f 4b 07 00 	mov.b	7(r11),	r15	;0x0007(r11)
    58e2:	8f 10       	swpb	r15		
    58e4:	5e 4b 06 00 	mov.b	6(r11),	r14	;0x0006(r11)
    58e8:	0f de       	bis	r14,	r15	
    58ea:	3f 93       	cmp	#-1,	r15	;r3 As==11
    58ec:	1f 20       	jnz	$+64     	;abs 0x592c
    58ee:	5f 4b 02 00 	mov.b	2(r11),	r15	;0x0002(r11)
    58f2:	8f 10       	swpb	r15		
    58f4:	5e 4b 01 00 	mov.b	1(r11),	r14	;0x0001(r11)
    58f8:	0f de       	bis	r14,	r15	
    58fa:	3f f0 07 00 	and	#7,	r15	;#0x0007
    58fe:	1f 93       	cmp	#1,	r15	;r3 As==01
    5900:	15 20       	jnz	$+44     	;abs 0x592c
    5902:	b0 12 48 4d 	call	#0x4d48	
    5906:	b0 12 3a 4b 	call	#0x4b3a	
    590a:	7f 40 0a 00 	mov.b	#10,	r15	;#0x000a
    590e:	b0 12 ea 4a 	call	#0x4aea	
    5912:	b0 12 48 4d 	call	#0x4d48	
    5916:	b0 12 3a 4b 	call	#0x4b3a	
    591a:	5e 42 36 1a 	mov.b	&0x1a36,r14	
    591e:	7e 50 f9 ff 	add.b	#-7,	r14	;#0xfff9
    5922:	0f 4b       	mov	r11,	r15	
    5924:	3f 52       	add	#8,	r15	;r2 As==11
    5926:	b0 12 9a 4c 	call	#0x4c9a	
    592a:	dc 3c       	jmp	$+442    	;abs 0x5ae4
    592c:	5e 42 36 1a 	mov.b	&0x1a36,r14	
    5930:	7e 50 f9 ff 	add.b	#-7,	r14	;#0xfff9
    5934:	0f 4b       	mov	r11,	r15	
    5936:	3f 52       	add	#8,	r15	;r2 As==11
    5938:	a2 3f       	jmp	$-186    	;abs 0x587e
    593a:	b0 12 48 4d 	call	#0x4d48	
    593e:	c2 93 85 1a 	tst.b	&0x1a85	
    5942:	03 20       	jnz	$+8      	;abs 0x594a
    5944:	6f 42       	mov.b	#4,	r15	;r2 As==10
    5946:	b0 12 56 4d 	call	#0x4d56	
    594a:	c2 93 85 1a 	tst.b	&0x1a85	
    594e:	03 24       	jz	$+8      	;abs 0x5956
    5950:	f2 b2 20 00 	bit.b	#8,	&0x0020	;r2 As==11
    5954:	0b 20       	jnz	$+24     	;abs 0x596c
    5956:	d2 b3 20 00 	bit.b	#1,	&0x0020	;r3 As==01
    595a:	08 24       	jz	$+18     	;abs 0x596c
    595c:	5a 42 21 1c 	mov.b	&0x1c21,r10	
    5960:	4a 93       	tst.b	r10		
    5962:	04 24       	jz	$+10     	;abs 0x596c
    5964:	f2 90 0b 00 36 1a 	cmp.b	#11,	&0x1a36	;#0x000b
    596a:	0e 2c       	jc	$+30     	;abs 0x5988
    596c:	1f 42 86 17 	mov	&0x1786,r15	
    5970:	cf 43 2d 00 	mov.b	#0,	45(r15)	;r3 As==00, 0x002d(r15)
    5974:	cf 43 31 00 	mov.b	#0,	49(r15)	;r3 As==00, 0x0031(r15)
    5978:	cf 43 30 00 	mov.b	#0,	48(r15)	;r3 As==00, 0x0030(r15)
    597c:	cf 43 2f 00 	mov.b	#0,	47(r15)	;r3 As==00, 0x002f(r15)
    5980:	ff 40 80 ff 2e 00 	mov.b	#-128,	46(r15)	;#0xff80, 0x002e(r15)
    5986:	37 3c       	jmp	$+112    	;abs 0x59f6
    5988:	59 42 d8 20 	mov.b	&0x20d8,r9	
    598c:	5a 93       	cmp.b	#1,	r10	;r3 As==01
    598e:	19 20       	jnz	$+52     	;abs 0x59c2
    5990:	0f 49       	mov	r9,	r15	
    5992:	0f 5f       	rla	r15		
    5994:	0f 5f       	rla	r15		
    5996:	3f 50 cc 1b 	add	#7116,	r15	;#0x1bcc
    599a:	28 4f       	mov	@r15,	r8	
    599c:	1c 4f 02 00 	mov	2(r15),	r12	;0x0002(r15)
    59a0:	1d 42 86 17 	mov	&0x1786,r13	
    59a4:	cd 48 31 00 	mov.b	r8,	49(r13)	;0x0031(r13)
    59a8:	0e 4c       	mov	r12,	r14	
    59aa:	0f 48       	mov	r8,	r15	
    59ac:	8f 10       	swpb	r15		
    59ae:	8e 10       	swpb	r14		
    59b0:	4f ee       	xor.b	r14,	r15	
    59b2:	0f ee       	xor	r14,	r15	
    59b4:	cd 4f 30 00 	mov.b	r15,	48(r13)	;0x0030(r13)
    59b8:	cd 4c 2f 00 	mov.b	r12,	47(r13)	;0x002f(r13)
    59bc:	8c 10       	swpb	r12		
    59be:	cd 4c 2e 00 	mov.b	r12,	46(r13)	;0x002e(r13)
    59c2:	19 53       	inc	r9		
    59c4:	79 f0 07 00 	and.b	#7,	r9	;#0x0007
    59c8:	c2 49 d8 20 	mov.b	r9,	&0x20d8	
    59cc:	7a 53       	add.b	#-1,	r10	;r3 As==11
    59ce:	c2 4a 21 1c 	mov.b	r10,	&0x1c21	
    59d2:	11 24       	jz	$+36     	;abs 0x59f6
    59d4:	1f 42 86 17 	mov	&0x1786,r15	
    59d8:	cf 43 2d 00 	mov.b	#0,	45(r15)	;r3 As==00, 0x002d(r15)
    59dc:	cf 43 31 00 	mov.b	#0,	49(r15)	;r3 As==00, 0x0031(r15)
    59e0:	cf 43 30 00 	mov.b	#0,	48(r15)	;r3 As==00, 0x0030(r15)
    59e4:	cf 43 2f 00 	mov.b	#0,	47(r15)	;r3 As==00, 0x002f(r15)
    59e8:	ff 40 80 ff 2e 00 	mov.b	#-128,	46(r15)	;#0xff80, 0x002e(r15)
    59ee:	c2 43 d8 20 	mov.b	#0,	&0x20d8	;r3 As==00
    59f2:	c2 43 21 1c 	mov.b	#0,	&0x1c21	;r3 As==00
    59f6:	5f 42 36 1a 	mov.b	&0x1a36,r15	
    59fa:	0f 5b       	add	r11,	r15	
    59fc:	cf 93 00 00 	tst.b	0(r15)		;0x0000(r15)
    5a00:	32 34       	jge	$+102    	;abs 0x5a66
    5a02:	07 93       	tst	r7		
    5a04:	30 24       	jz	$+98     	;abs 0x5a66
    5a06:	5f 4b 02 00 	mov.b	2(r11),	r15	;0x0002(r11)
    5a0a:	8f 10       	swpb	r15		
    5a0c:	5f db 01 00 	bis.b	1(r11),	r15	;0x0001(r11)
    5a10:	7f f0 07 00 	and.b	#7,	r15	;#0x0007
    5a14:	1d 42 86 17 	mov	&0x1786,r13	
    5a18:	6f 93       	cmp.b	#2,	r15	;r3 As==10
    5a1a:	1f 20       	jnz	$+64     	;abs 0x5a5a
    5a1c:	1f 42 ce 1a 	mov	&0x1ace,r15	
    5a20:	0f 93       	tst	r15		
    5a22:	21 24       	jz	$+68     	;abs 0x5a66
    5a24:	b2 90 07 00 6c 17 	cmp	#7,	&0x176c	;#0x0007
    5a2a:	1d 20       	jnz	$+60     	;abs 0x5a66
    5a2c:	df 9d 03 00 03 00 	cmp.b	3(r13),	3(r15)	;0x0003(r13), 0x0003(r15)
    5a32:	19 20       	jnz	$+52     	;abs 0x5a66
    5a34:	b2 f0 ef ff 82 01 	and	#-17,	&0x0182	;#0xffef
    5a3a:	6e 4d       	mov.b	@r13,	r14	
    5a3c:	df 43 2c 00 	mov.b	#1,	44(r15)	;r3 As==01, 0x002c(r15)
    5a40:	0e 5d       	add	r13,	r14	
    5a42:	df 4e ff ff 28 00 	mov.b	-1(r14),40(r15)	;0xffff(r14), 0x0028(r15)
    5a48:	6e 4e       	mov.b	@r14,	r14	
    5a4a:	7e f0 7f 00 	and.b	#127,	r14	;#0x007f
    5a4e:	cf 4e 29 00 	mov.b	r14,	41(r15)	;0x0029(r15)
    5a52:	4f 43       	clr.b	r15		
    5a54:	b0 12 2e 4d 	call	#0x4d2e	
    5a58:	06 3c       	jmp	$+14     	;abs 0x5a66
    5a5a:	5f 93       	cmp.b	#1,	r15	;r3 As==01
    5a5c:	04 20       	jnz	$+10     	;abs 0x5a66
    5a5e:	7f 42       	mov.b	#8,	r15	;r2 As==11
    5a60:	b0 12 4a 4b 	call	#0x4b4a	
    5a64:	3f 3c       	jmp	$+128    	;abs 0x5ae4
    5a66:	b0 12 6e 57 	call	#0x576e	
    5a6a:	3c 3c       	jmp	$+122    	;abs 0x5ae4
    5a6c:	c2 43 8e 1a 	mov.b	#0,	&0x1a8e	;r3 As==00
    5a70:	b0 12 48 4d 	call	#0x4d48	
    5a74:	6f 42       	mov.b	#4,	r15	;r2 As==10
    5a76:	b0 12 56 4d 	call	#0x4d56	
    5a7a:	34 3c       	jmp	$+106    	;abs 0x5ae4
    5a7c:	7f 90 3e 00 	cmp.b	#62,	r15	;#0x003e
    5a80:	31 20       	jnz	$+100    	;abs 0x5ae4
    5a82:	b0 12 48 4d 	call	#0x4d48	
    5a86:	b2 92 6c 17 	cmp	#8,	&0x176c	;r2 As==11
    5a8a:	11 20       	jnz	$+36     	;abs 0x5aae
    5a8c:	b0 12 3a 4b 	call	#0x4b3a	
    5a90:	7f 40 09 00 	mov.b	#9,	r15	;#0x0009
    5a94:	b0 12 ea 4a 	call	#0x4aea	
    5a98:	b0 12 48 4d 	call	#0x4d48	
    5a9c:	b0 12 12 4e 	call	#0x4e12	
    5aa0:	92 43 6c 17 	mov	#1,	&0x176c	;r3 As==01
    5aa4:	7f 40 03 00 	mov.b	#3,	r15	;#0x0003
    5aa8:	b0 12 14 4d 	call	#0x4d14	
    5aac:	1b 3c       	jmp	$+56     	;abs 0x5ae4
    5aae:	c2 93 26 21 	tst.b	&0x2126	
    5ab2:	05 20       	jnz	$+12     	;abs 0x5abe
    5ab4:	a2 42 6c 17 	mov	#4,	&0x176c	;r2 As==10
    5ab8:	b0 12 be 4f 	call	#0x4fbe	
    5abc:	13 3c       	jmp	$+40     	;abs 0x5ae4
    5abe:	b0 12 12 4e 	call	#0x4e12	
    5ac2:	b2 40 03 00 6c 17 	mov	#3,	&0x176c	;#0x0003
    5ac8:	b0 12 b2 45 	call	#0x45b2	
    5acc:	3e 40 36 01 	mov	#310,	r14	;#0x0136
    5ad0:	b0 12 34 7b 	call	#0x7b34	
    5ad4:	0e 4f       	mov	r15,	r14	
    5ad6:	3e 50 0b 00 	add	#11,	r14	;#0x000b
    5ada:	82 4e da 18 	mov	r14,	&0x18da	
    5ade:	0f 43       	clr	r15		
    5ae0:	b0 12 4c 4f 	call	#0x4f4c	
    5ae4:	37 41       	pop	r7		
    5ae6:	38 41       	pop	r8		
    5ae8:	39 41       	pop	r9		
    5aea:	3a 41       	pop	r10		
    5aec:	3b 41       	pop	r11		
    5aee:	30 41       	ret			

00005af0 <Msp430TimerP__1__Event__fired>:
    5af0:	0b 12       	push	r11		
    5af2:	0a 12       	push	r10		
    5af4:	09 12       	push	r9		
    5af6:	08 12       	push	r8		
    5af8:	07 12       	push	r7		
    5afa:	06 12       	push	r6		
    5afc:	05 12       	push	r5		
    5afe:	7f 92       	cmp.b	#8,	r15	;r2 As==11
    5b00:	02 28       	jnc	$+6      	;abs 0x5b06
    5b02:	30 40 9c 5e 	br	#0x5e9c	
    5b06:	4f 4f       	mov.b	r15,	r15	
    5b08:	0f 5f       	rla	r15		
    5b0a:	10 4f 70 8b 	br	-29840(r15)	;0x8b70(r15)
    5b0e:	1f 42 82 01 	mov	&0x0182,r15	
    5b12:	8f 10       	swpb	r15		
    5b14:	5f f3       	and.b	#1,	r15	;r3 As==01
    5b16:	04 24       	jz	$+10     	;abs 0x5b20
    5b18:	1f 42 92 01 	mov	&0x0192,r15	
    5b1c:	30 40 9c 5e 	br	#0x5e9c	
    5b20:	b2 f0 ef ff 82 01 	and	#-17,	&0x0182	;#0xffef
    5b26:	82 93 dc 1a 	tst	&0x1adc	
    5b2a:	49 20       	jnz	$+148    	;abs 0x5bbe
    5b2c:	82 93 de 1a 	tst	&0x1ade	
    5b30:	46 20       	jnz	$+142    	;abs 0x5bbe
    5b32:	1f 42 6c 17 	mov	&0x176c,r15	
    5b36:	3f 50 fd ff 	add	#-3,	r15	;#0xfffd
    5b3a:	3f 90 06 00 	cmp	#6,	r15	;#0x0006
    5b3e:	2f 2c       	jc	$+96     	;abs 0x5b9e
    5b40:	0f 5f       	rla	r15		
    5b42:	10 4f 80 8b 	br	-29824(r15)	;0x8b80(r15)
    5b46:	f2 b0 10 00 20 00 	bit.b	#16,	&0x0020	;#0x0010
    5b4c:	08 24       	jz	$+18     	;abs 0x5b5e
    5b4e:	a2 42 6c 17 	mov	#4,	&0x176c	;r2 As==10
    5b52:	3e 40 07 00 	mov	#7,	r14	;#0x0007
    5b56:	0f 43       	clr	r15		
    5b58:	b0 12 4c 4f 	call	#0x4f4c	
    5b5c:	20 3c       	jmp	$+66     	;abs 0x5b9e
    5b5e:	b0 12 90 4f 	call	#0x4f90	
    5b62:	1d 3c       	jmp	$+60     	;abs 0x5b9e
    5b64:	7f 40 03 00 	mov.b	#3,	r15	;#0x0003
    5b68:	b0 12 ce 56 	call	#0x56ce	
    5b6c:	4f 93       	tst.b	r15		
    5b6e:	05 24       	jz	$+12     	;abs 0x5b7a
    5b70:	7f 40 03 00 	mov.b	#3,	r15	;#0x0003
    5b74:	b0 12 a8 55 	call	#0x55a8	
    5b78:	12 3c       	jmp	$+38     	;abs 0x5b9e
    5b7a:	b0 12 be 4f 	call	#0x4fbe	
    5b7e:	0f 3c       	jmp	$+32     	;abs 0x5b9e
    5b80:	4f 43       	clr.b	r15		
    5b82:	0b 3c       	jmp	$+24     	;abs 0x5b9a
    5b84:	7f 40 09 00 	mov.b	#9,	r15	;#0x0009
    5b88:	b0 12 ea 4a 	call	#0x4aea	
    5b8c:	5f 43       	mov.b	#1,	r15	;r3 As==01
    5b8e:	b0 12 70 46 	call	#0x4670	
    5b92:	b0 12 12 4e 	call	#0x4e12	
    5b96:	7f 40 07 00 	mov.b	#7,	r15	;#0x0007
    5b9a:	b0 12 2e 4d 	call	#0x4d2e	
    5b9e:	92 93 80 17 	cmp	#1,	&0x1780	;r3 As==01
    5ba2:	02 24       	jz	$+6      	;abs 0x5ba8
    5ba4:	30 40 9c 5e 	br	#0x5e9c	
    5ba8:	a2 43 80 17 	mov	#2,	&0x1780	;r3 As==10
    5bac:	b0 12 ea 52 	call	#0x52ea	
    5bb0:	b0 12 fa 52 	call	#0x52fa	
    5bb4:	4f 43       	clr.b	r15		
    5bb6:	b0 12 a8 55 	call	#0x55a8	
    5bba:	30 40 9c 5e 	br	#0x5e9c	
    5bbe:	b0 12 68 4e 	call	#0x4e68	
    5bc2:	30 40 9c 5e 	br	#0x5e9c	
    5bc6:	1f 42 84 01 	mov	&0x0184,r15	
    5bca:	8f 10       	swpb	r15		
    5bcc:	5f f3       	and.b	#1,	r15	;r3 As==01
    5bce:	02 20       	jnz	$+6      	;abs 0x5bd4
    5bd0:	30 40 9c 5e 	br	#0x5e9c	
    5bd4:	18 42 94 01 	mov	&0x0194,r8	
    5bd8:	b2 f0 fe ff 84 01 	and	#-2,	&0x0184	;#0xfffe
    5bde:	b2 f0 fd ff 84 01 	and	#-3,	&0x0184	;#0xfffd
    5be4:	b0 12 1e 4e 	call	#0x4e1e	
    5be8:	0c 4e       	mov	r14,	r12	
    5bea:	0c 88       	sub	r8,	r12	
    5bec:	0d 43       	clr	r13		
    5bee:	06 4e       	mov	r14,	r6	
    5bf0:	07 4f       	mov	r15,	r7	
    5bf2:	06 8c       	sub	r12,	r6	
    5bf4:	07 7d       	subc	r13,	r7	
    5bf6:	1f 42 6c 17 	mov	&0x176c,r15	
    5bfa:	3f 90 05 00 	cmp	#5,	r15	;#0x0005
    5bfe:	04 24       	jz	$+10     	;abs 0x5c08
    5c00:	3f 90 06 00 	cmp	#6,	r15	;#0x0006
    5c04:	b8 20       	jnz	$+370    	;abs 0x5d76
    5c06:	98 3c       	jmp	$+306    	;abs 0x5d38
    5c08:	b2 40 06 00 6c 17 	mov	#6,	&0x176c	;#0x0006
    5c0e:	d2 43 8b 1a 	mov.b	#1,	&0x1a8b	;r3 As==01
    5c12:	c2 43 6a 17 	mov.b	#0,	&0x176a	;r3 As==00
    5c16:	6f 43       	mov.b	#2,	r15	;r3 As==10
    5c18:	b0 12 70 46 	call	#0x4670	
    5c1c:	1c 42 ce 1a 	mov	&0x1ace,r12	
    5c20:	cc 46 31 00 	mov.b	r6,	49(r12)	;0x0031(r12)
    5c24:	0f 46       	mov	r6,	r15	
    5c26:	0d 47       	mov	r7,	r13	
    5c28:	8f 10       	swpb	r15		
    5c2a:	8d 10       	swpb	r13		
    5c2c:	4f ed       	xor.b	r13,	r15	
    5c2e:	0f ed       	xor	r13,	r15	
    5c30:	cc 4f 30 00 	mov.b	r15,	48(r12)	;0x0030(r12)
    5c34:	0f 47       	mov	r7,	r15	
    5c36:	cc 47 2f 00 	mov.b	r7,	47(r12)	;0x002f(r12)
    5c3a:	8f 10       	swpb	r15		
    5c3c:	cc 4f 2e 00 	mov.b	r15,	46(r12)	;0x002e(r12)
    5c40:	cc 93 2d 00 	tst.b	45(r12)	;0x002d(r12)
    5c44:	64 24       	jz	$+202    	;abs 0x5d0e
    5c46:	65 4c       	mov.b	@r12,	r5	
    5c48:	75 50 fb ff 	add.b	#-5,	r5	;#0xfffb
    5c4c:	49 45       	mov.b	r5,	r9	
    5c4e:	09 5c       	add	r12,	r9	
    5c50:	6d 49       	mov.b	@r9,	r13	
    5c52:	0a 43       	clr	r10		
    5c54:	0b 43       	clr	r11		
    5c56:	0b 4d       	mov	r13,	r11	
    5c58:	8b 10       	swpb	r11		
    5c5a:	0c 43       	clr	r12		
    5c5c:	0d 43       	clr	r13		
    5c5e:	5d 49 01 00 	mov.b	1(r9),	r13	;0x0001(r9)
    5c62:	0c da       	bis	r10,	r12	
    5c64:	0d db       	bis	r11,	r13	
    5c66:	5a 49 03 00 	mov.b	3(r9),	r10	;0x0003(r9)
    5c6a:	0b 43       	clr	r11		
    5c6c:	0c da       	bis	r10,	r12	
    5c6e:	0d db       	bis	r11,	r13	
    5c70:	5a 49 02 00 	mov.b	2(r9),	r10	;0x0002(r9)
    5c74:	4b ea       	xor.b	r10,	r11	
    5c76:	0b ea       	xor	r10,	r11	
    5c78:	8b 10       	swpb	r11		
    5c7a:	4a 4a       	mov.b	r10,	r10	
    5c7c:	8a 10       	swpb	r10		
    5c7e:	0c da       	bis	r10,	r12	
    5c80:	0d db       	bis	r11,	r13	
    5c82:	0c 86       	sub	r6,	r12	
    5c84:	0d 77       	subc	r7,	r13	
    5c86:	c9 4c 03 00 	mov.b	r12,	3(r9)	;0x0003(r9)
    5c8a:	0a 4d       	mov	r13,	r10	
    5c8c:	8c 10       	swpb	r12		
    5c8e:	8a 10       	swpb	r10		
    5c90:	4c ea       	xor.b	r10,	r12	
    5c92:	0c ea       	xor	r10,	r12	
    5c94:	c9 4c 02 00 	mov.b	r12,	2(r9)	;0x0002(r9)
    5c98:	0f 4d       	mov	r13,	r15	
    5c9a:	c9 4d 01 00 	mov.b	r13,	1(r9)	;0x0001(r9)
    5c9e:	8f 10       	swpb	r15		
    5ca0:	c9 4f 00 00 	mov.b	r15,	0(r9)	;0x0000(r9)
    5ca4:	b0 12 3a 4b 	call	#0x4b3a	
    5ca8:	6c 42       	mov.b	#4,	r12	;r2 As==10
    5caa:	0d 49       	mov	r9,	r13	
    5cac:	4e 45       	mov.b	r5,	r14	
    5cae:	0f 43       	clr	r15		
    5cb0:	b0 12 9a 50 	call	#0x509a	
    5cb4:	b0 12 48 4d 	call	#0x4d48	
    5cb8:	6f 49       	mov.b	@r9,	r15	
    5cba:	0c 43       	clr	r12		
    5cbc:	0d 43       	clr	r13		
    5cbe:	0d 4f       	mov	r15,	r13	
    5cc0:	8d 10       	swpb	r13		
    5cc2:	0a 43       	clr	r10		
    5cc4:	0b 43       	clr	r11		
    5cc6:	5b 49 01 00 	mov.b	1(r9),	r11	;0x0001(r9)
    5cca:	0c da       	bis	r10,	r12	
    5ccc:	0d db       	bis	r11,	r13	
    5cce:	5a 49 03 00 	mov.b	3(r9),	r10	;0x0003(r9)
    5cd2:	0b 43       	clr	r11		
    5cd4:	0c da       	bis	r10,	r12	
    5cd6:	0d db       	bis	r11,	r13	
    5cd8:	5a 49 02 00 	mov.b	2(r9),	r10	;0x0002(r9)
    5cdc:	4b ea       	xor.b	r10,	r11	
    5cde:	0b ea       	xor	r10,	r11	
    5ce0:	8b 10       	swpb	r11		
    5ce2:	4a 4a       	mov.b	r10,	r10	
    5ce4:	8a 10       	swpb	r10		
    5ce6:	0c da       	bis	r10,	r12	
    5ce8:	0d db       	bis	r11,	r13	
    5cea:	0c 56       	add	r6,	r12	
    5cec:	0d 67       	addc	r7,	r13	
    5cee:	c9 4c 03 00 	mov.b	r12,	3(r9)	;0x0003(r9)
    5cf2:	0f 4c       	mov	r12,	r15	
    5cf4:	0c 4d       	mov	r13,	r12	
    5cf6:	8f 10       	swpb	r15		
    5cf8:	8c 10       	swpb	r12		
    5cfa:	4f ec       	xor.b	r12,	r15	
    5cfc:	0f ec       	xor	r12,	r15	
    5cfe:	c9 4f 02 00 	mov.b	r15,	2(r9)	;0x0002(r9)
    5d02:	0f 4d       	mov	r13,	r15	
    5d04:	c9 4d 01 00 	mov.b	r13,	1(r9)	;0x0001(r9)
    5d08:	8f 10       	swpb	r15		
    5d0a:	c9 4f 00 00 	mov.b	r15,	0(r9)	;0x0000(r9)
    5d0e:	1d 42 ce 1a 	mov	&0x1ace,r13	
    5d12:	5f 4d 02 00 	mov.b	2(r13),	r15	;0x0002(r13)
    5d16:	8f 10       	swpb	r15		
    5d18:	5d 4d 01 00 	mov.b	1(r13),	r13	;0x0001(r13)
    5d1c:	0f dd       	bis	r13,	r15	
    5d1e:	3f f0 20 00 	and	#32,	r15	;#0x0020
    5d22:	02 24       	jz	$+6      	;abs 0x5d28
    5d24:	d2 43 22 1a 	mov.b	#1,	&0x1a22	;r3 As==01
    5d28:	b0 12 12 4e 	call	#0x4e12	
    5d2c:	b2 f0 ef ff 82 01 	and	#-17,	&0x0182	;#0xffef
    5d32:	e2 b3 1c 00 	bit.b	#2,	&0x001c	;r3 As==10
    5d36:	b2 20       	jnz	$+358    	;abs 0x5e9c
    5d38:	c2 43 8b 1a 	mov.b	#0,	&0x1a8b	;r3 As==00
    5d3c:	5f 43       	mov.b	#1,	r15	;r3 As==01
    5d3e:	b0 12 70 46 	call	#0x4670	
    5d42:	1d 42 ce 1a 	mov	&0x1ace,r13	
    5d46:	5f 4d 02 00 	mov.b	2(r13),	r15	;0x0002(r13)
    5d4a:	8f 10       	swpb	r15		
    5d4c:	5d 4d 01 00 	mov.b	1(r13),	r13	;0x0001(r13)
    5d50:	0f dd       	bis	r13,	r15	
    5d52:	3f f0 20 00 	and	#32,	r15	;#0x0020
    5d56:	09 24       	jz	$+20     	;abs 0x5d6a
    5d58:	b2 40 07 00 6c 17 	mov	#7,	&0x176c	;#0x0007
    5d5e:	3e 40 00 01 	mov	#256,	r14	;#0x0100
    5d62:	0f 43       	clr	r15		
    5d64:	b0 12 4c 4f 	call	#0x4f4c	
    5d68:	03 3c       	jmp	$+8      	;abs 0x5d70
    5d6a:	4f 43       	clr.b	r15		
    5d6c:	b0 12 2e 4d 	call	#0x4d2e	
    5d70:	e2 b3 1c 00 	bit.b	#2,	&0x001c	;r3 As==10
    5d74:	93 24       	jz	$+296    	;abs 0x5e9c
    5d76:	c2 93 6a 17 	tst.b	&0x176a	
    5d7a:	27 20       	jnz	$+80     	;abs 0x5dca
    5d7c:	c2 93 8b 1a 	tst.b	&0x1a8b	
    5d80:	24 20       	jnz	$+74     	;abs 0x5dca
    5d82:	d2 43 8b 1a 	mov.b	#1,	&0x1a8b	;r3 As==01
    5d86:	6f 43       	mov.b	#2,	r15	;r3 As==10
    5d88:	b0 12 70 46 	call	#0x4670	
    5d8c:	5c 42 1c 00 	mov.b	&0x001c,r12	
    5d90:	5d 42 21 1c 	mov.b	&0x1c21,r13	
    5d94:	7d 92       	cmp.b	#8,	r13	;r2 As==11
    5d96:	0e 2c       	jc	$+30     	;abs 0x5db4
    5d98:	4f 4d       	mov.b	r13,	r15	
    5d9a:	5f 52 d8 20 	add.b	&0x20d8,r15	
    5d9e:	3f f0 07 00 	and	#7,	r15	;#0x0007
    5da2:	0f 5f       	rla	r15		
    5da4:	0f 5f       	rla	r15		
    5da6:	8f 46 cc 1b 	mov	r6,	7116(r15);0x1bcc(r15)
    5daa:	8f 47 ce 1b 	mov	r7,	7118(r15);0x1bce(r15)
    5dae:	5d 53       	inc.b	r13		
    5db0:	c2 4d 21 1c 	mov.b	r13,	&0x1c21	
    5db4:	d2 43 6a 17 	mov.b	#1,	&0x176a	;r3 As==01
    5db8:	82 48 ec 1a 	mov	r8,	&0x1aec	
    5dbc:	e2 b3 1c 00 	bit.b	#2,	&0x001c	;r3 As==10
    5dc0:	6d 20       	jnz	$+220    	;abs 0x5e9c
    5dc2:	4e 4c       	mov.b	r12,	r14	
    5dc4:	6e f3       	and.b	#2,	r14	;r3 As==10
    5dc6:	5a 43       	mov.b	#1,	r10	;r3 As==01
    5dc8:	01 20       	jnz	$+4      	;abs 0x5dcc
    5dca:	4a 43       	clr.b	r10		
    5dcc:	d2 93 8b 1a 	cmp.b	#1,	&0x1a8b	;r3 As==01
    5dd0:	65 20       	jnz	$+204    	;abs 0x5e9c
    5dd2:	c2 43 8b 1a 	mov.b	#0,	&0x1a8b	;r3 As==00
    5dd6:	5f 43       	mov.b	#1,	r15	;r3 As==01
    5dd8:	b0 12 70 46 	call	#0x4670	
    5ddc:	c2 43 6a 17 	mov.b	#0,	&0x176a	;r3 As==00
    5de0:	4a 93       	tst.b	r10		
    5de2:	5c 20       	jnz	$+186    	;abs 0x5e9c
    5de4:	0f 48       	mov	r8,	r15	
    5de6:	1f 82 ec 1a 	sub	&0x1aec,r15	
    5dea:	3f 90 0a 00 	cmp	#10,	r15	;#0x000a
    5dee:	56 2c       	jc	$+174    	;abs 0x5e9c
    5df0:	5f 42 21 1c 	mov.b	&0x1c21,r15	
    5df4:	4f 93       	tst.b	r15		
    5df6:	03 24       	jz	$+8      	;abs 0x5dfe
    5df8:	7f 53       	add.b	#-1,	r15	;r3 As==11
    5dfa:	c2 4f 21 1c 	mov.b	r15,	&0x1c21	
    5dfe:	1f 42 ce 1a 	mov	&0x1ace,r15	
    5e02:	0f 93       	tst	r15		
    5e04:	4b 24       	jz	$+152    	;abs 0x5e9c
    5e06:	cf 43 2d 00 	mov.b	#0,	45(r15)	;r3 As==00, 0x002d(r15)
    5e0a:	cf 43 31 00 	mov.b	#0,	49(r15)	;r3 As==00, 0x0031(r15)
    5e0e:	cf 43 30 00 	mov.b	#0,	48(r15)	;r3 As==00, 0x0030(r15)
    5e12:	cf 43 2f 00 	mov.b	#0,	47(r15)	;r3 As==00, 0x002f(r15)
    5e16:	ff 40 80 ff 2e 00 	mov.b	#-128,	46(r15)	;#0xff80, 0x002e(r15)
    5e1c:	3f 3c       	jmp	$+128    	;abs 0x5e9c
    5e1e:	1f 42 86 01 	mov	&0x0186,r15	
    5e22:	8f 10       	swpb	r15		
    5e24:	5f f3       	and.b	#1,	r15	;r3 As==01
    5e26:	03 24       	jz	$+8      	;abs 0x5e2e
    5e28:	1f 42 96 01 	mov	&0x0196,r15	
    5e2c:	37 3c       	jmp	$+112    	;abs 0x5e9c
    5e2e:	b2 f0 ef ff 86 01 	and	#-17,	&0x0186	;#0xffef
    5e34:	82 93 86 1a 	tst	&0x1a86	
    5e38:	08 20       	jnz	$+18     	;abs 0x5e4a
    5e3a:	82 93 88 1a 	tst	&0x1a88	
    5e3e:	05 20       	jnz	$+12     	;abs 0x5e4a
    5e40:	7f 40 09 00 	mov.b	#9,	r15	;#0x0009
    5e44:	b0 12 4a 4b 	call	#0x4b4a	
    5e48:	29 3c       	jmp	$+84     	;abs 0x5e9c
    5e4a:	b0 12 f4 51 	call	#0x51f4	
    5e4e:	26 3c       	jmp	$+78     	;abs 0x5e9c
    5e50:	1f 42 88 01 	mov	&0x0188,r15	
    5e54:	8f 10       	swpb	r15		
    5e56:	5f f3       	and.b	#1,	r15	;r3 As==01
    5e58:	21 24       	jz	$+68     	;abs 0x5e9c
    5e5a:	1f 42 98 01 	mov	&0x0198,r15	
    5e5e:	1e 3c       	jmp	$+62     	;abs 0x5e9c
    5e60:	1f 42 8a 01 	mov	&0x018a,r15	
    5e64:	8f 10       	swpb	r15		
    5e66:	5f f3       	and.b	#1,	r15	;r3 As==01
    5e68:	19 24       	jz	$+52     	;abs 0x5e9c
    5e6a:	1f 42 9a 01 	mov	&0x019a,r15	
    5e6e:	16 3c       	jmp	$+46     	;abs 0x5e9c
    5e70:	1f 42 8c 01 	mov	&0x018c,r15	
    5e74:	8f 10       	swpb	r15		
    5e76:	5f f3       	and.b	#1,	r15	;r3 As==01
    5e78:	11 24       	jz	$+36     	;abs 0x5e9c
    5e7a:	1f 42 9c 01 	mov	&0x019c,r15	
    5e7e:	0e 3c       	jmp	$+30     	;abs 0x5e9c
    5e80:	1f 42 8e 01 	mov	&0x018e,r15	
    5e84:	8f 10       	swpb	r15		
    5e86:	5f f3       	and.b	#1,	r15	;r3 As==01
    5e88:	09 24       	jz	$+20     	;abs 0x5e9c
    5e8a:	1f 42 9e 01 	mov	&0x019e,r15	
    5e8e:	06 3c       	jmp	$+14     	;abs 0x5e9c
    5e90:	92 53 d6 1a 	inc	&0x1ad6	
    5e94:	82 63 d8 1a 	adc	&0x1ad8	
    5e98:	92 53 36 1b 	inc	&0x1b36	
    5e9c:	35 41       	pop	r5		
    5e9e:	36 41       	pop	r6		
    5ea0:	37 41       	pop	r7		
    5ea2:	38 41       	pop	r8		
    5ea4:	39 41       	pop	r9		
    5ea6:	3a 41       	pop	r10		
    5ea8:	3b 41       	pop	r11		
    5eaa:	30 41       	ret			

00005eac <CC2420TinyosNetworkP__ActiveSend__send.isra.137>:
    5eac:	0b 12       	push	r11		
    5eae:	0a 12       	push	r10		
    5eb0:	0b 4f       	mov	r15,	r11	
    5eb2:	b0 12 3a 4a 	call	#0x4a3a	
    5eb6:	4a 4f       	mov.b	r15,	r10	
    5eb8:	0f 4b       	mov	r11,	r15	
    5eba:	b0 12 ca 46 	call	#0x46ca	
    5ebe:	ff 40 3f 00 00 00 	mov.b	#63,	0(r15)	;#0x003f, 0x0000(r15)
    5ec4:	4f 4a       	mov.b	r10,	r15	
    5ec6:	b0 12 4c 4a 	call	#0x4a4c	
    5eca:	82 43 e0 20 	mov	#0,	&0x20e0	;r3 As==00
    5ece:	6f 43       	mov.b	#2,	r15	;r3 As==10
    5ed0:	b0 12 80 55 	call	#0x5580	
    5ed4:	4f 93       	tst.b	r15		
    5ed6:	6e 20       	jnz	$+222    	;abs 0x5fb4
    5ed8:	5f 42 c1 1b 	mov.b	&0x1bc1,r15	
    5edc:	4e 4f       	mov.b	r15,	r14	
    5ede:	5e 53       	inc.b	r14		
    5ee0:	c2 4e c1 1b 	mov.b	r14,	&0x1bc1	
    5ee4:	cb 4f 03 00 	mov.b	r15,	3(r11)	;0x0003(r11)
    5ee8:	b0 12 3a 4a 	call	#0x4a3a	
    5eec:	4a 4f       	mov.b	r15,	r10	
    5eee:	6f 43       	mov.b	#2,	r15	;r3 As==10
    5ef0:	b0 12 1a 4b 	call	#0x4b1a	
    5ef4:	4f 93       	tst.b	r15		
    5ef6:	0b 20       	jnz	$+24     	;abs 0x5f0e
    5ef8:	4f 4a       	mov.b	r10,	r15	
    5efa:	b0 12 4c 4a 	call	#0x4a4c	
    5efe:	b0 12 3a 4a 	call	#0x4a3a	
    5f02:	c2 43 a8 1b 	mov.b	#0,	&0x1ba8	;r3 As==00
    5f06:	b0 12 4c 4a 	call	#0x4a4c	
    5f0a:	5f 43       	mov.b	#1,	r15	;r3 As==01
    5f0c:	55 3c       	jmp	$+172    	;abs 0x5fb8
    5f0e:	6f 42       	mov.b	#4,	r15	;r2 As==10
    5f10:	b0 12 64 51 	call	#0x5164	
    5f14:	82 4b f8 1a 	mov	r11,	&0x1af8	
    5f18:	4f 4a       	mov.b	r10,	r15	
    5f1a:	b0 12 4c 4a 	call	#0x4a4c	
    5f1e:	5f 4b 02 00 	mov.b	2(r11),	r15	;0x0002(r11)
    5f22:	8f 10       	swpb	r15		
    5f24:	5e 4b 01 00 	mov.b	1(r11),	r14	;0x0001(r11)
    5f28:	0f de       	bis	r14,	r15	
    5f2a:	3f f0 20 cc 	and	#-13280,r15	;#0xcc20
    5f2e:	4e 4f       	mov.b	r15,	r14	
    5f30:	3e d0 41 00 	bis	#65,	r14	;#0x0041
    5f34:	8f 10       	swpb	r15		
    5f36:	4f 4f       	mov.b	r15,	r15	
    5f38:	8f 10       	swpb	r15		
    5f3a:	0e df       	bis	r15,	r14	
    5f3c:	cb 4e 01 00 	mov.b	r14,	1(r11)	;0x0001(r11)
    5f40:	8e 10       	swpb	r14		
    5f42:	cb 4e 02 00 	mov.b	r14,	2(r11)	;0x0002(r11)
    5f46:	cb 43 2c 00 	mov.b	#0,	44(r11)	;r3 As==00, 0x002c(r11)
    5f4a:	cb 43 28 00 	mov.b	#0,	40(r11)	;r3 As==00, 0x0028(r11)
    5f4e:	cb 43 29 00 	mov.b	#0,	41(r11)	;r3 As==00, 0x0029(r11)
    5f52:	cb 43 31 00 	mov.b	#0,	49(r11)	;r3 As==00, 0x0031(r11)
    5f56:	cb 43 30 00 	mov.b	#0,	48(r11)	;r3 As==00, 0x0030(r11)
    5f5a:	cb 43 2f 00 	mov.b	#0,	47(r11)	;r3 As==00, 0x002f(r11)
    5f5e:	fb 40 80 ff 2e 00 	mov.b	#-128,	46(r11)	;#0xff80, 0x002e(r11)
    5f64:	d2 43 aa 1b 	mov.b	#1,	&0x1baa	;r3 As==01
    5f68:	1b 42 f8 1a 	mov	&0x1af8,r11	
    5f6c:	b0 12 3a 4a 	call	#0x4a3a	
    5f70:	1e 42 6c 17 	mov	&0x176c,r14	
    5f74:	3e 92       	cmp	#8,	r14	;r2 As==11
    5f76:	02 24       	jz	$+6      	;abs 0x5f7c
    5f78:	1e 93       	cmp	#1,	r14	;r3 As==01
    5f7a:	03 24       	jz	$+8      	;abs 0x5f82
    5f7c:	b0 12 4c 4a 	call	#0x4a4c	
    5f80:	14 3c       	jmp	$+42     	;abs 0x5faa
    5f82:	a2 43 6c 17 	mov	#2,	&0x176c	;r3 As==10
    5f86:	d2 43 26 21 	mov.b	#1,	&0x2126	;r3 As==01
    5f8a:	82 4b ce 1a 	mov	r11,	&0x1ace	
    5f8e:	c2 43 92 17 	mov.b	#0,	&0x1792	;r3 As==00
    5f92:	b0 12 4c 4a 	call	#0x4a4c	
    5f96:	7f 40 03 00 	mov.b	#3,	r15	;#0x0003
    5f9a:	b0 12 ce 56 	call	#0x56ce	
    5f9e:	4f 93       	tst.b	r15		
    5fa0:	06 24       	jz	$+14     	;abs 0x5fae
    5fa2:	7f 40 03 00 	mov.b	#3,	r15	;#0x0003
    5fa6:	b0 12 a8 55 	call	#0x55a8	
    5faa:	4f 43       	clr.b	r15		
    5fac:	05 3c       	jmp	$+12     	;abs 0x5fb8
    5fae:	b0 12 0a 53 	call	#0x530a	
    5fb2:	fb 3f       	jmp	$-8      	;abs 0x5faa
    5fb4:	7f 40 05 00 	mov.b	#5,	r15	;#0x0005
    5fb8:	3a 41       	pop	r10		
    5fba:	3b 41       	pop	r11		
    5fbc:	30 41       	ret			

00005fbe <CC2420ActiveMessageP__AMSend__send>:
    5fbe:	0b 12       	push	r11		
    5fc0:	0a 12       	push	r10		
    5fc2:	09 12       	push	r9		
    5fc4:	0b 4d       	mov	r13,	r11	
    5fc6:	4a 4c       	mov.b	r12,	r10	
    5fc8:	7c 90 1d 00 	cmp.b	#29,	r12	;#0x001d
    5fcc:	4f 2c       	jc	$+160    	;abs 0x606c
    5fce:	cd 4f 0b 00 	mov.b	r15,	11(r13)	;0x000b(r13)
    5fd2:	cd 4e 06 00 	mov.b	r14,	6(r13)	;0x0006(r13)
    5fd6:	8e 10       	swpb	r14		
    5fd8:	cd 4e 07 00 	mov.b	r14,	7(r13)	;0x0007(r13)
    5fdc:	b0 12 3a 4a 	call	#0x4a3a	
    5fe0:	19 42 c8 1a 	mov	&0x1ac8,r9	
    5fe4:	b0 12 4c 4a 	call	#0x4a4c	
    5fe8:	cb 49 04 00 	mov.b	r9,	4(r11)	;0x0004(r11)
    5fec:	89 10       	swpb	r9		
    5fee:	cb 49 05 00 	mov.b	r9,	5(r11)	;0x0005(r11)
    5ff2:	b0 12 3a 4a 	call	#0x4a3a	
    5ff6:	19 42 0e 11 	mov	&0x110e,r9	
    5ffa:	b0 12 4c 4a 	call	#0x4a4c	
    5ffe:	cb 49 08 00 	mov.b	r9,	8(r11)	;0x0008(r11)
    6002:	89 10       	swpb	r9		
    6004:	cb 49 09 00 	mov.b	r9,	9(r11)	;0x0009(r11)
    6008:	5f 4b 01 00 	mov.b	1(r11),	r15	;0x0001(r11)
    600c:	3f d0 40 88 	bis	#-30656,r15	;#0x8840
    6010:	5e 4b 02 00 	mov.b	2(r11),	r14	;0x0002(r11)
    6014:	8e 10       	swpb	r14		
    6016:	0f de       	bis	r14,	r15	
    6018:	cb 4f 01 00 	mov.b	r15,	1(r11)	;0x0001(r11)
    601c:	8f 10       	swpb	r15		
    601e:	cb 4f 02 00 	mov.b	r15,	2(r11)	;0x0002(r11)
    6022:	4f 4a       	mov.b	r10,	r15	
    6024:	7f 50 0d 00 	add.b	#13,	r15	;#0x000d
    6028:	cb 4f 00 00 	mov.b	r15,	0(r11)	;0x0000(r11)
    602c:	c2 93 0c 11 	tst.b	&0x110c	
    6030:	08 24       	jz	$+18     	;abs 0x6042
    6032:	c2 43 0c 11 	mov.b	#0,	&0x110c	;r3 As==00
    6036:	0f 4b       	mov	r11,	r15	
    6038:	b0 12 ac 5e 	call	#0x5eac	
    603c:	4f 93       	tst.b	r15		
    603e:	0f 20       	jnz	$+32     	;abs 0x605e
    6040:	19 3c       	jmp	$+52     	;abs 0x6074
    6042:	c2 4a f6 1a 	mov.b	r10,	&0x1af6	
    6046:	c2 43 f7 1a 	mov.b	#0,	&0x1af7	;r3 As==00
    604a:	82 4b 66 17 	mov	r11,	&0x1766	
    604e:	7f 40 0b 00 	mov.b	#11,	r15	;#0x000b
    6052:	b0 12 4a 4b 	call	#0x4b4a	
    6056:	c2 93 0c 11 	tst.b	&0x110c	
    605a:	0a 24       	jz	$+22     	;abs 0x6070
    605c:	03 3c       	jmp	$+8      	;abs 0x6064
    605e:	f2 43 0c 11 	mov.b	#-1,	&0x110c	;r3 As==11
    6062:	08 3c       	jmp	$+18     	;abs 0x6074
    6064:	c2 43 d4 1a 	mov.b	#0,	&0x1ad4	;r3 As==00
    6068:	4f 43       	clr.b	r15		
    606a:	04 3c       	jmp	$+10     	;abs 0x6074
    606c:	6f 43       	mov.b	#2,	r15	;r3 As==10
    606e:	02 3c       	jmp	$+6      	;abs 0x6074
    6070:	7f 40 09 00 	mov.b	#9,	r15	;#0x0009
    6074:	39 41       	pop	r9		
    6076:	3a 41       	pop	r10		
    6078:	3b 41       	pop	r11		
    607a:	30 41       	ret			

0000607c <AMQueueImplP__0__Send__send>:
    607c:	0b 12       	push	r11		
    607e:	0a 12       	push	r10		
    6080:	09 12       	push	r9		
    6082:	08 12       	push	r8		
    6084:	7f 90 03 00 	cmp.b	#3,	r15	;#0x0003
    6088:	2a 2c       	jc	$+86     	;abs 0x60de
    608a:	4b 4f       	mov.b	r15,	r11	
    608c:	0b 5b       	rla	r11		
    608e:	3b 50 30 1b 	add	#6960,	r11	;#0x1b30
    6092:	8b 93 00 00 	tst	0(r11)		;0x0000(r11)
    6096:	25 20       	jnz	$+76     	;abs 0x60e2
    6098:	8b 4e 00 00 	mov	r14,	0(r11)	;0x0000(r11)
    609c:	4c 4d       	mov.b	r13,	r12	
    609e:	7c 50 0d 00 	add.b	#13,	r12	;#0x000d
    60a2:	ce 4c 00 00 	mov.b	r12,	0(r14)	;0x0000(r14)
    60a6:	f2 90 03 00 09 11 	cmp.b	#3,	&0x1109	;#0x0003
    60ac:	1d 28       	jnc	$+60     	;abs 0x60e8
    60ae:	59 4e 0b 00 	mov.b	11(r14),r9	;0x000b(r14)
    60b2:	5a 4e 07 00 	mov.b	7(r14),	r10	;0x0007(r14)
    60b6:	8a 10       	swpb	r10		
    60b8:	58 4e 06 00 	mov.b	6(r14),	r8	;0x0006(r14)
    60bc:	c2 4f 09 11 	mov.b	r15,	&0x1109	
    60c0:	4c 4d       	mov.b	r13,	r12	
    60c2:	0d 4e       	mov	r14,	r13	
    60c4:	0e 4a       	mov	r10,	r14	
    60c6:	0e d8       	bis	r8,	r14	
    60c8:	4f 49       	mov.b	r9,	r15	
    60ca:	b0 12 be 5f 	call	#0x5fbe	
    60ce:	4f 93       	tst.b	r15		
    60d0:	0c 24       	jz	$+26     	;abs 0x60ea
    60d2:	f2 40 03 00 09 11 	mov.b	#3,	&0x1109	;#0x0003
    60d8:	8b 43 00 00 	mov	#0,	0(r11)	;r3 As==00, 0x0000(r11)
    60dc:	06 3c       	jmp	$+14     	;abs 0x60ea
    60de:	5f 43       	mov.b	#1,	r15	;r3 As==01
    60e0:	04 3c       	jmp	$+10     	;abs 0x60ea
    60e2:	7f 40 05 00 	mov.b	#5,	r15	;#0x0005
    60e6:	01 3c       	jmp	$+4      	;abs 0x60ea
    60e8:	4f 43       	clr.b	r15		
    60ea:	38 41       	pop	r8		
    60ec:	39 41       	pop	r9		
    60ee:	3a 41       	pop	r10		
    60f0:	3b 41       	pop	r11		
    60f2:	30 41       	ret			

000060f4 <SenderC__DQICalculate>:
    60f4:	0b 12       	push	r11		
    60f6:	0a 12       	push	r10		
    60f8:	09 12       	push	r9		
    60fa:	08 12       	push	r8		
    60fc:	07 12       	push	r7		
    60fe:	06 12       	push	r6		
    6100:	05 12       	push	r5		
    6102:	04 12       	push	r4		
    6104:	31 50 f4 ff 	add	#-12,	r1	;#0xfff4
    6108:	82 43 dc 18 	mov	#0,	&0x18dc	;r3 As==00
    610c:	82 43 de 18 	mov	#0,	&0x18de	;r3 As==00
    6110:	82 43 e0 18 	mov	#0,	&0x18e0	;r3 As==00
    6114:	82 43 e2 18 	mov	#0,	&0x18e2	;r3 As==00
    6118:	82 43 e4 18 	mov	#0,	&0x18e4	;r3 As==00
    611c:	b1 40 dc 18 0a 00 	mov	#6364,	10(r1)	;#0x18dc, 0x000a(r1)
    6122:	91 41 0a 00 06 00 	mov	10(r1),	6(r1)	;0x000a(r1), 0x0006(r1)
    6128:	c1 43 02 00 	mov.b	#0,	2(r1)	;r3 As==00, 0x0002(r1)
    612c:	05 43       	clr	r5		
    612e:	b3 3c       	jmp	$+360    	;abs 0x6296
    6130:	1d 41 04 00 	mov	4(r1),	r13	;0x0004(r1)
    6134:	cd 93 00 00 	tst.b	0(r13)		;0x0000(r13)
    6138:	9d 20       	jnz	$+316    	;abs 0x6274
    613a:	25 91       	cmp	@r1,	r5	
    613c:	9a 24       	jz	$+310    	;abs 0x6272
    613e:	0f 45       	mov	r5,	r15	
    6140:	1f 53       	inc	r15		
    6142:	2f 91       	cmp	@r1,	r15	
    6144:	96 24       	jz	$+302    	;abs 0x6272
    6146:	c1 45 03 00 	mov.b	r5,	3(r1)	;0x0003(r1)
    614a:	06 45       	mov	r5,	r6	
    614c:	81 43 08 00 	mov	#0,	8(r1)	;r3 As==00, 0x0008(r1)
    6150:	17 41 06 00 	mov	6(r1),	r7	;0x0006(r1)
    6154:	86 3c       	jmp	$+270    	;abs 0x6262
    6156:	0f 49       	mov	r9,	r15	
    6158:	0f 5f       	rla	r15		
    615a:	0f 59       	add	r9,	r15	
    615c:	0f 5f       	rla	r15		
    615e:	d1 9f 24 1c 02 00 	cmp.b	7204(r15),2(r1)	;0x1c24(r15), 0x0002(r1)
    6164:	7c 28       	jnc	$+250    	;abs 0x625e
    6166:	06 99       	cmp	r9,	r6	
    6168:	79 24       	jz	$+244    	;abs 0x625c
    616a:	0e 46       	mov	r6,	r14	
    616c:	1e 53       	inc	r14		
    616e:	0e 99       	cmp	r9,	r14	
    6170:	75 24       	jz	$+236    	;abs 0x625c
    6172:	44 46       	mov.b	r6,	r4	
    6174:	54 53       	inc.b	r4		
    6176:	08 43       	clr	r8		
    6178:	6b 3c       	jmp	$+216    	;abs 0x6250
    617a:	0f 46       	mov	r6,	r15	
    617c:	0f 5f       	rla	r15		
    617e:	0f 56       	add	r6,	r15	
    6180:	0f 5f       	rla	r15		
    6182:	3f 50 24 1c 	add	#7204,	r15	;#0x1c24
    6186:	1c 4f 02 00 	mov	2(r15),	r12	;0x0002(r15)
    618a:	0e 4d       	mov	r13,	r14	
    618c:	0e 5e       	rla	r14		
    618e:	0e 5d       	add	r13,	r14	
    6190:	0e 5e       	rla	r14		
    6192:	3e 50 24 1c 	add	#7204,	r14	;#0x1c24
    6196:	0a 4c       	mov	r12,	r10	
    6198:	1a 8e 02 00 	sub	2(r14),	r10	;0x0002(r14)
    619c:	0b 4d       	mov	r13,	r11	
    619e:	0b 86       	sub	r6,	r11	
    61a0:	0d 49       	mov	r9,	r13	
    61a2:	0d 5d       	rla	r13		
    61a4:	0d 59       	add	r9,	r13	
    61a6:	0d 5d       	rla	r13		
    61a8:	3d 50 24 1c 	add	#7204,	r13	;#0x1c24
    61ac:	0e 49       	mov	r9,	r14	
    61ae:	0e 86       	sub	r6,	r14	
    61b0:	1f 4d 02 00 	mov	2(r13),	r15	;0x0002(r13)
    61b4:	0f 8c       	sub	r12,	r15	
    61b6:	b0 12 3c 7b 	call	#0x7b3c	
    61ba:	02 12       	push	r2		
    61bc:	32 c2       	dint			
    61be:	03 43       	nop			
    61c0:	82 4b 32 01 	mov	r11,	&0x0132	
    61c4:	82 4f 38 01 	mov	r15,	&0x0138	
    61c8:	1f 42 3a 01 	mov	&0x013a,r15	
    61cc:	32 41       	pop	r2		
    61ce:	0e 4a       	mov	r10,	r14	
    61d0:	0e 5f       	add	r15,	r14	
    61d2:	0f 43       	clr	r15		
    61d4:	b0 12 e0 83 	call	#0x83e0	
    61d8:	b0 12 50 83 	call	#0x8350	
    61dc:	0e 93       	tst	r14		
    61de:	02 34       	jge	$+6      	;abs 0x61e4
    61e0:	3e e3       	inv	r14		
    61e2:	1e 53       	inc	r14		
    61e4:	0f 4e       	mov	r14,	r15	
    61e6:	8f 10       	swpb	r15		
    61e8:	8f 11       	sxt	r15		
    61ea:	8f 10       	swpb	r15		
    61ec:	8f 11       	sxt	r15		
    61ee:	b0 12 aa 82 	call	#0x82aa	
    61f2:	0c 43       	clr	r12		
    61f4:	3d 40 7a 44 	mov	#17530,	r13	;#0x447a
    61f8:	b0 12 e6 7e 	call	#0x7ee6	
    61fc:	0a 4e       	mov	r14,	r10	
    61fe:	0b 4f       	mov	r15,	r11	
    6200:	0f 45       	mov	r5,	r15	
    6202:	0f 5f       	rla	r15		
    6204:	0f 55       	add	r5,	r15	
    6206:	0f 5f       	rla	r15		
    6208:	3f 50 24 1c 	add	#7204,	r15	;#0x1c24
    620c:	1d 41 04 00 	mov	4(r1),	r13	;0x0004(r1)
    6210:	1e 4d 02 00 	mov	2(r13),	r14	;0x0002(r13)
    6214:	1e 8f 02 00 	sub	2(r15),	r14	;0x0002(r15)
    6218:	0f 43       	clr	r15		
    621a:	b0 12 e0 83 	call	#0x83e0	
    621e:	b0 12 50 83 	call	#0x8350	
    6222:	0d 4e       	mov	r14,	r13	
    6224:	0e 93       	tst	r14		
    6226:	02 34       	jge	$+6      	;abs 0x622c
    6228:	3d e3       	inv	r13		
    622a:	1d 53       	inc	r13		
    622c:	0f 4d       	mov	r13,	r15	
    622e:	8f 10       	swpb	r15		
    6230:	8f 11       	sxt	r15		
    6232:	8f 10       	swpb	r15		
    6234:	8f 11       	sxt	r15		
    6236:	0e 4d       	mov	r13,	r14	
    6238:	b0 12 aa 82 	call	#0x82aa	
    623c:	0c 4e       	mov	r14,	r12	
    623e:	0d 4f       	mov	r15,	r13	
    6240:	0e 4a       	mov	r10,	r14	
    6242:	0f 4b       	mov	r11,	r15	
    6244:	b0 12 0a 81 	call	#0x810a	
    6248:	b0 12 76 7b 	call	#0x7b76	
    624c:	87 5e 00 00 	add	r14,	0(r7)	;0x0000(r7)
    6250:	4f 44       	mov.b	r4,	r15	
    6252:	4f 58       	add.b	r8,	r15	
    6254:	4d 4f       	mov.b	r15,	r13	
    6256:	18 53       	inc	r8		
    6258:	0d 99       	cmp	r9,	r13	
    625a:	8f 2b       	jnc	$-224    	;abs 0x617a
    625c:	06 49       	mov	r9,	r6	
    625e:	91 53 08 00 	inc	8(r1)		;0x0008(r1)
    6262:	5f 41 03 00 	mov.b	3(r1),	r15	;0x0003(r1)
    6266:	5f 51 08 00 	add.b	8(r1),	r15	;0x0008(r1)
    626a:	49 4f       	mov.b	r15,	r9	
    626c:	81 99 00 00 	cmp	r9,	0(r1)	;0x0000(r1)
    6270:	72 2f       	jc	$-282    	;abs 0x6156
    6272:	25 41       	mov	@r1,	r5	
    6274:	91 53 00 00 	inc	0(r1)		;0x0000(r1)
    6278:	b1 50 06 00 04 00 	add	#6,	4(r1)	;#0x0006, 0x0004(r1)
    627e:	b1 90 c8 00 00 00 	cmp	#200,	0(r1)	;#0x00c8, 0x0000(r1)
    6284:	55 23       	jnz	$-340    	;abs 0x6130
    6286:	d1 53 02 00 	inc.b	2(r1)		;0x0002(r1)
    628a:	a1 53 06 00 	incd	6(r1)		;0x0006(r1)
    628e:	f1 90 05 00 02 00 	cmp.b	#5,	2(r1)	;#0x0005, 0x0002(r1)
    6294:	06 24       	jz	$+14     	;abs 0x62a2
    6296:	b1 40 24 1c 04 00 	mov	#7204,	4(r1)	;#0x1c24, 0x0004(r1)
    629c:	81 43 00 00 	mov	#0,	0(r1)	;r3 As==00, 0x0000(r1)
    62a0:	47 3f       	jmp	$-368    	;abs 0x6130
    62a2:	c2 93 c6 1a 	tst.b	&0x1ac6	
    62a6:	f0 20       	jnz	$+482    	;abs 0x6488
    62a8:	55 42 eb 20 	mov.b	&0x20eb,r5	
    62ac:	0e 43       	clr	r14		
    62ae:	0f 43       	clr	r15		
    62b0:	55 9e 24 1c 	cmp.b	7204(r14),r5	;0x1c24(r14)
    62b4:	01 28       	jnc	$+4      	;abs 0x62b8
    62b6:	1f 53       	inc	r15		
    62b8:	3e 50 06 00 	add	#6,	r14	;#0x0006
    62bc:	3e 90 b0 04 	cmp	#1200,	r14	;#0x04b0
    62c0:	f7 23       	jnz	$-16     	;abs 0x62b0
    62c2:	82 4f 8c 1b 	mov	r15,	&0x1b8c	
    62c6:	0d 43       	clr	r13		
    62c8:	1c 41 0a 00 	mov	10(r1),	r12	;0x000a(r1)
    62cc:	3b 4c       	mov	@r12+,	r11	
    62ce:	0e 4d       	mov	r13,	r14	
    62d0:	3e 50 05 00 	add	#5,	r14	;#0x0005
    62d4:	0e 5e       	rla	r14		
    62d6:	3e 50 3a 1a 	add	#6714,	r14	;#0x1a3a
    62da:	ce 4b 0e 00 	mov.b	r11,	14(r14)	;0x000e(r14)
    62de:	3e 50 0d 00 	add	#13,	r14	;#0x000d
    62e2:	8b 10       	swpb	r11		
    62e4:	ce 4b 00 00 	mov.b	r11,	0(r14)	;0x0000(r14)
    62e8:	1d 53       	inc	r13		
    62ea:	3d 90 05 00 	cmp	#5,	r13	;#0x0005
    62ee:	ee 23       	jnz	$-34     	;abs 0x62cc
    62f0:	1e 42 62 17 	mov	&0x1762,r14	
    62f4:	c1 4e 00 00 	mov.b	r14,	0(r1)	;0x0000(r1)
    62f8:	c2 4e 47 1a 	mov.b	r14,	&0x1a47	
    62fc:	8e 10       	swpb	r14		
    62fe:	4e 4e       	mov.b	r14,	r14	
    6300:	4a 4e       	mov.b	r14,	r10	
    6302:	c2 4e 46 1a 	mov.b	r14,	&0x1a46	
    6306:	1e 42 90 17 	mov	&0x1790,r14	
    630a:	0d 4e       	mov	r14,	r13	
    630c:	1d 53       	inc	r13		
    630e:	82 4d 90 17 	mov	r13,	&0x1790	
    6312:	c1 4e 02 00 	mov.b	r14,	2(r1)	;0x0002(r1)
    6316:	c2 4e 49 1a 	mov.b	r14,	&0x1a49	
    631a:	8e 10       	swpb	r14		
    631c:	4e 4e       	mov.b	r14,	r14	
    631e:	4b 4e       	mov.b	r14,	r11	
    6320:	c2 4e 48 1a 	mov.b	r14,	&0x1a48	
    6324:	c1 4f 04 00 	mov.b	r15,	4(r1)	;0x0004(r1)
    6328:	c2 4f 4b 1a 	mov.b	r15,	&0x1a4b	
    632c:	8f 10       	swpb	r15		
    632e:	4f 4f       	mov.b	r15,	r15	
    6330:	c1 4f 06 00 	mov.b	r15,	6(r1)	;0x0006(r1)
    6334:	c2 4f 4a 1a 	mov.b	r15,	&0x1a4a	
    6338:	1f 42 e8 18 	mov	&0x18e8,r15	
    633c:	46 4f       	mov.b	r15,	r6	
    633e:	c2 4f 4d 1a 	mov.b	r15,	&0x1a4d	
    6342:	8f 10       	swpb	r15		
    6344:	4f 4f       	mov.b	r15,	r15	
    6346:	c1 4f 08 00 	mov.b	r15,	8(r1)	;0x0008(r1)
    634a:	c2 4f 4c 1a 	mov.b	r15,	&0x1a4c	
    634e:	1f 42 20 1a 	mov	&0x1a20,r15	
    6352:	44 4f       	mov.b	r15,	r4	
    6354:	c2 4f 4f 1a 	mov.b	r15,	&0x1a4f	
    6358:	8f 10       	swpb	r15		
    635a:	4f 4f       	mov.b	r15,	r15	
    635c:	48 4f       	mov.b	r15,	r8	
    635e:	c2 4f 4e 1a 	mov.b	r15,	&0x1a4e	
    6362:	c2 45 50 1a 	mov.b	r5,	&0x1a50	
    6366:	3f 40 15 00 	mov	#21,	r15	;#0x0015
    636a:	b0 12 5e 8a 	call	#0x8a5e	
    636e:	07 4f       	mov	r15,	r7	
    6370:	0f 43       	clr	r15		
    6372:	09 4f       	mov	r15,	r9	
    6374:	39 50 05 00 	add	#5,	r9	;#0x0005
    6378:	09 59       	rla	r9		
    637a:	0c 49       	mov	r9,	r12	
    637c:	3c 50 3a 1a 	add	#6714,	r12	;#0x1a3a
    6380:	3c 50 0d 00 	add	#13,	r12	;#0x000d
    6384:	6e 4c       	mov.b	@r12,	r14	
    6386:	8e 10       	swpb	r14		
    6388:	5d 4c 01 00 	mov.b	1(r12),	r13	;0x0001(r12)
    638c:	0e dd       	bis	r13,	r14	
    638e:	0d 47       	mov	r7,	r13	
    6390:	0d 59       	add	r9,	r13	
    6392:	cd 4e 02 00 	mov.b	r14,	2(r13)	;0x0002(r13)
    6396:	1d 53       	inc	r13		
    6398:	8e 10       	swpb	r14		
    639a:	cd 4e 00 00 	mov.b	r14,	0(r13)	;0x0000(r13)
    639e:	1f 53       	inc	r15		
    63a0:	3f 90 05 00 	cmp	#5,	r15	;#0x0005
    63a4:	e6 23       	jnz	$-50     	;abs 0x6372
    63a6:	4a 4a       	mov.b	r10,	r10	
    63a8:	8a 10       	swpb	r10		
    63aa:	69 41       	mov.b	@r1,	r9	
    63ac:	0a d9       	bis	r9,	r10	
    63ae:	c7 4a 01 00 	mov.b	r10,	1(r7)	;0x0001(r7)
    63b2:	8a 10       	swpb	r10		
    63b4:	c7 4a 00 00 	mov.b	r10,	0(r7)	;0x0000(r7)
    63b8:	4b 4b       	mov.b	r11,	r11	
    63ba:	8b 10       	swpb	r11		
    63bc:	5a 41 02 00 	mov.b	2(r1),	r10	;0x0002(r1)
    63c0:	0b da       	bis	r10,	r11	
    63c2:	c7 4b 03 00 	mov.b	r11,	3(r7)	;0x0003(r7)
    63c6:	8b 10       	swpb	r11		
    63c8:	c7 4b 02 00 	mov.b	r11,	2(r7)	;0x0002(r7)
    63cc:	5c 41 06 00 	mov.b	6(r1),	r12	;0x0006(r1)
    63d0:	8c 10       	swpb	r12		
    63d2:	5b 41 04 00 	mov.b	4(r1),	r11	;0x0004(r1)
    63d6:	0c db       	bis	r11,	r12	
    63d8:	c7 4c 05 00 	mov.b	r12,	5(r7)	;0x0005(r7)
    63dc:	8c 10       	swpb	r12		
    63de:	c7 4c 04 00 	mov.b	r12,	4(r7)	;0x0004(r7)
    63e2:	5d 41 08 00 	mov.b	8(r1),	r13	;0x0008(r1)
    63e6:	8d 10       	swpb	r13		
    63e8:	4c 46       	mov.b	r6,	r12	
    63ea:	0d dc       	bis	r12,	r13	
    63ec:	c7 4d 07 00 	mov.b	r13,	7(r7)	;0x0007(r7)
    63f0:	8d 10       	swpb	r13		
    63f2:	c7 4d 06 00 	mov.b	r13,	6(r7)	;0x0006(r7)
    63f6:	4e 48       	mov.b	r8,	r14	
    63f8:	8e 10       	swpb	r14		
    63fa:	4d 44       	mov.b	r4,	r13	
    63fc:	0e dd       	bis	r13,	r14	
    63fe:	c7 4e 09 00 	mov.b	r14,	9(r7)	;0x0009(r7)
    6402:	8e 10       	swpb	r14		
    6404:	c7 4e 08 00 	mov.b	r14,	8(r7)	;0x0008(r7)
    6408:	c7 45 0a 00 	mov.b	r5,	10(r7)	;0x000a(r7)
    640c:	b2 90 05 00 f4 1a 	cmp	#5,	&0x1af4	;#0x0005
    6412:	04 20       	jnz	$+10     	;abs 0x641c
    6414:	3f 40 f0 1a 	mov	#6896,	r15	;#0x1af0
    6418:	b0 12 d0 48 	call	#0x48d0	
    641c:	5b 42 48 1a 	mov.b	&0x1a48,r11	
    6420:	8b 10       	swpb	r11		
    6422:	5e 42 49 1a 	mov.b	&0x1a49,r14	
    6426:	0b de       	bis	r14,	r11	
    6428:	3f 42       	mov	#8,	r15	;r2 As==11
    642a:	b0 12 5e 8a 	call	#0x8a5e	
    642e:	8f 47 00 00 	mov	r7,	0(r15)	;0x0000(r15)
    6432:	8f 4b 02 00 	mov	r11,	2(r15)	;0x0002(r15)
    6436:	8f 43 04 00 	mov	#0,	4(r15)	;r3 As==00, 0x0004(r15)
    643a:	8f 43 06 00 	mov	#0,	6(r15)	;r3 As==00, 0x0006(r15)
    643e:	82 93 f0 1a 	tst	&0x1af0	
    6442:	05 20       	jnz	$+12     	;abs 0x644e
    6444:	82 4f f2 1a 	mov	r15,	&0x1af2	
    6448:	82 4f f0 1a 	mov	r15,	&0x1af0	
    644c:	06 3c       	jmp	$+14     	;abs 0x645a
    644e:	1e 42 f2 1a 	mov	&0x1af2,r14	
    6452:	8e 4f 06 00 	mov	r15,	6(r14)	;0x0006(r14)
    6456:	82 4f f2 1a 	mov	r15,	&0x1af2	
    645a:	92 53 f4 1a 	inc	&0x1af4	
    645e:	f2 43 40 1a 	mov.b	#-1,	&0x1a40	;r3 As==11
    6462:	f2 43 41 1a 	mov.b	#-1,	&0x1a41	;r3 As==11
    6466:	d2 43 45 1a 	mov.b	#1,	&0x1a45	;r3 As==01
    646a:	7d 40 15 00 	mov.b	#21,	r13	;#0x0015
    646e:	3e 40 3a 1a 	mov	#6714,	r14	;#0x1a3a
    6472:	5f 43       	mov.b	#1,	r15	;r3 As==01
    6474:	b0 12 7c 60 	call	#0x607c	
    6478:	4f 93       	tst.b	r15		
    647a:	04 20       	jnz	$+10     	;abs 0x6484
    647c:	d2 43 c6 1a 	mov.b	#1,	&0x1ac6	;r3 As==01
    6480:	b0 12 9c 53 	call	#0x539c	
    6484:	b0 12 10 47 	call	#0x4710	
    6488:	31 50 0c 00 	add	#12,	r1	;#0x000c
    648c:	34 41       	pop	r4		
    648e:	35 41       	pop	r5		
    6490:	36 41       	pop	r6		
    6492:	37 41       	pop	r7		
    6494:	38 41       	pop	r8		
    6496:	39 41       	pop	r9		
    6498:	3a 41       	pop	r10		
    649a:	3b 41       	pop	r11		
    649c:	30 41       	ret			

0000649e <VirtualizeTimerC__0__fireTimers>:
    649e:	0b 12       	push	r11		
    64a0:	0a 12       	push	r10		
    64a2:	09 12       	push	r9		
    64a4:	08 12       	push	r8		
    64a6:	07 12       	push	r7		
    64a8:	06 12       	push	r6		
    64aa:	05 12       	push	r5		
    64ac:	04 12       	push	r4		
    64ae:	31 50 e8 ff 	add	#-24,	r1	;#0xffe8
    64b2:	37 40 6e 1b 	mov	#7022,	r7	;#0x1b6e
    64b6:	56 42 76 1b 	mov.b	&0x1b76,r6	
    64ba:	66 b3       	bit.b	#2,	r6	;r3 As==10
    64bc:	12 24       	jz	$+38     	;abs 0x64e2
    64be:	1a 42 6e 1b 	mov	&0x1b6e,r10	
    64c2:	1b 42 70 1b 	mov	&0x1b70,r11	
    64c6:	1c 42 72 1b 	mov	&0x1b72,r12	
    64ca:	1d 42 74 1b 	mov	&0x1b74,r13	
    64ce:	08 4e       	mov	r14,	r8	
    64d0:	09 4f       	mov	r15,	r9	
    64d2:	08 8a       	sub	r10,	r8	
    64d4:	09 7b       	subc	r11,	r9	
    64d6:	09 9d       	cmp	r13,	r9	
    64d8:	04 28       	jnc	$+10     	;abs 0x64e2
    64da:	0d 99       	cmp	r9,	r13	
    64dc:	1f 28       	jnc	$+64     	;abs 0x651c
    64de:	08 9c       	cmp	r12,	r8	
    64e0:	1d 2c       	jc	$+60     	;abs 0x651c
    64e2:	37 40 78 1b 	mov	#7032,	r7	;#0x1b78
    64e6:	56 42 80 1b 	mov.b	&0x1b80,r6	
    64ea:	66 b3       	bit.b	#2,	r6	;r3 As==10
    64ec:	02 20       	jnz	$+6      	;abs 0x64f2
    64ee:	30 40 b8 6a 	br	#0x6ab8	
    64f2:	1a 42 78 1b 	mov	&0x1b78,r10	
    64f6:	1b 42 7a 1b 	mov	&0x1b7a,r11	
    64fa:	1c 42 7c 1b 	mov	&0x1b7c,r12	
    64fe:	1d 42 7e 1b 	mov	&0x1b7e,r13	
    6502:	0e 8a       	sub	r10,	r14	
    6504:	0f 7b       	subc	r11,	r15	
    6506:	0f 9d       	cmp	r13,	r15	
    6508:	02 2c       	jc	$+6      	;abs 0x650e
    650a:	30 40 b8 6a 	br	#0x6ab8	
    650e:	04 20       	jnz	$+10     	;abs 0x6518
    6510:	0e 9c       	cmp	r12,	r14	
    6512:	02 2c       	jc	$+6      	;abs 0x6518
    6514:	30 40 b8 6a 	br	#0x6ab8	
    6518:	1f 43       	mov	#1,	r15	;r3 As==01
    651a:	01 3c       	jmp	$+4      	;abs 0x651e
    651c:	0f 43       	clr	r15		
    651e:	56 f3       	and.b	#1,	r6	;r3 As==01
    6520:	04 24       	jz	$+10     	;abs 0x652a
    6522:	f7 f0 fd ff 08 00 	and.b	#-3,	8(r7)	;#0xfffd, 0x0008(r7)
    6528:	08 3c       	jmp	$+18     	;abs 0x653a
    652a:	08 4c       	mov	r12,	r8	
    652c:	09 4d       	mov	r13,	r9	
    652e:	08 5a       	add	r10,	r8	
    6530:	09 6b       	addc	r11,	r9	
    6532:	87 48 00 00 	mov	r8,	0(r7)	;0x0000(r7)
    6536:	87 49 02 00 	mov	r9,	2(r7)	;0x0002(r7)
    653a:	5f 93       	cmp.b	#1,	r15	;r3 As==01
    653c:	02 24       	jz	$+6      	;abs 0x6542
    653e:	30 40 b8 6a 	br	#0x6ab8	
    6542:	c2 93 ab 1b 	tst.b	&0x1bab	
    6546:	07 20       	jnz	$+16     	;abs 0x6556
    6548:	c2 93 20 1c 	tst.b	&0x1c20	
    654c:	04 20       	jnz	$+10     	;abs 0x6556
    654e:	82 43 28 21 	mov	#0,	&0x2128	;r3 As==00
    6552:	d2 43 ab 1b 	mov.b	#1,	&0x1bab	;r3 As==01
    6556:	91 42 d4 20 0e 00 	mov	&0x20d4,14(r1)	;0x000e(r1)
    655c:	3e 40 58 02 	mov	#600,	r14	;#0x0258
    6560:	1f 41 0e 00 	mov	14(r1),	r15	;0x000e(r1)
    6564:	b0 12 34 7b 	call	#0x7b34	
    6568:	0f 5f       	rla	r15		
    656a:	91 4f 16 11 12 00 	mov	4374(r15),18(r1)	;0x1116(r15), 0x0012(r1)
    6570:	91 42 fa 1a 10 00 	mov	&0x1afa,16(r1)	;0x0010(r1)
    6576:	92 41 10 00 ec 20 	mov	16(r1),	&0x20ec	;0x0010(r1)
    657c:	91 42 e4 20 0c 00 	mov	&0x20e4,12(r1)	;0x000c(r1)
    6582:	92 41 0c 00 fa 1a 	mov	12(r1),	&0x1afa	;0x000c(r1)
    6588:	19 42 ee 1a 	mov	&0x1aee,r9	
    658c:	82 49 e4 20 	mov	r9,	&0x20e4	
    6590:	18 42 ea 18 	mov	&0x18ea,r8	
    6594:	82 48 ee 1a 	mov	r8,	&0x1aee	
    6598:	92 41 12 00 ea 18 	mov	18(r1),	&0x18ea	;0x0012(r1)
    659e:	1e 41 0c 00 	mov	12(r1),	r14	;0x000c(r1)
    65a2:	1e 81 10 00 	sub	16(r1),	r14	;0x0010(r1)
    65a6:	0f 43       	clr	r15		
    65a8:	b0 12 e0 83 	call	#0x83e0	
    65ac:	06 4e       	mov	r14,	r6	
    65ae:	07 4f       	mov	r15,	r7	
    65b0:	0c 43       	clr	r12		
    65b2:	0d 43       	clr	r13		
    65b4:	b0 12 5a 82 	call	#0x825a	
    65b8:	0f 93       	tst	r15		
    65ba:	02 34       	jge	$+6      	;abs 0x65c0
    65bc:	37 e0 00 80 	xor	#-32768,r7	;#0x8000
    65c0:	0e 49       	mov	r9,	r14	
    65c2:	1e 81 0c 00 	sub	12(r1),	r14	;0x000c(r1)
    65c6:	0f 43       	clr	r15		
    65c8:	b0 12 e0 83 	call	#0x83e0	
    65cc:	0a 4e       	mov	r14,	r10	
    65ce:	0b 4f       	mov	r15,	r11	
    65d0:	0c 43       	clr	r12		
    65d2:	0d 43       	clr	r13		
    65d4:	b0 12 5a 82 	call	#0x825a	
    65d8:	0f 93       	tst	r15		
    65da:	02 34       	jge	$+6      	;abs 0x65e0
    65dc:	3b e0 00 80 	xor	#-32768,r11	;#0x8000
    65e0:	0e 48       	mov	r8,	r14	
    65e2:	0e 89       	sub	r9,	r14	
    65e4:	0f 43       	clr	r15		
    65e6:	b0 12 e0 83 	call	#0x83e0	
    65ea:	81 4e 14 00 	mov	r14,	20(r1)	;0x0014(r1)
    65ee:	81 4f 16 00 	mov	r15,	22(r1)	;0x0016(r1)
    65f2:	0c 43       	clr	r12		
    65f4:	0d 43       	clr	r13		
    65f6:	b0 12 5a 82 	call	#0x825a	
    65fa:	0f 93       	tst	r15		
    65fc:	03 34       	jge	$+8      	;abs 0x6604
    65fe:	b1 e0 00 80 16 00 	xor	#-32768,22(r1)	;#0x8000, 0x0016(r1)
    6604:	1e 41 12 00 	mov	18(r1),	r14	;0x0012(r1)
    6608:	0e 88       	sub	r8,	r14	
    660a:	0f 43       	clr	r15		
    660c:	b0 12 e0 83 	call	#0x83e0	
    6610:	04 4e       	mov	r14,	r4	
    6612:	05 4f       	mov	r15,	r5	
    6614:	0c 43       	clr	r12		
    6616:	0d 43       	clr	r13		
    6618:	b0 12 5a 82 	call	#0x825a	
    661c:	0f 93       	tst	r15		
    661e:	02 34       	jge	$+6      	;abs 0x6624
    6620:	35 e0 00 80 	xor	#-32768,r5	;#0x8000
    6624:	a1 83 0e 00 	decd	14(r1)		;0x000e(r1)
    6628:	3e 40 c8 00 	mov	#200,	r14	;#0x00c8
    662c:	1f 41 0e 00 	mov	14(r1),	r15	;0x000e(r1)
    6630:	b0 12 34 7b 	call	#0x7b34	
    6634:	2f 93       	cmp	#2,	r15	;r3 As==10
    6636:	66 28       	jnc	$+206    	;abs 0x6704
    6638:	3f 90 c6 00 	cmp	#198,	r15	;#0x00c6
    663c:	63 24       	jz	$+200    	;abs 0x6704
    663e:	3f 90 c7 00 	cmp	#199,	r15	;#0x00c7
    6642:	60 24       	jz	$+194    	;abs 0x6704
    6644:	81 93 10 00 	tst	16(r1)		;0x0010(r1)
    6648:	5d 24       	jz	$+188    	;abs 0x6704
    664a:	81 99 0c 00 	cmp	r9,	12(r1)	;0x000c(r1)
    664e:	09 2c       	jc	$+20     	;abs 0x6662
    6650:	08 99       	cmp	r9,	r8	
    6652:	07 2c       	jc	$+16     	;abs 0x6662
    6654:	91 91 0c 00 10 00 	cmp	12(r1),	16(r1)	;0x000c(r1), 0x0010(r1)
    665a:	03 2c       	jc	$+8      	;abs 0x6662
    665c:	81 98 12 00 	cmp	r8,	18(r1)	;0x0012(r1)
    6660:	51 28       	jnc	$+164    	;abs 0x6704
    6662:	19 91 0c 00 	cmp	12(r1),	r9	;0x000c(r1)
    6666:	09 2c       	jc	$+20     	;abs 0x667a
    6668:	09 98       	cmp	r8,	r9	
    666a:	07 2c       	jc	$+16     	;abs 0x667a
    666c:	91 91 10 00 0c 00 	cmp	16(r1),	12(r1)	;0x0010(r1), 0x000c(r1)
    6672:	03 2c       	jc	$+8      	;abs 0x667a
    6674:	18 91 12 00 	cmp	18(r1),	r8	;0x0012(r1)
    6678:	45 28       	jnc	$+140    	;abs 0x6704
    667a:	81 99 0c 00 	cmp	r9,	12(r1)	;0x000c(r1)
    667e:	04 2c       	jc	$+10     	;abs 0x6688
    6680:	08 99       	cmp	r9,	r8	
    6682:	40 28       	jnc	$+130    	;abs 0x6704
    6684:	09 98       	cmp	r8,	r9	
    6686:	3e 2c       	jc	$+126    	;abs 0x6704
    6688:	19 91 0c 00 	cmp	12(r1),	r9	;0x000c(r1)
    668c:	04 2c       	jc	$+10     	;abs 0x6696
    668e:	09 98       	cmp	r8,	r9	
    6690:	39 28       	jnc	$+116    	;abs 0x6704
    6692:	08 99       	cmp	r9,	r8	
    6694:	37 2c       	jc	$+112    	;abs 0x6704
    6696:	0e 46       	mov	r6,	r14	
    6698:	0f 47       	mov	r7,	r15	
    669a:	b0 12 76 7b 	call	#0x7b76	
    669e:	07 4e       	mov	r14,	r7	
    66a0:	0e 4a       	mov	r10,	r14	
    66a2:	0f 4b       	mov	r11,	r15	
    66a4:	b0 12 76 7b 	call	#0x7b76	
    66a8:	0a 4e       	mov	r14,	r10	
    66aa:	1e 41 14 00 	mov	20(r1),	r14	;0x0014(r1)
    66ae:	1f 41 16 00 	mov	22(r1),	r15	;0x0016(r1)
    66b2:	b0 12 76 7b 	call	#0x7b76	
    66b6:	08 4e       	mov	r14,	r8	
    66b8:	0e 44       	mov	r4,	r14	
    66ba:	0f 45       	mov	r5,	r15	
    66bc:	b0 12 76 7b 	call	#0x7b76	
    66c0:	0a 97       	cmp	r7,	r10	
    66c2:	02 2c       	jc	$+6      	;abs 0x66c8
    66c4:	08 9e       	cmp	r14,	r8	
    66c6:	04 28       	jnc	$+10     	;abs 0x66d0
    66c8:	07 9a       	cmp	r10,	r7	
    66ca:	09 2c       	jc	$+20     	;abs 0x66de
    66cc:	0e 98       	cmp	r8,	r14	
    66ce:	07 2c       	jc	$+16     	;abs 0x66de
    66d0:	92 93 94 17 	cmp	#1,	&0x1794	;r3 As==01
    66d4:	19 24       	jz	$+52     	;abs 0x6708
    66d6:	92 93 e6 20 	cmp	#1,	&0x20e6	;r3 As==01
    66da:	18 20       	jnz	$+50     	;abs 0x670c
    66dc:	15 3c       	jmp	$+44     	;abs 0x6708
    66de:	0b 47       	mov	r7,	r11	
    66e0:	12 c3       	clrc			
    66e2:	0b 10       	rrc	r11		
    66e4:	0a 9b       	cmp	r11,	r10	
    66e6:	05 2c       	jc	$+12     	;abs 0x66f2
    66e8:	0b 48       	mov	r8,	r11	
    66ea:	12 c3       	clrc			
    66ec:	0b 10       	rrc	r11		
    66ee:	0a 9b       	cmp	r11,	r10	
    66f0:	12 28       	jnc	$+38     	;abs 0x6716
    66f2:	0c 47       	mov	r7,	r12	
    66f4:	0c 5c       	rla	r12		
    66f6:	0c 9a       	cmp	r10,	r12	
    66f8:	0b 2c       	jc	$+24     	;abs 0x6710
    66fa:	0d 48       	mov	r8,	r13	
    66fc:	0d 5d       	rla	r13		
    66fe:	0d 9a       	cmp	r10,	r13	
    6700:	0a 28       	jnc	$+22     	;abs 0x6716
    6702:	06 3c       	jmp	$+14     	;abs 0x6710
    6704:	4b 43       	clr.b	r11		
    6706:	08 3c       	jmp	$+18     	;abs 0x6718
    6708:	6b 42       	mov.b	#4,	r11	;r2 As==10
    670a:	06 3c       	jmp	$+14     	;abs 0x6718
    670c:	5b 43       	mov.b	#1,	r11	;r3 As==01
    670e:	04 3c       	jmp	$+10     	;abs 0x6718
    6710:	7b 40 03 00 	mov.b	#3,	r11	;#0x0003
    6714:	01 3c       	jmp	$+4      	;abs 0x6718
    6716:	6b 43       	mov.b	#2,	r11	;r3 As==10
    6718:	c2 93 ab 1b 	tst.b	&0x1bab	
    671c:	32 24       	jz	$+102    	;abs 0x6782
    671e:	1d 42 28 21 	mov	&0x2128,r13	
    6722:	0d 93       	tst	r13		
    6724:	03 20       	jnz	$+8      	;abs 0x672c
    6726:	92 41 0e 00 e8 18 	mov	14(r1),	&0x18e8	;0x000e(r1)
    672c:	0e 4d       	mov	r13,	r14	
    672e:	0e 5e       	rla	r14		
    6730:	0e 5d       	add	r13,	r14	
    6732:	0e 5e       	rla	r14		
    6734:	3e 50 24 1c 	add	#7204,	r14	;#0x1c24
    6738:	ce 4b 00 00 	mov.b	r11,	0(r14)	;0x0000(r14)
    673c:	8e 49 02 00 	mov	r9,	2(r14)	;0x0002(r14)
    6740:	9e 41 0e 00 04 00 	mov	14(r1),	4(r14)	;0x000e(r1), 0x0004(r14)
    6746:	1d 53       	inc	r13		
    6748:	82 4d 28 21 	mov	r13,	&0x2128	
    674c:	3d 90 c8 00 	cmp	#200,	r13	;#0x00c8
    6750:	0a 28       	jnc	$+22     	;abs 0x6766
    6752:	c2 43 ab 1b 	mov.b	#0,	&0x1bab	;r3 As==00
    6756:	d2 43 20 1c 	mov.b	#1,	&0x1c20	;r3 As==01
    675a:	92 41 0e 00 20 1a 	mov	14(r1),	&0x1a20	;0x000e(r1)
    6760:	b0 12 f4 60 	call	#0x60f4	
    6764:	0e 3c       	jmp	$+30     	;abs 0x6782
    6766:	1e 42 90 1a 	mov	&0x1a90,r14	
    676a:	0e 99       	cmp	r9,	r14	
    676c:	01 2c       	jc	$+4      	;abs 0x6770
    676e:	0e 49       	mov	r9,	r14	
    6770:	82 4e 90 1a 	mov	r14,	&0x1a90	
    6774:	1e 42 8a 1b 	mov	&0x1b8a,r14	
    6778:	09 9e       	cmp	r14,	r9	
    677a:	01 2c       	jc	$+4      	;abs 0x677e
    677c:	0e 49       	mov	r9,	r14	
    677e:	82 4e 8a 1b 	mov	r14,	&0x1b8a	
    6782:	92 42 e6 20 94 17 	mov	&0x20e6,&0x1794	
    6788:	c2 4b e6 20 	mov.b	r11,	&0x20e6	
    678c:	c2 43 e7 20 	mov.b	#0,	&0x20e7	;r3 As==00
    6790:	c2 9b eb 20 	cmp.b	r11,	&0x20eb	
    6794:	0f 28       	jnc	$+32     	;abs 0x67b4
    6796:	1e 42 1e 1a 	mov	&0x1a1e,r14	
    679a:	3e 90 32 00 	cmp	#50,	r14	;#0x0032
    679e:	1f 24       	jz	$+64     	;abs 0x67de
    67a0:	1e 53       	inc	r14		
    67a2:	82 4e 1e 1a 	mov	r14,	&0x1a1e	
    67a6:	0d 4e       	mov	r14,	r13	
    67a8:	0d 5d       	rla	r13		
    67aa:	0e 5d       	add	r13,	r14	
    67ac:	0e 5e       	rla	r14		
    67ae:	3e 50 ec 18 	add	#6380,	r14	;#0x18ec
    67b2:	0e 3c       	jmp	$+30     	;abs 0x67d0
    67b4:	1e 42 c8 18 	mov	&0x18c8,r14	
    67b8:	3e 90 32 00 	cmp	#50,	r14	;#0x0032
    67bc:	10 24       	jz	$+34     	;abs 0x67de
    67be:	1e 53       	inc	r14		
    67c0:	82 4e c8 18 	mov	r14,	&0x18c8	
    67c4:	0d 4e       	mov	r14,	r13	
    67c6:	0d 5d       	rla	r13		
    67c8:	0e 5d       	add	r13,	r14	
    67ca:	0e 5e       	rla	r14		
    67cc:	3e 50 96 17 	add	#6038,	r14	;#0x1796
    67d0:	ce 4b 00 00 	mov.b	r11,	0(r14)	;0x0000(r14)
    67d4:	8e 49 02 00 	mov	r9,	2(r14)	;0x0002(r14)
    67d8:	9e 41 0e 00 04 00 	mov	14(r1),	4(r14)	;0x000e(r1), 0x0004(r14)
    67de:	92 53 d4 20 	inc	&0x20d4	
    67e2:	82 93 c6 1b 	tst	&0x1bc6	
    67e6:	7c 24       	jz	$+250    	;abs 0x68e0
    67e8:	1f 42 c2 1b 	mov	&0x1bc2,r15	
    67ec:	18 4f 04 00 	mov	4(r15),	r8	;0x0004(r15)
    67f0:	2b 4f       	mov	@r15,	r11	
    67f2:	09 48       	mov	r8,	r9	
    67f4:	19 53       	inc	r9		
    67f6:	8f 49 04 00 	mov	r9,	4(r15)	;0x0004(r15)
    67fa:	0a 43       	clr	r10		
    67fc:	0e 4a       	mov	r10,	r14	
    67fe:	2e 53       	incd	r14		
    6800:	0e 5e       	rla	r14		
    6802:	0d 4b       	mov	r11,	r13	
    6804:	0d 5e       	add	r14,	r13	
    6806:	1d 53       	inc	r13		
    6808:	6f 4d       	mov.b	@r13,	r15	
    680a:	8f 10       	swpb	r15		
    680c:	5d 4d 01 00 	mov.b	1(r13),	r13	;0x0001(r13)
    6810:	0f dd       	bis	r13,	r15	
    6812:	3e 50 fc 1a 	add	#6908,	r14	;#0x1afc
    6816:	ce 4f 0e 00 	mov.b	r15,	14(r14)	;0x000e(r14)
    681a:	3e 50 0d 00 	add	#13,	r14	;#0x000d
    681e:	8f 10       	swpb	r15		
    6820:	ce 4f 00 00 	mov.b	r15,	0(r14)	;0x0000(r14)
    6824:	0f 4a       	mov	r10,	r15	
    6826:	3f 50 07 00 	add	#7,	r15	;#0x0007
    682a:	0f 5f       	rla	r15		
    682c:	0d 4b       	mov	r11,	r13	
    682e:	0d 5f       	add	r15,	r13	
    6830:	1d 53       	inc	r13		
    6832:	6e 4d       	mov.b	@r13,	r14	
    6834:	8e 10       	swpb	r14		
    6836:	5d 4d 01 00 	mov.b	1(r13),	r13	;0x0001(r13)
    683a:	0e dd       	bis	r13,	r14	
    683c:	3f 50 fc 1a 	add	#6908,	r15	;#0x1afc
    6840:	cf 4e 0e 00 	mov.b	r14,	14(r15)	;0x000e(r15)
    6844:	3f 50 0d 00 	add	#13,	r15	;#0x000d
    6848:	0d 4e       	mov	r14,	r13	
    684a:	8d 10       	swpb	r13		
    684c:	4d 4d       	mov.b	r13,	r13	
    684e:	cf 4d 00 00 	mov.b	r13,	0(r15)	;0x0000(r15)
    6852:	8d 10       	swpb	r13		
    6854:	4f 4e       	mov.b	r14,	r15	
    6856:	3e 40 c8 00 	mov	#200,	r14	;#0x00c8
    685a:	0f dd       	bis	r13,	r15	
    685c:	b0 12 1a 7b 	call	#0x7b1a	
    6860:	3e 40 14 00 	mov	#20,	r14	;#0x0014
    6864:	b0 12 34 7b 	call	#0x7b34	
    6868:	df 53 70 1a 	inc.b	6768(r15)	;0x1a70(r15)
    686c:	1a 53       	inc	r10		
    686e:	3a 90 05 00 	cmp	#5,	r10	;#0x0005
    6872:	c4 23       	jnz	$-118    	;abs 0x67fc
    6874:	6f 4b       	mov.b	@r11,	r15	
    6876:	8f 10       	swpb	r15		
    6878:	5e 4b 01 00 	mov.b	1(r11),	r14	;0x0001(r11)
    687c:	0f de       	bis	r14,	r15	
    687e:	c2 4f 09 1b 	mov.b	r15,	&0x1b09	
    6882:	8f 10       	swpb	r15		
    6884:	c2 4f 08 1b 	mov.b	r15,	&0x1b08	
    6888:	5f 4b 02 00 	mov.b	2(r11),	r15	;0x0002(r11)
    688c:	8f 10       	swpb	r15		
    688e:	5e 4b 03 00 	mov.b	3(r11),	r14	;0x0003(r11)
    6892:	0f de       	bis	r14,	r15	
    6894:	c2 4f 0b 1b 	mov.b	r15,	&0x1b0b	
    6898:	8f 10       	swpb	r15		
    689a:	c2 4f 0a 1b 	mov.b	r15,	&0x1b0a	
    689e:	d2 4b 04 00 0c 1b 	mov.b	4(r11),	&0x1b0c	;0x0004(r11)
    68a4:	f2 43 02 1b 	mov.b	#-1,	&0x1b02	;r3 As==11
    68a8:	f2 43 03 1b 	mov.b	#-1,	&0x1b03	;r3 As==11
    68ac:	f2 40 03 00 07 1b 	mov.b	#3,	&0x1b07	;#0x0003
    68b2:	7d 40 19 00 	mov.b	#25,	r13	;#0x0019
    68b6:	3e 40 fc 1a 	mov	#6908,	r14	;#0x1afc
    68ba:	6f 43       	mov.b	#2,	r15	;r3 As==10
    68bc:	b0 12 7c 60 	call	#0x607c	
    68c0:	4f 93       	tst.b	r15		
    68c2:	04 20       	jnz	$+10     	;abs 0x68cc
    68c4:	d2 43 c6 1a 	mov.b	#1,	&0x1ac6	;r3 As==01
    68c8:	b0 12 ac 53 	call	#0x53ac	
    68cc:	28 93       	cmp	#2,	r8	;r3 As==10
    68ce:	02 2c       	jc	$+6      	;abs 0x68d4
    68d0:	30 40 b8 6a 	br	#0x6ab8	
    68d4:	3f 40 c2 1b 	mov	#7106,	r15	;#0x1bc2
    68d8:	b0 12 d0 48 	call	#0x48d0	
    68dc:	30 40 b8 6a 	br	#0x6ab8	
    68e0:	c2 93 c6 1a 	tst.b	&0x1ac6	
    68e4:	02 24       	jz	$+6      	;abs 0x68ea
    68e6:	30 40 b8 6a 	br	#0x6ab8	
    68ea:	b2 90 05 00 c8 18 	cmp	#5,	&0x18c8	;#0x0005
    68f0:	04 2c       	jc	$+10     	;abs 0x68fa
    68f2:	b2 90 05 00 1e 1a 	cmp	#5,	&0x1a1e	;#0x0005
    68f8:	df 28       	jnc	$+448    	;abs 0x6ab8
    68fa:	5a 43       	mov.b	#1,	r10	;r3 As==01
    68fc:	b2 90 05 00 1e 1a 	cmp	#5,	&0x1a1e	;#0x0005
    6902:	01 2c       	jc	$+4      	;abs 0x6906
    6904:	4a 43       	clr.b	r10		
    6906:	0b 43       	clr	r11		
    6908:	4a 93       	tst.b	r10		
    690a:	03 24       	jz	$+8      	;abs 0x6912
    690c:	3f 40 ec 18 	mov	#6380,	r15	;#0x18ec
    6910:	02 3c       	jmp	$+6      	;abs 0x6916
    6912:	3f 40 96 17 	mov	#6038,	r15	;#0x1796
    6916:	b0 12 8e 49 	call	#0x498e	
    691a:	81 4c 06 00 	mov	r12,	6(r1)	;0x0006(r1)
    691e:	81 4d 08 00 	mov	r13,	8(r1)	;0x0008(r1)
    6922:	81 4e 0a 00 	mov	r14,	10(r1)	;0x000a(r1)
    6926:	3d 40 06 00 	mov	#6,	r13	;#0x0006
    692a:	0e 41       	mov	r1,	r14	
    692c:	3e 50 06 00 	add	#6,	r14	;#0x0006
    6930:	0f 41       	mov	r1,	r15	
    6932:	b0 12 fa 88 	call	#0x88fa	
    6936:	1e 41 02 00 	mov	2(r1),	r14	;0x0002(r1)
    693a:	0f 4b       	mov	r11,	r15	
    693c:	2f 53       	incd	r15		
    693e:	0f 5f       	rla	r15		
    6940:	3f 50 f2 20 	add	#8434,	r15	;#0x20f2
    6944:	cf 4e 0e 00 	mov.b	r14,	14(r15)	;0x000e(r15)
    6948:	3f 50 0d 00 	add	#13,	r15	;#0x000d
    694c:	8e 10       	swpb	r14		
    694e:	cf 4e 00 00 	mov.b	r14,	0(r15)	;0x0000(r15)
    6952:	1e 41 04 00 	mov	4(r1),	r14	;0x0004(r1)
    6956:	0f 4b       	mov	r11,	r15	
    6958:	3f 50 07 00 	add	#7,	r15	;#0x0007
    695c:	0f 5f       	rla	r15		
    695e:	3f 50 f2 20 	add	#8434,	r15	;#0x20f2
    6962:	cf 4e 0e 00 	mov.b	r14,	14(r15)	;0x000e(r15)
    6966:	3f 50 0d 00 	add	#13,	r15	;#0x000d
    696a:	8e 10       	swpb	r14		
    696c:	cf 4e 00 00 	mov.b	r14,	0(r15)	;0x0000(r15)
    6970:	1b 53       	inc	r11		
    6972:	3b 90 05 00 	cmp	#5,	r11	;#0x0005
    6976:	c8 23       	jnz	$-110    	;abs 0x6908
    6978:	1f 42 62 17 	mov	&0x1762,r15	
    697c:	46 4f       	mov.b	r15,	r6	
    697e:	c2 4f ff 20 	mov.b	r15,	&0x20ff	
    6982:	8f 10       	swpb	r15		
    6984:	4f 4f       	mov.b	r15,	r15	
    6986:	49 4f       	mov.b	r15,	r9	
    6988:	c2 4f fe 20 	mov.b	r15,	&0x20fe	
    698c:	1d 42 90 17 	mov	&0x1790,r13	
    6990:	0e 4d       	mov	r13,	r14	
    6992:	1e 53       	inc	r14		
    6994:	82 4e 90 17 	mov	r14,	&0x1790	
    6998:	48 4d       	mov.b	r13,	r8	
    699a:	c2 4d 01 21 	mov.b	r13,	&0x2101	
    699e:	8d 10       	swpb	r13		
    69a0:	4d 4d       	mov.b	r13,	r13	
    69a2:	47 4d       	mov.b	r13,	r7	
    69a4:	c2 4d 00 21 	mov.b	r13,	&0x2100	
    69a8:	c2 4a 02 21 	mov.b	r10,	&0x2102	
    69ac:	5a 93       	cmp.b	#1,	r10	;r3 As==01
    69ae:	70 20       	jnz	$+226    	;abs 0x6a90
    69b0:	3f 40 19 00 	mov	#25,	r15	;#0x0019
    69b4:	b0 12 5e 8a 	call	#0x8a5e	
    69b8:	0b 4f       	mov	r15,	r11	
    69ba:	4e 49       	mov.b	r9,	r14	
    69bc:	8e 10       	swpb	r14		
    69be:	4d 46       	mov.b	r6,	r13	
    69c0:	0e dd       	bis	r13,	r14	
    69c2:	cf 4e 01 00 	mov.b	r14,	1(r15)	;0x0001(r15)
    69c6:	8e 10       	swpb	r14		
    69c8:	cf 4e 00 00 	mov.b	r14,	0(r15)	;0x0000(r15)
    69cc:	4f 47       	mov.b	r7,	r15	
    69ce:	8f 10       	swpb	r15		
    69d0:	4e 48       	mov.b	r8,	r14	
    69d2:	0f de       	bis	r14,	r15	
    69d4:	cb 4f 03 00 	mov.b	r15,	3(r11)	;0x0003(r11)
    69d8:	8f 10       	swpb	r15		
    69da:	cb 4f 02 00 	mov.b	r15,	2(r11)	;0x0002(r11)
    69de:	db 43 04 00 	mov.b	#1,	4(r11)	;r3 As==01, 0x0004(r11)
    69e2:	0c 43       	clr	r12		
    69e4:	0e 4c       	mov	r12,	r14	
    69e6:	2e 53       	incd	r14		
    69e8:	0e 5e       	rla	r14		
    69ea:	0d 4e       	mov	r14,	r13	
    69ec:	3d 50 f2 20 	add	#8434,	r13	;#0x20f2
    69f0:	3d 50 0d 00 	add	#13,	r13	;#0x000d
    69f4:	6f 4d       	mov.b	@r13,	r15	
    69f6:	8f 10       	swpb	r15		
    69f8:	5d 4d 01 00 	mov.b	1(r13),	r13	;0x0001(r13)
    69fc:	0f dd       	bis	r13,	r15	
    69fe:	0e 5b       	add	r11,	r14	
    6a00:	ce 4f 02 00 	mov.b	r15,	2(r14)	;0x0002(r14)
    6a04:	1e 53       	inc	r14		
    6a06:	8f 10       	swpb	r15		
    6a08:	ce 4f 00 00 	mov.b	r15,	0(r14)	;0x0000(r14)
    6a0c:	0e 4c       	mov	r12,	r14	
    6a0e:	3e 50 07 00 	add	#7,	r14	;#0x0007
    6a12:	0e 5e       	rla	r14		
    6a14:	0d 4e       	mov	r14,	r13	
    6a16:	3d 50 f2 20 	add	#8434,	r13	;#0x20f2
    6a1a:	3d 50 0d 00 	add	#13,	r13	;#0x000d
    6a1e:	6f 4d       	mov.b	@r13,	r15	
    6a20:	8f 10       	swpb	r15		
    6a22:	5d 4d 01 00 	mov.b	1(r13),	r13	;0x0001(r13)
    6a26:	0f dd       	bis	r13,	r15	
    6a28:	0e 5b       	add	r11,	r14	
    6a2a:	ce 4f 02 00 	mov.b	r15,	2(r14)	;0x0002(r14)
    6a2e:	1e 53       	inc	r14		
    6a30:	8f 10       	swpb	r15		
    6a32:	ce 4f 00 00 	mov.b	r15,	0(r14)	;0x0000(r14)
    6a36:	1c 53       	inc	r12		
    6a38:	3c 90 05 00 	cmp	#5,	r12	;#0x0005
    6a3c:	d3 23       	jnz	$-88     	;abs 0x69e4
    6a3e:	b2 90 0f 00 c6 1b 	cmp	#15,	&0x1bc6	;#0x000f
    6a44:	04 20       	jnz	$+10     	;abs 0x6a4e
    6a46:	3f 40 c2 1b 	mov	#7106,	r15	;#0x1bc2
    6a4a:	b0 12 d0 48 	call	#0x48d0	
    6a4e:	5a 42 00 21 	mov.b	&0x2100,r10	
    6a52:	8a 10       	swpb	r10		
    6a54:	5f 42 01 21 	mov.b	&0x2101,r15	
    6a58:	0a df       	bis	r15,	r10	
    6a5a:	3f 42       	mov	#8,	r15	;r2 As==11
    6a5c:	b0 12 5e 8a 	call	#0x8a5e	
    6a60:	8f 4b 00 00 	mov	r11,	0(r15)	;0x0000(r15)
    6a64:	8f 4a 02 00 	mov	r10,	2(r15)	;0x0002(r15)
    6a68:	8f 43 04 00 	mov	#0,	4(r15)	;r3 As==00, 0x0004(r15)
    6a6c:	8f 43 06 00 	mov	#0,	6(r15)	;r3 As==00, 0x0006(r15)
    6a70:	82 93 c2 1b 	tst	&0x1bc2	
    6a74:	05 20       	jnz	$+12     	;abs 0x6a80
    6a76:	82 4f c4 1b 	mov	r15,	&0x1bc4	
    6a7a:	82 4f c2 1b 	mov	r15,	&0x1bc2	
    6a7e:	06 3c       	jmp	$+14     	;abs 0x6a8c
    6a80:	1e 42 c4 1b 	mov	&0x1bc4,r14	
    6a84:	8e 4f 06 00 	mov	r15,	6(r14)	;0x0006(r14)
    6a88:	82 4f c4 1b 	mov	r15,	&0x1bc4	
    6a8c:	92 53 c6 1b 	inc	&0x1bc6	
    6a90:	f2 43 f8 20 	mov.b	#-1,	&0x20f8	;r3 As==11
    6a94:	f2 43 f9 20 	mov.b	#-1,	&0x20f9	;r3 As==11
    6a98:	f2 40 03 00 fd 20 	mov.b	#3,	&0x20fd	;#0x0003
    6a9e:	7d 40 19 00 	mov.b	#25,	r13	;#0x0019
    6aa2:	3e 40 f2 20 	mov	#8434,	r14	;#0x20f2
    6aa6:	6f 43       	mov.b	#2,	r15	;r3 As==10
    6aa8:	b0 12 7c 60 	call	#0x607c	
    6aac:	4f 93       	tst.b	r15		
    6aae:	04 20       	jnz	$+10     	;abs 0x6ab8
    6ab0:	d2 43 c6 1a 	mov.b	#1,	&0x1ac6	;r3 As==01
    6ab4:	b0 12 ac 53 	call	#0x53ac	
    6ab8:	7f 40 0a 00 	mov.b	#10,	r15	;#0x000a
    6abc:	b0 12 4a 4b 	call	#0x4b4a	
    6ac0:	31 50 18 00 	add	#24,	r1	;#0x0018
    6ac4:	34 41       	pop	r4		
    6ac6:	35 41       	pop	r5		
    6ac8:	36 41       	pop	r6		
    6aca:	37 41       	pop	r7		
    6acc:	38 41       	pop	r8		
    6ace:	39 41       	pop	r9		
    6ad0:	3a 41       	pop	r10		
    6ad2:	3b 41       	pop	r11		
    6ad4:	30 41       	ret			

00006ad6 <AMQueueImplP__0__sendDone.isra.148>:
    6ad6:	0b 12       	push	r11		
    6ad8:	0a 12       	push	r10		
    6ada:	09 12       	push	r9		
    6adc:	08 12       	push	r8		
    6ade:	07 12       	push	r7		
    6ae0:	48 4f       	mov.b	r15,	r8	
    6ae2:	07 4e       	mov	r14,	r7	
    6ae4:	4d 4f       	mov.b	r15,	r13	
    6ae6:	0d 5d       	rla	r13		
    6ae8:	8d 43 30 1b 	mov	#0,	6960(r13);r3 As==00, 0x1b30(r13)
    6aec:	5d 42 09 11 	mov.b	&0x1109,r13	
    6af0:	3e 40 03 00 	mov	#3,	r14	;#0x0003
    6af4:	0f 4d       	mov	r13,	r15	
    6af6:	1f 53       	inc	r15		
    6af8:	b0 12 6e 7b 	call	#0x7b6e	
    6afc:	4c 4f       	mov.b	r15,	r12	
    6afe:	79 40 03 00 	mov.b	#3,	r9	;#0x0003
    6b02:	4b 4c       	mov.b	r12,	r11	
    6b04:	0d 4b       	mov	r11,	r13	
    6b06:	0d 5d       	rla	r13		
    6b08:	8d 93 30 1b 	tst	6960(r13)	;0x1b30(r13)
    6b0c:	14 24       	jz	$+42     	;abs 0x6b36
    6b0e:	4d 4c       	mov.b	r12,	r13	
    6b10:	12 c3       	clrc			
    6b12:	4d 10       	rrc.b	r13		
    6b14:	12 c3       	clrc			
    6b16:	4d 10       	rrc.b	r13		
    6b18:	12 c3       	clrc			
    6b1a:	4d 10       	rrc.b	r13		
    6b1c:	4d 4d       	mov.b	r13,	r13	
    6b1e:	5d 4d de 20 	mov.b	8414(r13),r13	;0x20de(r13)
    6b22:	4a 4b       	mov.b	r11,	r10	
    6b24:	7a f0 07 00 	and.b	#7,	r10	;#0x0007
    6b28:	4a 93       	tst.b	r10		
    6b2a:	03 24       	jz	$+8      	;abs 0x6b32
    6b2c:	0d 11       	rra	r13		
    6b2e:	7a 53       	add.b	#-1,	r10	;r3 As==11
    6b30:	fb 3f       	jmp	$-8      	;abs 0x6b28
    6b32:	1d f3       	and	#1,	r13	;r3 As==01
    6b34:	0a 24       	jz	$+22     	;abs 0x6b4a
    6b36:	3e 40 03 00 	mov	#3,	r14	;#0x0003
    6b3a:	0f 4b       	mov	r11,	r15	
    6b3c:	1f 53       	inc	r15		
    6b3e:	b0 12 6e 7b 	call	#0x7b6e	
    6b42:	4c 4f       	mov.b	r15,	r12	
    6b44:	79 53       	add.b	#-1,	r9	;r3 As==11
    6b46:	dd 23       	jnz	$-68     	;abs 0x6b02
    6b48:	29 3c       	jmp	$+84     	;abs 0x6b9c
    6b4a:	c2 4c 09 11 	mov.b	r12,	&0x1109	
    6b4e:	5d 42 09 11 	mov.b	&0x1109,r13	
    6b52:	7d 90 03 00 	cmp.b	#3,	r13	;#0x0003
    6b56:	18 2c       	jc	$+50     	;abs 0x6b88
    6b58:	4d 4d       	mov.b	r13,	r13	
    6b5a:	0d 5d       	rla	r13		
    6b5c:	1d 4d 30 1b 	mov	6960(r13),r13	;0x1b30(r13)
    6b60:	5b 4d 07 00 	mov.b	7(r13),	r11	;0x0007(r13)
    6b64:	8b 10       	swpb	r11		
    6b66:	5a 4d 06 00 	mov.b	6(r13),	r10	;0x0006(r13)
    6b6a:	6c 4d       	mov.b	@r13,	r12	
    6b6c:	7c 50 f3 ff 	add.b	#-13,	r12	;#0xfff3
    6b70:	0e 4b       	mov	r11,	r14	
    6b72:	0e da       	bis	r10,	r14	
    6b74:	5f 4d 0b 00 	mov.b	11(r13),r15	;0x000b(r13)
    6b78:	b0 12 be 5f 	call	#0x5fbe	
    6b7c:	4f 93       	tst.b	r15		
    6b7e:	04 24       	jz	$+10     	;abs 0x6b88
    6b80:	7f 40 0d 00 	mov.b	#13,	r15	;#0x000d
    6b84:	b0 12 4a 4b 	call	#0x4b4a	
    6b88:	0e 47       	mov	r7,	r14	
    6b8a:	4f 48       	mov.b	r8,	r15	
    6b8c:	b0 12 bc 53 	call	#0x53bc	
    6b90:	37 41       	pop	r7		
    6b92:	38 41       	pop	r8		
    6b94:	39 41       	pop	r9		
    6b96:	3a 41       	pop	r10		
    6b98:	3b 41       	pop	r11		
    6b9a:	30 41       	ret			
    6b9c:	f2 40 03 00 09 11 	mov.b	#3,	&0x1109	;#0x0003
    6ba2:	d5 3f       	jmp	$-84     	;abs 0x6b4e

00006ba4 <CC2420ActiveMessageP__AMSend__sendDone.isra.150>:
    6ba4:	0d 4f       	mov	r15,	r13	
    6ba6:	5f 42 09 11 	mov.b	&0x1109,r15	
    6baa:	7f 90 03 00 	cmp.b	#3,	r15	;#0x0003
    6bae:	08 2c       	jc	$+18     	;abs 0x6bc0
    6bb0:	4e 4f       	mov.b	r15,	r14	
    6bb2:	0e 5e       	rla	r14		
    6bb4:	1e 4e 30 1b 	mov	6960(r14),r14	;0x1b30(r14)
    6bb8:	0e 9d       	cmp	r13,	r14	
    6bba:	02 20       	jnz	$+6      	;abs 0x6bc0
    6bbc:	b0 12 d6 6a 	call	#0x6ad6	
    6bc0:	30 41       	ret			

00006bc2 <SchedulerBasicP__TaskBasic__runTask>:
    6bc2:	0b 12       	push	r11		
    6bc4:	0a 12       	push	r10		
    6bc6:	09 12       	push	r9		
    6bc8:	08 12       	push	r8		
    6bca:	07 12       	push	r7		
    6bcc:	06 12       	push	r6		
    6bce:	05 12       	push	r5		
    6bd0:	04 12       	push	r4		
    6bd2:	31 50 d8 ff 	add	#-40,	r1	;#0xffd8
    6bd6:	7f 90 0f 00 	cmp.b	#15,	r15	;#0x000f
    6bda:	02 28       	jnc	$+6      	;abs 0x6be0
    6bdc:	30 40 2e 76 	br	#0x762e	
    6be0:	4f 4f       	mov.b	r15,	r15	
    6be2:	0f 5f       	rla	r15		
    6be4:	10 4f 8c 8b 	br	-29812(r15)	;0x8b8c(r15)
    6be8:	b0 12 3a 4a 	call	#0x4a3a	
    6bec:	4b 4f       	mov.b	r15,	r11	
    6bee:	5f 43       	mov.b	#1,	r15	;r3 As==01
    6bf0:	b0 12 70 46 	call	#0x4670	
    6bf4:	92 43 6c 17 	mov	#1,	&0x176c	;r3 As==01
    6bf8:	c2 43 6a 17 	mov.b	#0,	&0x176a	;r3 As==00
    6bfc:	c2 43 22 1a 	mov.b	#0,	&0x1a22	;r3 As==00
    6c00:	c2 43 6f 1a 	mov.b	#0,	&0x1a6f	;r3 As==00
    6c04:	4f 4b       	mov.b	r11,	r15	
    6c06:	b0 12 4c 4a 	call	#0x4a4c	
    6c0a:	b0 12 3a 4a 	call	#0x4a3a	
    6c0e:	81 4f 26 00 	mov	r15,	38(r1)	;0x0026(r1)
    6c12:	b0 12 30 47 	call	#0x4730	
    6c16:	92 43 34 1a 	mov	#1,	&0x1a34	;r3 As==01
    6c1a:	c2 43 8e 1a 	mov.b	#0,	&0x1a8e	;r3 As==00
    6c1e:	f2 f0 fe ff 25 00 	and.b	#-2,	&0x0025	;#0xfffe
    6c24:	f2 f0 fe ff 23 00 	and.b	#-2,	&0x0023	;#0xfffe
    6c2a:	d2 d3 24 00 	bis.b	#1,	&0x0024	;r3 As==01
    6c2e:	d2 d3 25 00 	bis.b	#1,	&0x0025	;r3 As==01
    6c32:	1f 41 26 00 	mov	38(r1),	r15	;0x0026(r1)
    6c36:	b0 12 4c 4a 	call	#0x4a4c	
    6c3a:	b0 12 3a 4a 	call	#0x4a3a	
    6c3e:	4b 4f       	mov.b	r15,	r11	
    6c40:	a2 92 80 17 	cmp	#4,	&0x1780	;r2 As==10
    6c44:	05 20       	jnz	$+12     	;abs 0x6c50
    6c46:	7f 40 03 00 	mov.b	#3,	r15	;#0x0003
    6c4a:	b0 12 ea 4a 	call	#0x4aea	
    6c4e:	4f 4b       	mov.b	r11,	r15	
    6c50:	b0 12 4c 4a 	call	#0x4a4c	
    6c54:	b0 12 3a 4a 	call	#0x4a3a	
    6c58:	4b 4f       	mov.b	r15,	r11	
    6c5a:	b0 12 48 4d 	call	#0x4d48	
    6c5e:	4f 43       	clr.b	r15		
    6c60:	b0 12 56 4d 	call	#0x4d56	
    6c64:	4f 4b       	mov.b	r11,	r15	
    6c66:	b0 12 4c 4a 	call	#0x4a4c	
    6c6a:	6f 43       	mov.b	#2,	r15	;r3 As==10
    6c6c:	b0 12 64 51 	call	#0x5164	
    6c70:	b0 12 78 51 	call	#0x5178	
    6c74:	82 4e 78 1b 	mov	r14,	&0x1b78	
    6c78:	82 4f 7a 1b 	mov	r15,	&0x1b7a	
    6c7c:	b2 40 32 00 7c 1b 	mov	#50,	&0x1b7c	;#0x0032
    6c82:	82 43 7e 1b 	mov	#0,	&0x1b7e	;r3 As==00
    6c86:	5f 42 80 1b 	mov.b	&0x1b80,r15	
    6c8a:	7f f0 fe ff 	and.b	#-2,	r15	;#0xfffe
    6c8e:	6f d3       	bis.b	#2,	r15	;r3 As==10
    6c90:	c2 4f 80 1b 	mov.b	r15,	&0x1b80	
    6c94:	7f 40 0a 00 	mov.b	#10,	r15	;#0x000a
    6c98:	dc 3c       	jmp	$+442    	;abs 0x6e52
    6c9a:	4f 43       	clr.b	r15		
    6c9c:	b0 12 64 51 	call	#0x5164	
    6ca0:	30 40 2e 76 	br	#0x762e	
    6ca4:	b0 12 3a 4a 	call	#0x4a3a	
    6ca8:	b0 12 4c 4a 	call	#0x4a4c	
    6cac:	7f 40 03 00 	mov.b	#3,	r15	;#0x0003
    6cb0:	b0 12 1a 4b 	call	#0x4b1a	
    6cb4:	4f 93       	tst.b	r15		
    6cb6:	3c 24       	jz	$+122    	;abs 0x6d30
    6cb8:	b0 12 3a 4a 	call	#0x4a3a	
    6cbc:	4b 4f       	mov.b	r15,	r11	
    6cbe:	82 43 6c 17 	mov	#0,	&0x176c	;r3 As==00
    6cc2:	b2 f0 ef ff 82 01 	and	#-17,	&0x0182	;#0xffef
    6cc8:	b2 f0 ef ff 84 01 	and	#-17,	&0x0184	;#0xffef
    6cce:	f2 f0 fd ff 1f 00 	and.b	#-3,	&0x001f	;#0xfffd
    6cd4:	7f 40 03 00 	mov.b	#3,	r15	;#0x0003
    6cd8:	b0 12 56 4d 	call	#0x4d56	
    6cdc:	b0 12 48 4d 	call	#0x4d48	
    6ce0:	4f 4b       	mov.b	r11,	r15	
    6ce2:	b0 12 4c 4a 	call	#0x4a4c	
    6ce6:	b0 12 3a 4a 	call	#0x4a3a	
    6cea:	82 43 34 1a 	mov	#0,	&0x1a34	;r3 As==00
    6cee:	81 4f 26 00 	mov	r15,	38(r1)	;0x0026(r1)
    6cf2:	b0 12 30 47 	call	#0x4730	
    6cf6:	b0 12 48 4d 	call	#0x4d48	
    6cfa:	f2 f0 fe ff 25 00 	and.b	#-2,	&0x0025	;#0xfffe
    6d00:	f2 f0 fe ff 23 00 	and.b	#-2,	&0x0023	;#0xfffe
    6d06:	1f 41 26 00 	mov	38(r1),	r15	;0x0026(r1)
    6d0a:	b0 12 4c 4a 	call	#0x4a4c	
    6d0e:	82 43 80 17 	mov	#0,	&0x1780	;r3 As==00
    6d12:	b0 12 ea 52 	call	#0x52ea	
    6d16:	b0 12 3a 4a 	call	#0x4a3a	
    6d1a:	f2 f0 df ff 1d 00 	and.b	#-33,	&0x001d	;#0xffdf
    6d20:	b0 12 4c 4a 	call	#0x4a4c	
    6d24:	b0 12 fa 52 	call	#0x52fa	
    6d28:	5f 43       	mov.b	#1,	r15	;r3 As==01
    6d2a:	b0 12 4a 4b 	call	#0x4b4a	
    6d2e:	03 3c       	jmp	$+8      	;abs 0x6d36
    6d30:	6f 43       	mov.b	#2,	r15	;r3 As==10
    6d32:	b0 12 64 51 	call	#0x5164	
    6d36:	1b 42 f8 1a 	mov	&0x1af8,r11	
    6d3a:	b0 12 3a 4a 	call	#0x4a3a	
    6d3e:	c2 43 a8 1b 	mov.b	#0,	&0x1ba8	;r3 As==00
    6d42:	b0 12 4c 4a 	call	#0x4a4c	
    6d46:	82 93 e0 20 	tst	&0x20e0	
    6d4a:	02 24       	jz	$+6      	;abs 0x6d50
    6d4c:	30 40 2e 76 	br	#0x762e	
    6d50:	f2 43 0c 11 	mov.b	#-1,	&0x110c	;r3 As==11
    6d54:	0f 4b       	mov	r11,	r15	
    6d56:	30 40 be 75 	br	#0x75be	
    6d5a:	b0 12 3a 4a 	call	#0x4a3a	
    6d5e:	4b 4f       	mov.b	r15,	r11	
    6d60:	c2 93 f0 20 	tst.b	&0x20f0	
    6d64:	0d 20       	jnz	$+28     	;abs 0x6d80
    6d66:	d2 43 f0 20 	mov.b	#1,	&0x20f0	;r3 As==01
    6d6a:	a2 92 80 17 	cmp	#4,	&0x1780	;r2 As==10
    6d6e:	04 20       	jnz	$+10     	;abs 0x6d78
    6d70:	5f 43       	mov.b	#1,	r15	;r3 As==01
    6d72:	b0 12 a8 55 	call	#0x55a8	
    6d76:	03 3c       	jmp	$+8      	;abs 0x6d7e
    6d78:	6f 42       	mov.b	#4,	r15	;r2 As==10
    6d7a:	b0 12 4a 4b 	call	#0x4b4a	
    6d7e:	4f 4b       	mov.b	r11,	r15	
    6d80:	b0 12 4c 4a 	call	#0x4a4c	
    6d84:	30 40 2e 76 	br	#0x762e	
    6d88:	b0 12 3a 4a 	call	#0x4a3a	
    6d8c:	c2 43 f0 20 	mov.b	#0,	&0x20f0	;r3 As==00
    6d90:	f7 3f       	jmp	$-16     	;abs 0x6d80
    6d92:	b0 12 3a 4a 	call	#0x4a3a	
    6d96:	5b 42 13 11 	mov.b	&0x1113,r11	
    6d9a:	b0 12 4c 4a 	call	#0x4a4c	
    6d9e:	7b 90 05 00 	cmp.b	#5,	r11	;#0x0005
    6da2:	02 28       	jnc	$+6      	;abs 0x6da8
    6da4:	30 40 2e 76 	br	#0x762e	
    6da8:	4f 4b       	mov.b	r11,	r15	
    6daa:	0f 5f       	rla	r15		
    6dac:	10 4f aa 8b 	br	-29782(r15)	;0x8baa(r15)
    6db0:	b0 12 3a 4b 	call	#0x4b3a	
    6db4:	b0 12 3a 4a 	call	#0x4a3a	
    6db8:	4b 4f       	mov.b	r15,	r11	
    6dba:	a2 93 80 17 	cmp	#2,	&0x1780	;r3 As==10
    6dbe:	e0 23       	jnz	$-62     	;abs 0x6d80
    6dc0:	b2 40 03 00 80 17 	mov	#3,	&0x1780	;#0x0003
    6dc6:	3e 40 18 00 	mov	#24,	r14	;#0x0018
    6dca:	7f 40 1d 00 	mov.b	#29,	r15	;#0x001d
    6dce:	b0 12 56 50 	call	#0x5056	
    6dd2:	f2 f0 ef ff 25 00 	and.b	#-17,	&0x0025	;#0xffef
    6dd8:	f2 f0 ef ff 23 00 	and.b	#-17,	&0x0023	;#0xffef
    6dde:	f2 f0 ef ff 24 00 	and.b	#-17,	&0x0024	;#0xffef
    6de4:	f2 d0 10 00 25 00 	bis.b	#16,	&0x0025	;#0x0010
    6dea:	5f 43       	mov.b	#1,	r15	;r3 As==01
    6dec:	b0 12 ea 4a 	call	#0x4aea	
    6df0:	3e 40 7f 02 	mov	#639,	r14	;#0x027f
    6df4:	7f 40 1c 00 	mov.b	#28,	r15	;#0x001c
    6df8:	b0 12 56 50 	call	#0x5056	
    6dfc:	b0 12 00 54 	call	#0x5400	
    6e00:	b0 12 2c 54 	call	#0x542c	
    6e04:	3e 40 56 2a 	mov	#10838,	r14	;#0x2a56
    6e08:	7f 40 17 00 	mov.b	#23,	r15	;#0x0017
    6e0c:	b0 12 56 50 	call	#0x5056	
    6e10:	3e 40 ff 80 	mov	#-32513,r14	;#0x80ff
    6e14:	7f 40 15 00 	mov.b	#21,	r15	;#0x0015
    6e18:	b0 12 56 50 	call	#0x5056	
    6e1c:	b0 3f       	jmp	$-158    	;abs 0x6d7e
    6e1e:	b0 12 3a 4b 	call	#0x4b3a	
    6e22:	7f 40 06 00 	mov.b	#6,	r15	;#0x0006
    6e26:	b0 12 ea 4a 	call	#0x4aea	
    6e2a:	b0 12 00 54 	call	#0x5400	
    6e2e:	b0 12 2c 54 	call	#0x542c	
    6e32:	b0 12 12 51 	call	#0x5112	
    6e36:	b0 12 48 4d 	call	#0x4d48	
    6e3a:	b0 12 3a 4b 	call	#0x4b3a	
    6e3e:	7f 40 03 00 	mov.b	#3,	r15	;#0x0003
    6e42:	b0 12 ea 4a 	call	#0x4aea	
    6e46:	b0 12 48 4d 	call	#0x4d48	
    6e4a:	5f 43       	mov.b	#1,	r15	;r3 As==01
    6e4c:	b0 12 56 4d 	call	#0x4d56	
    6e50:	6f 42       	mov.b	#4,	r15	;r2 As==10
    6e52:	b0 12 4a 4b 	call	#0x4b4a	
    6e56:	30 40 2e 76 	br	#0x762e	
    6e5a:	b0 12 3a 4b 	call	#0x4b3a	
    6e5e:	b0 12 3a 4a 	call	#0x4a3a	
    6e62:	4b 4f       	mov.b	r15,	r11	
    6e64:	b0 12 d0 4a 	call	#0x4ad0	
    6e68:	4f 93       	tst.b	r15		
    6e6a:	04 24       	jz	$+10     	;abs 0x6e74
    6e6c:	4f 4b       	mov.b	r11,	r15	
    6e6e:	b0 12 4c 4a 	call	#0x4a4c	
    6e72:	0d 3c       	jmp	$+28     	;abs 0x6e8e
    6e74:	4f 4b       	mov.b	r11,	r15	
    6e76:	b0 12 4c 4a 	call	#0x4a4c	
    6e7a:	7f 40 53 00 	mov.b	#83,	r15	;#0x0053
    6e7e:	b0 12 0a 46 	call	#0x460a	
    6e82:	4f 43       	clr.b	r15		
    6e84:	b0 12 0a 46 	call	#0x460a	
    6e88:	4f 43       	clr.b	r15		
    6e8a:	b0 12 0a 46 	call	#0x460a	
    6e8e:	b0 12 48 4d 	call	#0x4d48	
    6e92:	6f 43       	mov.b	#2,	r15	;r3 As==10
    6e94:	b0 12 56 4d 	call	#0x4d56	
    6e98:	30 40 2e 76 	br	#0x762e	
    6e9c:	b0 12 3a 4a 	call	#0x4a3a	
    6ea0:	5b 42 6c 17 	mov.b	&0x176c,r11	
    6ea4:	b0 12 4c 4a 	call	#0x4a4c	
    6ea8:	6b 92       	cmp.b	#4,	r11	;r2 As==10
    6eaa:	08 24       	jz	$+18     	;abs 0x6ebc
    6eac:	7b 92       	cmp.b	#8,	r11	;r2 As==11
    6eae:	0a 24       	jz	$+22     	;abs 0x6ec4
    6eb0:	6b 93       	cmp.b	#2,	r11	;r3 As==10
    6eb2:	1e 20       	jnz	$+62     	;abs 0x6ef0
    6eb4:	b0 12 0a 53 	call	#0x530a	
    6eb8:	30 40 2e 76 	br	#0x762e	
    6ebc:	b0 12 be 4f 	call	#0x4fbe	
    6ec0:	30 40 2e 76 	br	#0x762e	
    6ec4:	b0 12 3a 4b 	call	#0x4b3a	
    6ec8:	7f 40 09 00 	mov.b	#9,	r15	;#0x0009
    6ecc:	b0 12 ea 4a 	call	#0x4aea	
    6ed0:	b0 12 48 4d 	call	#0x4d48	
    6ed4:	b0 12 12 4e 	call	#0x4e12	
    6ed8:	b0 12 3a 4a 	call	#0x4a3a	
    6edc:	92 43 6c 17 	mov	#1,	&0x176c	;r3 As==01
    6ee0:	b0 12 4c 4a 	call	#0x4a4c	
    6ee4:	7f 40 03 00 	mov.b	#3,	r15	;#0x0003
    6ee8:	b0 12 14 4d 	call	#0x4d14	
    6eec:	30 40 2e 76 	br	#0x762e	
    6ef0:	b0 12 12 4e 	call	#0x4e12	
    6ef4:	30 40 2e 76 	br	#0x762e	
    6ef8:	b0 12 04 4d 	call	#0x4d04	
    6efc:	30 40 2e 76 	br	#0x762e	
    6f00:	b0 12 3a 4a 	call	#0x4a3a	
    6f04:	81 4f 26 00 	mov	r15,	38(r1)	;0x0026(r1)
    6f08:	b0 12 e4 57 	call	#0x57e4	
    6f0c:	30 40 90 75 	br	#0x7590	
    6f10:	b0 12 3a 4a 	call	#0x4a3a	
    6f14:	d2 42 be 1b 10 11 	mov.b	&0x1bbe,&0x1110	
    6f1a:	f2 40 03 00 7a 17 	mov.b	#3,	&0x177a	;#0x0003
    6f20:	b0 12 4c 4a 	call	#0x4a4c	
    6f24:	c2 93 10 11 	tst.b	&0x1110	
    6f28:	02 20       	jnz	$+6      	;abs 0x6f2e
    6f2a:	b0 12 48 56 	call	#0x5648	
    6f2e:	c2 93 10 11 	tst.b	&0x1110	
    6f32:	02 24       	jz	$+6      	;abs 0x6f38
    6f34:	30 40 2e 76 	br	#0x762e	
    6f38:	7f 40 05 00 	mov.b	#5,	r15	;#0x0005
    6f3c:	8a 3f       	jmp	$-234    	;abs 0x6e52
    6f3e:	1a 42 86 17 	mov	&0x1786,r10	
    6f42:	69 4a       	mov.b	@r10,	r9	
    6f44:	4e 49       	mov.b	r9,	r14	
    6f46:	0e 5a       	add	r10,	r14	
    6f48:	6f 4e       	mov.b	@r14,	r15	
    6f4a:	4f 5f       	rla.b	r15		
    6f4c:	0f 43       	clr	r15		
    6f4e:	0f 6f       	rlc	r15		
    6f50:	ca 4f 2b 00 	mov.b	r15,	43(r10)	;0x002b(r10)
    6f54:	66 4e       	mov.b	@r14,	r6	
    6f56:	76 f0 7f 00 	and.b	#127,	r6	;#0x007f
    6f5a:	ca 46 29 00 	mov.b	r6,	41(r10)	;0x0029(r10)
    6f5e:	da 4e ff ff 28 00 	mov.b	-1(r14),40(r10)	;0xffff(r14), 0x0028(r10)
    6f64:	58 4a 02 00 	mov.b	2(r10),	r8	;0x0002(r10)
    6f68:	5b 4a 01 00 	mov.b	1(r10),	r11	;0x0001(r10)
    6f6c:	b0 12 3a 4a 	call	#0x4a3a	
    6f70:	57 42 84 1a 	mov.b	&0x1a84,r7	
    6f74:	b0 12 4c 4a 	call	#0x4a4c	
    6f78:	47 93       	tst.b	r7		
    6f7a:	48 24       	jz	$+146    	;abs 0x700c
    6f7c:	4e 48       	mov.b	r8,	r14	
    6f7e:	8e 10       	swpb	r14		
    6f80:	4f 4b       	mov.b	r11,	r15	
    6f82:	0e df       	bis	r15,	r14	
    6f84:	8e 10       	swpb	r14		
    6f86:	4e 4e       	mov.b	r14,	r14	
    6f88:	12 c3       	clrc			
    6f8a:	0e 10       	rrc	r14		
    6f8c:	12 c3       	clrc			
    6f8e:	0e 10       	rrc	r14		
    6f90:	3e f0 03 00 	and	#3,	r14	;#0x0003
    6f94:	2e 93       	cmp	#2,	r14	;r3 As==10
    6f96:	1e 20       	jnz	$+62     	;abs 0x6fd4
    6f98:	58 4a 07 00 	mov.b	7(r10),	r8	;0x0007(r10)
    6f9c:	88 10       	swpb	r8		
    6f9e:	5f 4a 06 00 	mov.b	6(r10),	r15	;0x0006(r10)
    6fa2:	08 df       	bis	r15,	r8	
    6fa4:	b0 12 3a 4a 	call	#0x4a3a	
    6fa8:	1b 42 e6 1a 	mov	&0x1ae6,r11	
    6fac:	b0 12 4c 4a 	call	#0x4a4c	
    6fb0:	08 9b       	cmp	r11,	r8	
    6fb2:	0b 24       	jz	$+24     	;abs 0x6fca
    6fb4:	5f 4a 07 00 	mov.b	7(r10),	r15	;0x0007(r10)
    6fb8:	8f 10       	swpb	r15		
    6fba:	5e 4a 06 00 	mov.b	6(r10),	r14	;0x0006(r10)
    6fbe:	0f de       	bis	r14,	r15	
    6fc0:	1e 43       	mov	#1,	r14	;r3 As==01
    6fc2:	3f 93       	cmp	#-1,	r15	;r3 As==11
    6fc4:	03 24       	jz	$+8      	;abs 0x6fcc
    6fc6:	0e 43       	clr	r14		
    6fc8:	01 3c       	jmp	$+4      	;abs 0x6fcc
    6fca:	1e 43       	mov	#1,	r14	;r3 As==01
    6fcc:	0e 93       	tst	r14		
    6fce:	1e 20       	jnz	$+62     	;abs 0x700c
    6fd0:	30 40 62 74 	br	#0x7462	
    6fd4:	3e 90 03 00 	cmp	#3,	r14	;#0x0003
    6fd8:	02 24       	jz	$+6      	;abs 0x6fde
    6fda:	30 40 62 74 	br	#0x7462	
    6fde:	91 42 b6 1b 00 00 	mov	&0x1bb6,0(r1)	;0x0000(r1)
    6fe4:	91 42 b8 1b 02 00 	mov	&0x1bb8,2(r1)	;0x0002(r1)
    6fea:	91 42 ba 1b 04 00 	mov	&0x1bba,4(r1)	;0x0004(r1)
    6ff0:	91 42 bc 1b 06 00 	mov	&0x1bbc,6(r1)	;0x0006(r1)
    6ff6:	3d 42       	mov	#8,	r13	;r2 As==11
    6ff8:	0e 41       	mov	r1,	r14	
    6ffa:	0f 4a       	mov	r10,	r15	
    6ffc:	3f 50 06 00 	add	#6,	r15	;#0x0006
    7000:	b0 12 da 88 	call	#0x88da	
    7004:	0f 93       	tst	r15		
    7006:	02 24       	jz	$+6      	;abs 0x700c
    7008:	30 40 62 74 	br	#0x7462	
    700c:	79 90 0d 00 	cmp.b	#13,	r9	;#0x000d
    7010:	02 2c       	jc	$+6      	;abs 0x7016
    7012:	30 40 62 74 	br	#0x7462	
    7016:	17 42 86 17 	mov	&0x1786,r7	
    701a:	5d 47 02 00 	mov.b	2(r7),	r13	;0x0002(r7)
    701e:	8d 10       	swpb	r13		
    7020:	5e 47 01 00 	mov.b	1(r7),	r14	;0x0001(r7)
    7024:	0d de       	bis	r14,	r13	
    7026:	0e 4d       	mov	r13,	r14	
    7028:	8e 10       	swpb	r14		
    702a:	4e 4e       	mov.b	r14,	r14	
    702c:	12 c3       	clrc			
    702e:	0e 10       	rrc	r14		
    7030:	12 c3       	clrc			
    7032:	0e 10       	rrc	r14		
    7034:	3e f0 03 00 	and	#3,	r14	;#0x0003
    7038:	0a 47       	mov	r7,	r10	
    703a:	3a 50 06 00 	add	#6,	r10	;#0x0006
    703e:	8d 10       	swpb	r13		
    7040:	4d 4d       	mov.b	r13,	r13	
    7042:	7c 40 06 00 	mov.b	#6,	r12	;#0x0006
    7046:	12 c3       	clrc			
    7048:	0d 10       	rrc	r13		
    704a:	7c 53       	add.b	#-1,	r12	;r3 As==11
    704c:	fc 23       	jnz	$-6      	;abs 0x7046
    704e:	3d 90 03 00 	cmp	#3,	r13	;#0x0003
    7052:	02 24       	jz	$+6      	;abs 0x7058
    7054:	2d 43       	mov	#2,	r13	;r3 As==10
    7056:	01 3c       	jmp	$+4      	;abs 0x705a
    7058:	3d 42       	mov	#8,	r13	;r2 As==11
    705a:	3e 90 03 00 	cmp	#3,	r14	;#0x0003
    705e:	02 24       	jz	$+6      	;abs 0x7064
    7060:	2e 43       	mov	#2,	r14	;r3 As==10
    7062:	01 3c       	jmp	$+4      	;abs 0x7066
    7064:	3e 42       	mov	#8,	r14	;r2 As==11
    7066:	0a 5e       	add	r14,	r10	
    7068:	0b 43       	clr	r11		
    706a:	0e 43       	clr	r14		
    706c:	0f 4a       	mov	r10,	r15	
    706e:	0f 5e       	add	r14,	r15	
    7070:	6f 4f       	mov.b	@r15,	r15	
    7072:	0b 5f       	add	r15,	r11	
    7074:	1e 53       	inc	r14		
    7076:	0e 9d       	cmp	r13,	r14	
    7078:	f9 3b       	jl	$-12     	;abs 0x706c
    707a:	58 47 03 00 	mov.b	3(r7),	r8	;0x0003(r7)
    707e:	f2 43 e2 20 	mov.b	#-1,	&0x20e2	;r3 As==11
    7082:	b0 12 3a 4a 	call	#0x4a3a	
    7086:	5c 42 e2 20 	mov.b	&0x20e2,r12	
    708a:	3e 40 ca 18 	mov	#6346,	r14	;#0x18ca
    708e:	0d 43       	clr	r13		
    7090:	2b 9e       	cmp	@r14,	r11	
    7092:	0a 20       	jnz	$+22     	;abs 0x70a8
    7094:	ce 98 02 00 	cmp.b	r8,	2(r14)	;0x0002(r14)
    7098:	06 20       	jnz	$+14     	;abs 0x70a6
    709a:	c2 4c e2 20 	mov.b	r12,	&0x20e2	
    709e:	b0 12 4c 4a 	call	#0x4a4c	
    70a2:	30 40 5e 74 	br	#0x745e	
    70a6:	4c 4d       	mov.b	r13,	r12	
    70a8:	1d 53       	inc	r13		
    70aa:	2e 52       	add	#4,	r14	;r2 As==10
    70ac:	2d 92       	cmp	#4,	r13	;r2 As==10
    70ae:	f0 23       	jnz	$-30     	;abs 0x7090
    70b0:	c2 4c e2 20 	mov.b	r12,	&0x20e2	
    70b4:	b0 12 4c 4a 	call	#0x4a4c	
    70b8:	5a 42 e2 20 	mov.b	&0x20e2,r10	
    70bc:	b0 12 3a 4a 	call	#0x4a3a	
    70c0:	7a 93       	cmp.b	#-1,	r10	;r3 As==11
    70c2:	03 24       	jz	$+8      	;abs 0x70ca
    70c4:	c2 9a 68 17 	cmp.b	r10,	&0x1768	
    70c8:	04 20       	jnz	$+10     	;abs 0x70d2
    70ca:	5a 42 68 17 	mov.b	&0x1768,r10	
    70ce:	5d 43       	mov.b	#1,	r13	;r3 As==01
    70d0:	01 3c       	jmp	$+4      	;abs 0x70d4
    70d2:	4d 43       	clr.b	r13		
    70d4:	4e 4a       	mov.b	r10,	r14	
    70d6:	0e 5e       	rla	r14		
    70d8:	0e 5e       	rla	r14		
    70da:	8e 4b ca 18 	mov	r11,	6346(r14);0x18ca(r14)
    70de:	ce 48 cc 18 	mov.b	r8,	6348(r14);0x18cc(r14)
    70e2:	4d 93       	tst.b	r13		
    70e4:	07 24       	jz	$+16     	;abs 0x70f4
    70e6:	5e 42 68 17 	mov.b	&0x1768,r14	
    70ea:	5e 53       	inc.b	r14		
    70ec:	7e f0 03 00 	and.b	#3,	r14	;#0x0003
    70f0:	c2 4e 68 17 	mov.b	r14,	&0x1768	
    70f4:	b0 12 4c 4a 	call	#0x4a4c	
    70f8:	b0 12 3a 4a 	call	#0x4a3a	
    70fc:	4a 4f       	mov.b	r15,	r10	
    70fe:	0f 47       	mov	r7,	r15	
    7100:	b0 12 ca 46 	call	#0x46ca	
    7104:	6b 4f       	mov.b	@r15,	r11	
    7106:	4f 4a       	mov.b	r10,	r15	
    7108:	b0 12 4c 4a 	call	#0x4a4c	
    710c:	c7 93 2b 00 	tst.b	43(r7)		;0x002b(r7)
    7110:	02 20       	jnz	$+6      	;abs 0x7116
    7112:	30 40 5e 74 	br	#0x745e	
    7116:	7b 90 3f 00 	cmp.b	#63,	r11	;#0x003f
    711a:	02 24       	jz	$+6      	;abs 0x7120
    711c:	30 40 5e 74 	br	#0x745e	
    7120:	5a 47 07 00 	mov.b	7(r7),	r10	;0x0007(r7)
    7124:	8a 10       	swpb	r10		
    7126:	5e 47 06 00 	mov.b	6(r7),	r14	;0x0006(r7)
    712a:	0a de       	bis	r14,	r10	
    712c:	b0 12 3a 4a 	call	#0x4a3a	
    7130:	1b 42 0e 11 	mov	&0x110e,r11	
    7134:	b0 12 4c 4a 	call	#0x4a4c	
    7138:	0a 9b       	cmp	r11,	r10	
    713a:	0b 24       	jz	$+24     	;abs 0x7152
    713c:	5e 47 07 00 	mov.b	7(r7),	r14	;0x0007(r7)
    7140:	8e 10       	swpb	r14		
    7142:	5d 47 06 00 	mov.b	6(r7),	r13	;0x0006(r7)
    7146:	0e dd       	bis	r13,	r14	
    7148:	1d 43       	mov	#1,	r13	;r3 As==01
    714a:	3e 93       	cmp	#-1,	r14	;r3 As==11
    714c:	03 24       	jz	$+8      	;abs 0x7154
    714e:	0d 43       	clr	r13		
    7150:	01 3c       	jmp	$+4      	;abs 0x7154
    7152:	1d 43       	mov	#1,	r13	;r3 As==01
    7154:	0d 93       	tst	r13		
    7156:	02 20       	jnz	$+6      	;abs 0x715c
    7158:	30 40 5e 74 	br	#0x745e	
    715c:	79 50 f3 ff 	add.b	#-13,	r9	;#0xfff3
    7160:	5e 47 0b 00 	mov.b	11(r7),	r14	;0x000b(r7)
    7164:	4e 93       	tst.b	r14		
    7166:	05 24       	jz	$+12     	;abs 0x7172
    7168:	6e 93       	cmp.b	#2,	r14	;r3 As==10
    716a:	02 24       	jz	$+6      	;abs 0x7170
    716c:	30 40 5e 74 	br	#0x745e	
    7170:	36 3c       	jmp	$+110    	;abs 0x71de
    7172:	79 90 06 00 	cmp.b	#6,	r9	;#0x0006
    7176:	02 24       	jz	$+6      	;abs 0x717c
    7178:	30 40 5e 74 	br	#0x745e	
    717c:	5e 47 0c 00 	mov.b	12(r7),	r14	;0x000c(r7)
    7180:	8e 10       	swpb	r14		
    7182:	5d 47 0d 00 	mov.b	13(r7),	r13	;0x000d(r7)
    7186:	0e dd       	bis	r13,	r14	
    7188:	1e 92 62 17 	cmp	&0x1762,r14	
    718c:	02 24       	jz	$+6      	;abs 0x7192
    718e:	30 40 5e 74 	br	#0x745e	
    7192:	5e 47 10 00 	mov.b	16(r7),	r14	;0x0010(r7)
    7196:	8e 10       	swpb	r14		
    7198:	5d 47 11 00 	mov.b	17(r7),	r13	;0x0011(r7)
    719c:	0e dd       	bis	r13,	r14	
    719e:	0e 93       	tst	r14		
    71a0:	0e 20       	jnz	$+30     	;abs 0x71be
    71a2:	5e 47 0e 00 	mov.b	14(r7),	r14	;0x000e(r7)
    71a6:	8e 10       	swpb	r14		
    71a8:	5d 47 0f 00 	mov.b	15(r7),	r13	;0x000f(r7)
    71ac:	0e dd       	bis	r13,	r14	
    71ae:	3f 40 f0 1a 	mov	#6896,	r15	;#0x1af0
    71b2:	b0 12 10 7a 	call	#0x7a10	
    71b6:	82 43 8e 17 	mov	#0,	&0x178e	;r3 As==00
    71ba:	30 40 5e 74 	br	#0x745e	
    71be:	1e 93       	cmp	#1,	r14	;r3 As==01
    71c0:	02 24       	jz	$+6      	;abs 0x71c6
    71c2:	30 40 5e 74 	br	#0x745e	
    71c6:	5e 47 0e 00 	mov.b	14(r7),	r14	;0x000e(r7)
    71ca:	8e 10       	swpb	r14		
    71cc:	5d 47 0f 00 	mov.b	15(r7),	r13	;0x000f(r7)
    71d0:	0e dd       	bis	r13,	r14	
    71d2:	3f 40 c2 1b 	mov	#7106,	r15	;#0x1bc2
    71d6:	b0 12 10 7a 	call	#0x7a10	
    71da:	30 40 5e 74 	br	#0x745e	
    71de:	69 92       	cmp.b	#4,	r9	;r2 As==10
    71e0:	02 24       	jz	$+6      	;abs 0x71e6
    71e2:	30 40 5e 74 	br	#0x745e	
    71e6:	56 47 0c 00 	mov.b	12(r7),	r6	;0x000c(r7)
    71ea:	86 10       	swpb	r6		
    71ec:	5e 47 0d 00 	mov.b	13(r7),	r14	;0x000d(r7)
    71f0:	06 de       	bis	r14,	r6	
    71f2:	16 92 62 17 	cmp	&0x1762,r6	
    71f6:	02 24       	jz	$+6      	;abs 0x71fc
    71f8:	30 40 5e 74 	br	#0x745e	
    71fc:	5e 47 0e 00 	mov.b	14(r7),	r14	;0x000e(r7)
    7200:	8e 10       	swpb	r14		
    7202:	5c 47 0f 00 	mov.b	15(r7),	r12	;0x000f(r7)
    7206:	0e dc       	bis	r12,	r14	
    7208:	81 4e 1c 00 	mov	r14,	28(r1)	;0x001c(r1)
    720c:	3e 40 c8 00 	mov	#200,	r14	;#0x00c8
    7210:	1f 42 d4 20 	mov	&0x20d4,r15	
    7214:	b0 12 1a 7b 	call	#0x7b1a	
    7218:	0d 4f       	mov	r15,	r13	
    721a:	3d 53       	add	#-1,	r13	;r3 As==11
    721c:	d1 4d 92 1b 22 00 	mov.b	7058(r13),34(r1)	;0x1b92(r13), 0x0022(r1)
    7222:	d1 4d 70 1a 23 00 	mov.b	6768(r13),35(r1)	;0x1a70(r13), 0x0023(r1)
    7228:	1e 42 dc 18 	mov	&0x18dc,r14	
    722c:	0f 43       	clr	r15		
    722e:	b0 12 e0 83 	call	#0x83e0	
    7232:	3c 40 00 50 	mov	#20480,	r12	;#0x5000
    7236:	3d 40 43 48 	mov	#18499,	r13	;#0x4843
    723a:	b0 12 0a 81 	call	#0x810a	
    723e:	0c 4e       	mov	r14,	r12	
    7240:	0d 4f       	mov	r15,	r13	
    7242:	0e 43       	clr	r14		
    7244:	3f 40 80 3f 	mov	#16256,	r15	;#0x3f80
    7248:	b0 12 96 7e 	call	#0x7e96	
    724c:	81 4e 08 00 	mov	r14,	8(r1)	;0x0008(r1)
    7250:	81 4f 0a 00 	mov	r15,	10(r1)	;0x000a(r1)
    7254:	39 40 dc 18 	mov	#6364,	r9	;#0x18dc
    7258:	08 41       	mov	r1,	r8	
    725a:	38 50 0c 00 	add	#12,	r8	;#0x000c
    725e:	2e 49       	mov	@r9,	r14	
    7260:	0f 43       	clr	r15		
    7262:	b0 12 e0 83 	call	#0x83e0	
    7266:	0c 43       	clr	r12		
    7268:	3d 40 7a 44 	mov	#17530,	r13	;#0x447a
    726c:	b0 12 0a 81 	call	#0x810a	
    7270:	0a 4e       	mov	r14,	r10	
    7272:	0b 4f       	mov	r15,	r11	
    7274:	1e 49 02 00 	mov	2(r9),	r14	;0x0002(r9)
    7278:	0f 43       	clr	r15		
    727a:	b0 12 e0 83 	call	#0x83e0	
    727e:	0c 43       	clr	r12		
    7280:	3d 40 7a 44 	mov	#17530,	r13	;#0x447a
    7284:	b0 12 0a 81 	call	#0x810a	
    7288:	0c 4e       	mov	r14,	r12	
    728a:	0d 4f       	mov	r15,	r13	
    728c:	0e 4a       	mov	r10,	r14	
    728e:	0f 4b       	mov	r11,	r15	
    7290:	b0 12 96 7e 	call	#0x7e96	
    7294:	0c 43       	clr	r12		
    7296:	3d 40 48 43 	mov	#17224,	r13	;#0x4348
    729a:	b0 12 0a 81 	call	#0x810a	
    729e:	88 4e 00 00 	mov	r14,	0(r8)	;0x0000(r8)
    72a2:	88 4f 02 00 	mov	r15,	2(r8)	;0x0002(r8)
    72a6:	29 53       	incd	r9		
    72a8:	28 52       	add	#4,	r8	;r2 As==10
    72aa:	39 90 e4 18 	cmp	#6372,	r9	;#0x18e4
    72ae:	d7 23       	jnz	$-80     	;abs 0x725e
    72b0:	5a 42 eb 20 	mov.b	&0x20eb,r10	
    72b4:	09 41       	mov	r1,	r9	
    72b6:	39 52       	add	#8,	r9	;r2 As==11
    72b8:	04 43       	clr	r4		
    72ba:	05 43       	clr	r5		
    72bc:	0b 43       	clr	r11		
    72be:	0e 44       	mov	r4,	r14	
    72c0:	0f 45       	mov	r5,	r15	
    72c2:	3c 49       	mov	@r9+,	r12	
    72c4:	3d 49       	mov	@r9+,	r13	
    72c6:	b0 12 4a 7e 	call	#0x7e4a	
    72ca:	1b 53       	inc	r11		
    72cc:	0a 9b       	cmp	r11,	r10	
    72ce:	f9 37       	jge	$-12     	;abs 0x72c2
    72d0:	04 4e       	mov	r14,	r4	
    72d2:	05 4f       	mov	r15,	r5	
    72d4:	0a 5b       	add	r11,	r10	
    72d6:	81 4a 24 00 	mov	r10,	36(r1)	;0x0024(r1)
    72da:	b1 40 c8 00 20 00 	mov	#200,	32(r1)	;#0x00c8, 0x0020(r1)
    72e0:	91 82 8c 1b 20 00 	sub	&0x1b8c,32(r1)	;0x0020(r1)
    72e6:	81 4a 1e 00 	mov	r10,	30(r1)	;0x001e(r1)
    72ea:	09 43       	clr	r9		
    72ec:	31 3c       	jmp	$+100    	;abs 0x7350
    72ee:	1f 41 24 00 	mov	36(r1),	r15	;0x0024(r1)
    72f2:	0f 5f       	rla	r15		
    72f4:	0f 5f       	rla	r15		
    72f6:	38 42       	mov	#8,	r8	;r2 As==11
    72f8:	08 51       	add	r1,	r8	
    72fa:	08 5f       	add	r15,	r8	
    72fc:	08 59       	add	r9,	r8	
    72fe:	1e 41 1c 00 	mov	28(r1),	r14	;0x001c(r1)
    7302:	0f 43       	clr	r15		
    7304:	b0 12 e0 83 	call	#0x83e0	
    7308:	0a 4e       	mov	r14,	r10	
    730a:	0b 4f       	mov	r15,	r11	
    730c:	1e 41 20 00 	mov	32(r1),	r14	;0x0020(r1)
    7310:	0f 43       	clr	r15		
    7312:	b0 12 e0 83 	call	#0x83e0	
    7316:	0c 4e       	mov	r14,	r12	
    7318:	0d 4f       	mov	r15,	r13	
    731a:	0e 4a       	mov	r10,	r14	
    731c:	0f 4b       	mov	r11,	r15	
    731e:	b0 12 0a 81 	call	#0x810a	
    7322:	0c 4e       	mov	r14,	r12	
    7324:	0d 4f       	mov	r15,	r13	
    7326:	0e 43       	clr	r14		
    7328:	3f 40 80 3f 	mov	#16256,	r15	;#0x3f80
    732c:	b0 12 96 7e 	call	#0x7e96	
    7330:	2c 48       	mov	@r8,	r12	
    7332:	1d 48 02 00 	mov	2(r8),	r13	;0x0002(r8)
    7336:	b0 12 e6 7e 	call	#0x7ee6	
    733a:	0c 4e       	mov	r14,	r12	
    733c:	0d 4f       	mov	r15,	r13	
    733e:	0e 44       	mov	r4,	r14	
    7340:	0f 45       	mov	r5,	r15	
    7342:	b0 12 4a 7e 	call	#0x7e4a	
    7346:	04 4e       	mov	r14,	r4	
    7348:	05 4f       	mov	r15,	r5	
    734a:	91 53 1e 00 	inc	30(r1)		;0x001e(r1)
    734e:	29 52       	add	#4,	r9	;r2 As==10
    7350:	b1 90 05 00 1e 00 	cmp	#5,	30(r1)	;#0x0005, 0x001e(r1)
    7356:	cb 3b       	jl	$-104    	;abs 0x72ee
    7358:	5c 41 22 00 	mov.b	34(r1),	r12	;0x0022(r1)
    735c:	3e 40 05 00 	mov	#5,	r14	;#0x0005
    7360:	1f 41 1c 00 	mov	28(r1),	r15	;0x001c(r1)
    7364:	0f 8c       	sub	r12,	r15	
    7366:	b0 12 1a 7b 	call	#0x7b1a	
    736a:	02 12       	push	r2		
    736c:	32 c2       	dint			
    736e:	03 43       	nop			
    7370:	d2 41 25 00 30 01 	mov.b	37(r1),	&0x0130	;0x0025(r1)
    7376:	f2 40 cd ff 38 01 	mov.b	#-51,	&0x0138	;#0xffcd
    737c:	1d 42 3a 01 	mov	&0x013a,r13	
    7380:	32 41       	pop	r2		
    7382:	8d 10       	swpb	r13		
    7384:	12 c3       	clrc			
    7386:	4d 10       	rrc.b	r13		
    7388:	12 c3       	clrc			
    738a:	4d 10       	rrc.b	r13		
    738c:	4c 4d       	mov.b	r13,	r12	
    738e:	0f 5c       	add	r12,	r15	
    7390:	0d 4f       	mov	r15,	r13	
    7392:	8d 10       	swpb	r13		
    7394:	8d 11       	sxt	r13		
    7396:	8d 10       	swpb	r13		
    7398:	8d 11       	sxt	r13		
    739a:	0e 4f       	mov	r15,	r14	
    739c:	0f 4d       	mov	r13,	r15	
    739e:	b0 12 aa 82 	call	#0x82aa	
    73a2:	0c 43       	clr	r12		
    73a4:	3d 40 20 42 	mov	#16928,	r13	;#0x4220
    73a8:	b0 12 0a 81 	call	#0x810a	
    73ac:	0a 4e       	mov	r14,	r10	
    73ae:	0b 4f       	mov	r15,	r11	
    73b0:	c2 46 9f 1a 	mov.b	r6,	&0x1a9f	
    73b4:	0d 46       	mov	r6,	r13	
    73b6:	8d 10       	swpb	r13		
    73b8:	c2 4d 9e 1a 	mov.b	r13,	&0x1a9e	
    73bc:	f2 40 b8 ff a1 1a 	mov.b	#-72,	&0x1aa1	;#0xffb8
    73c2:	f2 40 0b 00 a0 1a 	mov.b	#11,	&0x1aa0	;#0x000b
    73c8:	3c 40 00 40 	mov	#16384,	r12	;#0x4000
    73cc:	3d 40 1c 46 	mov	#17948,	r13	;#0x461c
    73d0:	0e 44       	mov	r4,	r14	
    73d2:	0f 45       	mov	r5,	r15	
    73d4:	b0 12 e6 7e 	call	#0x7ee6	
    73d8:	b0 12 76 7b 	call	#0x7b76	
    73dc:	c2 4e a4 1a 	mov.b	r14,	&0x1aa4	
    73e0:	8e 10       	swpb	r14		
    73e2:	c2 4e a3 1a 	mov.b	r14,	&0x1aa3	
    73e6:	3c 40 00 40 	mov	#16384,	r12	;#0x4000
    73ea:	3d 40 1c 46 	mov	#17948,	r13	;#0x461c
    73ee:	0e 4a       	mov	r10,	r14	
    73f0:	0f 4b       	mov	r11,	r15	
    73f2:	b0 12 e6 7e 	call	#0x7ee6	
    73f6:	b0 12 76 7b 	call	#0x7b76	
    73fa:	c2 4e ae 1a 	mov.b	r14,	&0x1aae	
    73fe:	8e 10       	swpb	r14		
    7400:	c2 4e ad 1a 	mov.b	r14,	&0x1aad	
    7404:	5e 47 0e 00 	mov.b	14(r7),	r14	;0x000e(r7)
    7408:	8e 10       	swpb	r14		
    740a:	5d 47 0f 00 	mov.b	15(r7),	r13	;0x000f(r7)
    740e:	0e dd       	bis	r13,	r14	
    7410:	c2 4e b0 1a 	mov.b	r14,	&0x1ab0	
    7414:	8e 10       	swpb	r14		
    7416:	c2 4e af 1a 	mov.b	r14,	&0x1aaf	
    741a:	d2 41 22 00 b2 1a 	mov.b	34(r1),	&0x1ab2	;0x0022(r1)
    7420:	c2 43 b1 1a 	mov.b	#0,	&0x1ab1	;r3 As==00
    7424:	d2 41 23 00 b4 1a 	mov.b	35(r1),	&0x1ab4	;0x0023(r1)
    742a:	c2 43 b3 1a 	mov.b	#0,	&0x1ab3	;r3 As==00
    742e:	f2 43 98 1a 	mov.b	#-1,	&0x1a98	;r3 As==11
    7432:	f2 43 99 1a 	mov.b	#-1,	&0x1a99	;r3 As==11
    7436:	f2 40 03 00 9d 1a 	mov.b	#3,	&0x1a9d	;#0x0003
    743c:	7d 40 19 00 	mov.b	#25,	r13	;#0x0019
    7440:	3e 40 92 1a 	mov	#6802,	r14	;#0x1a92
    7444:	6f 43       	mov.b	#2,	r15	;r3 As==10
    7446:	b0 12 7c 60 	call	#0x607c	
    744a:	4f 93       	tst.b	r15		
    744c:	04 20       	jnz	$+10     	;abs 0x7456
    744e:	d2 43 c6 1a 	mov.b	#1,	&0x1ac6	;r3 As==01
    7452:	b0 12 ac 53 	call	#0x53ac	
    7456:	82 4a 86 1b 	mov	r10,	&0x1b86	
    745a:	82 4b 88 1b 	mov	r11,	&0x1b88	
    745e:	82 47 86 17 	mov	r7,	&0x1786	
    7462:	b0 12 3a 4a 	call	#0x4a3a	
    7466:	c2 43 8e 1a 	mov.b	#0,	&0x1a8e	;r3 As==00
    746a:	b0 12 4c 4a 	call	#0x4a4c	
    746e:	b0 12 6e 57 	call	#0x576e	
    7472:	30 40 2e 76 	br	#0x762e	
    7476:	c2 93 6e 1a 	tst.b	&0x1a6e	
    747a:	28 20       	jnz	$+82     	;abs 0x74cc
    747c:	1a 42 c8 1b 	mov	&0x1bc8,r10	
    7480:	1b 42 ca 1b 	mov	&0x1bca,r11	
    7484:	b0 12 3a 4a 	call	#0x4a3a	
    7488:	18 42 86 1a 	mov	&0x1a86,r8	
    748c:	19 42 88 1a 	mov	&0x1a88,r9	
    7490:	18 52 8a 17 	add	&0x178a,r8	
    7494:	19 62 8c 17 	addc	&0x178c,r9	
    7498:	b0 12 4c 4a 	call	#0x4a4c	
    749c:	82 4a c8 1b 	mov	r10,	&0x1bc8	
    74a0:	82 4b ca 1b 	mov	r11,	&0x1bca	
    74a4:	c2 43 6e 1a 	mov.b	#0,	&0x1a6e	;r3 As==00
    74a8:	b0 12 3a 4a 	call	#0x4a3a	
    74ac:	82 48 8a 17 	mov	r8,	&0x178a	
    74b0:	82 49 8c 17 	mov	r9,	&0x178c	
    74b4:	82 4a 86 1a 	mov	r10,	&0x1a86	
    74b8:	82 4b 88 1a 	mov	r11,	&0x1a88	
    74bc:	81 4f 26 00 	mov	r15,	38(r1)	;0x0026(r1)
    74c0:	b0 12 f4 51 	call	#0x51f4	
    74c4:	1f 41 26 00 	mov	38(r1),	r15	;0x0026(r1)
    74c8:	b0 12 4c 4a 	call	#0x4a4c	
    74cc:	b0 12 78 51 	call	#0x5178	
    74d0:	48 3c       	jmp	$+146    	;abs 0x7562
    74d2:	b0 12 78 51 	call	#0x5178	
    74d6:	08 4e       	mov	r14,	r8	
    74d8:	09 4f       	mov	r15,	r9	
    74da:	b2 f0 ef ff 86 01 	and	#-17,	&0x0186	;#0xffef
    74e0:	e2 b3 76 1b 	bit.b	#2,	&0x1b76	;r3 As==10
    74e4:	15 24       	jz	$+44     	;abs 0x7510
    74e6:	0a 4e       	mov	r14,	r10	
    74e8:	0b 4f       	mov	r15,	r11	
    74ea:	1a 82 6e 1b 	sub	&0x1b6e,r10	
    74ee:	1b 72 70 1b 	subc	&0x1b70,r11	
    74f2:	16 42 72 1b 	mov	&0x1b72,r6	
    74f6:	17 42 74 1b 	mov	&0x1b74,r7	
    74fa:	06 8a       	sub	r10,	r6	
    74fc:	07 7b       	subc	r11,	r7	
    74fe:	0a 46       	mov	r6,	r10	
    7500:	0b 47       	mov	r7,	r11	
    7502:	36 93       	cmp	#-1,	r6	;r3 As==11
    7504:	0a 20       	jnz	$+22     	;abs 0x751a
    7506:	3b 90 ff 7f 	cmp	#32767,	r11	;#0x7fff
    750a:	07 20       	jnz	$+16     	;abs 0x751a
    750c:	4d 43       	clr.b	r13		
    750e:	06 3c       	jmp	$+14     	;abs 0x751c
    7510:	4d 43       	clr.b	r13		
    7512:	3a 43       	mov	#-1,	r10	;r3 As==11
    7514:	3b 40 ff 7f 	mov	#32767,	r11	;#0x7fff
    7518:	01 3c       	jmp	$+4      	;abs 0x751c
    751a:	5d 43       	mov.b	#1,	r13	;r3 As==01
    751c:	e2 b3 80 1b 	bit.b	#2,	&0x1b80	;r3 As==10
    7520:	16 24       	jz	$+46     	;abs 0x754e
    7522:	0e 48       	mov	r8,	r14	
    7524:	0f 49       	mov	r9,	r15	
    7526:	1e 82 78 1b 	sub	&0x1b78,r14	
    752a:	1f 72 7a 1b 	subc	&0x1b7a,r15	
    752e:	16 42 7c 1b 	mov	&0x1b7c,r6	
    7532:	17 42 7e 1b 	mov	&0x1b7e,r7	
    7536:	06 8e       	sub	r14,	r6	
    7538:	07 7f       	subc	r15,	r7	
    753a:	0e 46       	mov	r6,	r14	
    753c:	0f 47       	mov	r7,	r15	
    753e:	0f 9b       	cmp	r11,	r15	
    7540:	03 38       	jl	$+8      	;abs 0x7548
    7542:	05 20       	jnz	$+12     	;abs 0x754e
    7544:	06 9a       	cmp	r10,	r6	
    7546:	03 2c       	jc	$+8      	;abs 0x754e
    7548:	0a 4e       	mov	r14,	r10	
    754a:	0b 4f       	mov	r15,	r11	
    754c:	02 3c       	jmp	$+6      	;abs 0x7552
    754e:	4d 93       	tst.b	r13		
    7550:	6e 24       	jz	$+222    	;abs 0x762e
    7552:	0b 93       	tst	r11		
    7554:	04 38       	jl	$+10     	;abs 0x755e
    7556:	1b 93       	cmp	#1,	r11	;r3 As==01
    7558:	07 34       	jge	$+16     	;abs 0x7568
    755a:	1a 93       	cmp	#1,	r10	;r3 As==01
    755c:	05 2c       	jc	$+12     	;abs 0x7568
    755e:	0e 48       	mov	r8,	r14	
    7560:	0f 49       	mov	r9,	r15	
    7562:	b0 12 9e 64 	call	#0x649e	
    7566:	63 3c       	jmp	$+200    	;abs 0x762e
    7568:	82 4a c8 1b 	mov	r10,	&0x1bc8	
    756c:	82 4b ca 1b 	mov	r11,	&0x1bca	
    7570:	d2 43 6e 1a 	mov.b	#1,	&0x1a6e	;r3 As==01
    7574:	b0 12 3a 4a 	call	#0x4a3a	
    7578:	82 48 8a 17 	mov	r8,	&0x178a	
    757c:	82 49 8c 17 	mov	r9,	&0x178c	
    7580:	82 4a 86 1a 	mov	r10,	&0x1a86	
    7584:	82 4b 88 1a 	mov	r11,	&0x1a88	
    7588:	81 4f 26 00 	mov	r15,	38(r1)	;0x0026(r1)
    758c:	b0 12 f4 51 	call	#0x51f4	
    7590:	1f 41 26 00 	mov	38(r1),	r15	;0x0026(r1)
    7594:	30 40 80 6d 	br	#0x6d80	
    7598:	5f 42 d4 1a 	mov.b	&0x1ad4,r15	
    759c:	5f 92 0c 11 	cmp.b	&0x110c,r15	
    75a0:	46 24       	jz	$+142    	;abs 0x762e
    75a2:	c2 4f 0c 11 	mov.b	r15,	&0x110c	
    75a6:	4f 93       	tst.b	r15		
    75a8:	0d 20       	jnz	$+28     	;abs 0x75c4
    75aa:	1f 42 66 17 	mov	&0x1766,r15	
    75ae:	b0 12 ac 5e 	call	#0x5eac	
    75b2:	4f 93       	tst.b	r15		
    75b4:	3c 24       	jz	$+122    	;abs 0x762e
    75b6:	f2 43 0c 11 	mov.b	#-1,	&0x110c	;r3 As==11
    75ba:	1f 42 66 17 	mov	&0x1766,r15	
    75be:	b0 12 a4 6b 	call	#0x6ba4	
    75c2:	35 3c       	jmp	$+108    	;abs 0x762e
    75c4:	f2 43 0c 11 	mov.b	#-1,	&0x110c	;r3 As==11
    75c8:	32 3c       	jmp	$+102    	;abs 0x762e
    75ca:	c2 93 de 20 	tst.b	&0x20de	
    75ce:	2f 24       	jz	$+96     	;abs 0x762e
    75d0:	38 40 30 1b 	mov	#6960,	r8	;#0x1b30
    75d4:	4b 43       	clr.b	r11		
    75d6:	5a 43       	mov.b	#1,	r10	;r3 As==01
    75d8:	5f 42 de 20 	mov.b	&0x20de,r15	
    75dc:	4a bf       	bit.b	r15,	r10	
    75de:	09 24       	jz	$+20     	;abs 0x75f2
    75e0:	2e 48       	mov	@r8,	r14	
    75e2:	88 43 00 00 	mov	#0,	0(r8)	;r3 As==00, 0x0000(r8)
    75e6:	4f ca       	bic.b	r10,	r15	
    75e8:	c2 4f de 20 	mov.b	r15,	&0x20de	
    75ec:	4f 4b       	mov.b	r11,	r15	
    75ee:	b0 12 bc 53 	call	#0x53bc	
    75f2:	4a 5a       	rla.b	r10		
    75f4:	5b 53       	inc.b	r11		
    75f6:	28 53       	incd	r8		
    75f8:	7b 92       	cmp.b	#8,	r11	;r2 As==11
    75fa:	ee 23       	jnz	$-34     	;abs 0x75d8
    75fc:	18 3c       	jmp	$+50     	;abs 0x762e
    75fe:	5f 42 09 11 	mov.b	&0x1109,r15	
    7602:	4e 4f       	mov.b	r15,	r14	
    7604:	0e 5e       	rla	r14		
    7606:	1e 4e 30 1b 	mov	6960(r14),r14	;0x1b30(r14)
    760a:	b0 12 d6 6a 	call	#0x6ad6	
    760e:	0f 3c       	jmp	$+32     	;abs 0x762e
    7610:	b0 12 3a 4a 	call	#0x4a3a	
    7614:	d2 42 ca 1a 08 11 	mov.b	&0x1aca,&0x1108	
    761a:	f2 40 03 00 64 17 	mov.b	#3,	&0x1764	;#0x0003
    7620:	b0 12 4c 4a 	call	#0x4a4c	
    7624:	c2 93 08 11 	tst.b	&0x1108	
    7628:	02 20       	jnz	$+6      	;abs 0x762e
    762a:	b0 12 7e 54 	call	#0x547e	
    762e:	31 50 28 00 	add	#40,	r1	;#0x0028
    7632:	34 41       	pop	r4		
    7634:	35 41       	pop	r5		
    7636:	36 41       	pop	r6		
    7638:	37 41       	pop	r7		
    763a:	38 41       	pop	r8		
    763c:	39 41       	pop	r9		
    763e:	3a 41       	pop	r10		
    7640:	3b 41       	pop	r11		
    7642:	30 41       	ret			

00007644 <RealMainP__Scheduler__runNextTask>:
    7644:	f2 93 22 1c 	cmp.b	#-1,	&0x1c22	;r3 As==11
    7648:	08 24       	jz	$+18     	;abs 0x765a
    764a:	b0 12 0a 49 	call	#0x490a	
    764e:	7f 93       	cmp.b	#-1,	r15	;r3 As==11
    7650:	06 24       	jz	$+14     	;abs 0x765e
    7652:	b0 12 c2 6b 	call	#0x6bc2	
    7656:	5f 43       	mov.b	#1,	r15	;r3 As==01
    7658:	30 41       	ret			
    765a:	4f 43       	clr.b	r15		
    765c:	30 41       	ret			
    765e:	4f 43       	clr.b	r15		
    7660:	30 41       	ret			

00007662 <sig_TIMERA0_VECTOR>:
    7662:	0f 12       	push	r15		
    7664:	0e 12       	push	r14		
    7666:	0d 12       	push	r13		
    7668:	0c 12       	push	r12		
    766a:	4f 43       	clr.b	r15		
    766c:	b0 12 28 49 	call	#0x4928	
    7670:	3c 41       	pop	r12		
    7672:	3d 41       	pop	r13		
    7674:	3e 41       	pop	r14		
    7676:	3f 41       	pop	r15		
    7678:	b1 c0 f0 00 00 00 	bic	#240,	0(r1)	;#0x00f0, 0x0000(r1)
    767e:	00 13       	reti			

00007680 <sig_TIMERA1_VECTOR>:
    7680:	0f 12       	push	r15		
    7682:	0e 12       	push	r14		
    7684:	0d 12       	push	r13		
    7686:	0c 12       	push	r12		
    7688:	1f 42 2e 01 	mov	&0x012e,r15	
    768c:	4f 4f       	mov.b	r15,	r15	
    768e:	12 c3       	clrc			
    7690:	4f 10       	rrc.b	r15		
    7692:	b0 12 28 49 	call	#0x4928	
    7696:	3c 41       	pop	r12		
    7698:	3d 41       	pop	r13		
    769a:	3e 41       	pop	r14		
    769c:	3f 41       	pop	r15		
    769e:	b1 c0 f0 00 00 00 	bic	#240,	0(r1)	;#0x00f0, 0x0000(r1)
    76a4:	00 13       	reti			

000076a6 <sig_TIMERB0_VECTOR>:
    76a6:	0f 12       	push	r15		
    76a8:	0e 12       	push	r14		
    76aa:	0d 12       	push	r13		
    76ac:	0c 12       	push	r12		
    76ae:	4f 43       	clr.b	r15		
    76b0:	b0 12 f0 5a 	call	#0x5af0	
    76b4:	3c 41       	pop	r12		
    76b6:	3d 41       	pop	r13		
    76b8:	3e 41       	pop	r14		
    76ba:	3f 41       	pop	r15		
    76bc:	b1 c0 f0 00 00 00 	bic	#240,	0(r1)	;#0x00f0, 0x0000(r1)
    76c2:	00 13       	reti			

000076c4 <sig_TIMERB1_VECTOR>:
    76c4:	0f 12       	push	r15		
    76c6:	0e 12       	push	r14		
    76c8:	0d 12       	push	r13		
    76ca:	0c 12       	push	r12		
    76cc:	1f 42 1e 01 	mov	&0x011e,r15	
    76d0:	4f 4f       	mov.b	r15,	r15	
    76d2:	12 c3       	clrc			
    76d4:	4f 10       	rrc.b	r15		
    76d6:	b0 12 f0 5a 	call	#0x5af0	
    76da:	3c 41       	pop	r12		
    76dc:	3d 41       	pop	r13		
    76de:	3e 41       	pop	r14		
    76e0:	3f 41       	pop	r15		
    76e2:	b1 c0 f0 00 00 00 	bic	#240,	0(r1)	;#0x00f0, 0x0000(r1)
    76e8:	00 13       	reti			

000076ea <sig_PORT1_VECTOR>:
    76ea:	0f 12       	push	r15		
    76ec:	0e 12       	push	r14		
    76ee:	0d 12       	push	r13		
    76f0:	0c 12       	push	r12		
    76f2:	21 83       	decd	r1		
    76f4:	5e 42 23 00 	mov.b	&0x0023,r14	
    76f8:	5f 42 25 00 	mov.b	&0x0025,r15	
    76fc:	4f fe       	and.b	r14,	r15	
    76fe:	4f 4f       	mov.b	r15,	r15	
    7700:	81 4f 00 00 	mov	r15,	0(r1)	;0x0000(r1)
    7704:	91 b3 00 00 	bit	#1,	0(r1)	;r3 As==01, 0x0000(r1)
    7708:	0e 24       	jz	$+30     	;abs 0x7726
    770a:	f2 f0 fe ff 23 00 	and.b	#-2,	&0x0023	;#0xfffe
    7710:	92 93 34 1a 	cmp	#1,	&0x1a34	;r3 As==01
    7714:	05 20       	jnz	$+12     	;abs 0x7720
    7716:	a2 43 34 1a 	mov	#2,	&0x1a34	;r3 As==10
    771a:	b0 12 48 57 	call	#0x5748	
    771e:	55 3c       	jmp	$+172    	;abs 0x77ca
    7720:	d2 53 85 1a 	inc.b	&0x1a85	
    7724:	52 3c       	jmp	$+166    	;abs 0x77ca
    7726:	a1 b3 00 00 	bit	#2,	0(r1)	;r3 As==10, 0x0000(r1)
    772a:	05 24       	jz	$+12     	;abs 0x7736
    772c:	5f 42 23 00 	mov.b	&0x0023,r15	
    7730:	7f f0 fd ff 	and.b	#-3,	r15	;#0xfffd
    7734:	48 3c       	jmp	$+146    	;abs 0x77c6
    7736:	a1 b2 00 00 	bit	#4,	0(r1)	;r2 As==10, 0x0000(r1)
    773a:	05 24       	jz	$+12     	;abs 0x7746
    773c:	5f 42 23 00 	mov.b	&0x0023,r15	
    7740:	7f f0 fb ff 	and.b	#-5,	r15	;#0xfffb
    7744:	40 3c       	jmp	$+130    	;abs 0x77c6
    7746:	b1 b2 00 00 	bit	#8,	0(r1)	;r2 As==11, 0x0000(r1)
    774a:	05 24       	jz	$+12     	;abs 0x7756
    774c:	5f 42 23 00 	mov.b	&0x0023,r15	
    7750:	7f f0 f7 ff 	and.b	#-9,	r15	;#0xfff7
    7754:	38 3c       	jmp	$+114    	;abs 0x77c6
    7756:	b1 b0 10 00 00 00 	bit	#16,	0(r1)	;#0x0010, 0x0000(r1)
    775c:	1a 24       	jz	$+54     	;abs 0x7792
    775e:	f2 f0 ef ff 23 00 	and.b	#-17,	&0x0023	;#0xffef
    7764:	a2 42 80 17 	mov	#4,	&0x1780	;r2 As==10
    7768:	f2 f0 ef ff 25 00 	and.b	#-17,	&0x0025	;#0xffef
    776e:	f2 f0 ef ff 23 00 	and.b	#-17,	&0x0023	;#0xffef
    7774:	0e 43       	clr	r14		
    7776:	7f 40 1d 00 	mov.b	#29,	r15	;#0x001d
    777a:	b0 12 56 50 	call	#0x5056	
    777e:	b0 12 12 51 	call	#0x5112	
    7782:	b0 12 48 4d 	call	#0x4d48	
    7786:	b0 12 3a 4b 	call	#0x4b3a	
    778a:	4f 43       	clr.b	r15		
    778c:	b0 12 4a 4b 	call	#0x4b4a	
    7790:	1c 3c       	jmp	$+58     	;abs 0x77ca
    7792:	b1 b0 20 00 00 00 	bit	#32,	0(r1)	;#0x0020, 0x0000(r1)
    7798:	05 24       	jz	$+12     	;abs 0x77a4
    779a:	5f 42 23 00 	mov.b	&0x0023,r15	
    779e:	7f f0 df ff 	and.b	#-33,	r15	;#0xffdf
    77a2:	11 3c       	jmp	$+36     	;abs 0x77c6
    77a4:	b1 b0 40 00 00 00 	bit	#64,	0(r1)	;#0x0040, 0x0000(r1)
    77aa:	05 24       	jz	$+12     	;abs 0x77b6
    77ac:	5f 42 23 00 	mov.b	&0x0023,r15	
    77b0:	7f f0 bf ff 	and.b	#-65,	r15	;#0xffbf
    77b4:	08 3c       	jmp	$+18     	;abs 0x77c6
    77b6:	b1 b0 80 00 00 00 	bit	#128,	0(r1)	;#0x0080, 0x0000(r1)
    77bc:	06 24       	jz	$+14     	;abs 0x77ca
    77be:	5f 42 23 00 	mov.b	&0x0023,r15	
    77c2:	7f f0 7f 00 	and.b	#127,	r15	;#0x007f
    77c6:	c2 4f 23 00 	mov.b	r15,	&0x0023	
    77ca:	21 53       	incd	r1		
    77cc:	3c 41       	pop	r12		
    77ce:	3d 41       	pop	r13		
    77d0:	3e 41       	pop	r14		
    77d2:	3f 41       	pop	r15		
    77d4:	b1 c0 f0 00 00 00 	bic	#240,	0(r1)	;#0x00f0, 0x0000(r1)
    77da:	00 13       	reti			

000077dc <sig_PORT2_VECTOR>:
    77dc:	0f 12       	push	r15		
    77de:	0e 12       	push	r14		
    77e0:	21 83       	decd	r1		
    77e2:	5e 42 2b 00 	mov.b	&0x002b,r14	
    77e6:	5f 42 2d 00 	mov.b	&0x002d,r15	
    77ea:	4f fe       	and.b	r14,	r15	
    77ec:	4f 4f       	mov.b	r15,	r15	
    77ee:	81 4f 00 00 	mov	r15,	0(r1)	;0x0000(r1)
    77f2:	91 b3 00 00 	bit	#1,	0(r1)	;r3 As==01, 0x0000(r1)
    77f6:	05 24       	jz	$+12     	;abs 0x7802
    77f8:	5f 42 2b 00 	mov.b	&0x002b,r15	
    77fc:	7f f0 fe ff 	and.b	#-2,	r15	;#0xfffe
    7800:	3b 3c       	jmp	$+120    	;abs 0x7878
    7802:	a1 b3 00 00 	bit	#2,	0(r1)	;r3 As==10, 0x0000(r1)
    7806:	05 24       	jz	$+12     	;abs 0x7812
    7808:	5f 42 2b 00 	mov.b	&0x002b,r15	
    780c:	7f f0 fd ff 	and.b	#-3,	r15	;#0xfffd
    7810:	33 3c       	jmp	$+104    	;abs 0x7878
    7812:	a1 b2 00 00 	bit	#4,	0(r1)	;r2 As==10, 0x0000(r1)
    7816:	05 24       	jz	$+12     	;abs 0x7822
    7818:	5f 42 2b 00 	mov.b	&0x002b,r15	
    781c:	7f f0 fb ff 	and.b	#-5,	r15	;#0xfffb
    7820:	2b 3c       	jmp	$+88     	;abs 0x7878
    7822:	b1 b2 00 00 	bit	#8,	0(r1)	;r2 As==11, 0x0000(r1)
    7826:	05 24       	jz	$+12     	;abs 0x7832
    7828:	5f 42 2b 00 	mov.b	&0x002b,r15	
    782c:	7f f0 f7 ff 	and.b	#-9,	r15	;#0xfff7
    7830:	23 3c       	jmp	$+72     	;abs 0x7878
    7832:	b1 b0 10 00 00 00 	bit	#16,	0(r1)	;#0x0010, 0x0000(r1)
    7838:	05 24       	jz	$+12     	;abs 0x7844
    783a:	5f 42 2b 00 	mov.b	&0x002b,r15	
    783e:	7f f0 ef ff 	and.b	#-17,	r15	;#0xffef
    7842:	1a 3c       	jmp	$+54     	;abs 0x7878
    7844:	b1 b0 20 00 00 00 	bit	#32,	0(r1)	;#0x0020, 0x0000(r1)
    784a:	05 24       	jz	$+12     	;abs 0x7856
    784c:	5f 42 2b 00 	mov.b	&0x002b,r15	
    7850:	7f f0 df ff 	and.b	#-33,	r15	;#0xffdf
    7854:	11 3c       	jmp	$+36     	;abs 0x7878
    7856:	b1 b0 40 00 00 00 	bit	#64,	0(r1)	;#0x0040, 0x0000(r1)
    785c:	05 24       	jz	$+12     	;abs 0x7868
    785e:	5f 42 2b 00 	mov.b	&0x002b,r15	
    7862:	7f f0 bf ff 	and.b	#-65,	r15	;#0xffbf
    7866:	08 3c       	jmp	$+18     	;abs 0x7878
    7868:	b1 b0 80 00 00 00 	bit	#128,	0(r1)	;#0x0080, 0x0000(r1)
    786e:	06 24       	jz	$+14     	;abs 0x787c
    7870:	5f 42 2b 00 	mov.b	&0x002b,r15	
    7874:	7f f0 7f 00 	and.b	#127,	r15	;#0x007f
    7878:	c2 4f 2b 00 	mov.b	r15,	&0x002b	
    787c:	21 53       	incd	r1		
    787e:	3e 41       	pop	r14		
    7880:	3f 41       	pop	r15		
    7882:	b1 c0 f0 00 00 00 	bic	#240,	0(r1)	;#0x00f0, 0x0000(r1)
    7888:	00 13       	reti			

0000788a <sig_UART0RX_VECTOR>:
    788a:	0f 12       	push	r15		
    788c:	0e 12       	push	r14		
    788e:	0d 12       	push	r13		
    7890:	0c 12       	push	r12		
    7892:	5e 42 76 00 	mov.b	&0x0076,r14	
    7896:	5f 42 7a 17 	mov.b	&0x177a,r15	
    789a:	4f 93       	tst.b	r15		
    789c:	1c 24       	jz	$+58     	;abs 0x78d6
    789e:	18 3c       	jmp	$+50     	;abs 0x78d0
    78a0:	c2 93 10 11 	tst.b	&0x1110	
    78a4:	18 20       	jnz	$+50     	;abs 0x78d6
    78a6:	1f 42 84 1b 	mov	&0x1b84,r15	
    78aa:	0f 93       	tst	r15		
    78ac:	04 24       	jz	$+10     	;abs 0x78b6
    78ae:	1f 52 d6 20 	add	&0x20d6,r15	
    78b2:	cf 4e ff ff 	mov.b	r14,	-1(r15)	;0xffff(r15)
    78b6:	92 92 da 20 d6 20 	cmp	&0x20da,&0x20d6	
    78bc:	03 2c       	jc	$+8      	;abs 0x78c4
    78be:	b0 12 54 4a 	call	#0x4a54	
    78c2:	09 3c       	jmp	$+20     	;abs 0x78d6
    78c4:	f2 f0 bf ff 00 00 	and.b	#-65,	&0x0000	;#0xffbf
    78ca:	b0 12 e4 57 	call	#0x57e4	
    78ce:	03 3c       	jmp	$+8      	;abs 0x78d6
    78d0:	7f 90 03 00 	cmp.b	#3,	r15	;#0x0003
    78d4:	e5 27       	jz	$-52     	;abs 0x78a0
    78d6:	3c 41       	pop	r12		
    78d8:	3d 41       	pop	r13		
    78da:	3e 41       	pop	r14		
    78dc:	3f 41       	pop	r15		
    78de:	b1 c0 f0 00 00 00 	bic	#240,	0(r1)	;#0x00f0, 0x0000(r1)
    78e4:	00 13       	reti			

000078e6 <sig_UART0TX_VECTOR>:
    78e6:	0f 12       	push	r15		
    78e8:	5f 42 70 00 	mov.b	&0x0070,r15	
    78ec:	3f f0 20 00 	and	#32,	r15	;#0x0020
    78f0:	06 24       	jz	$+14     	;abs 0x78fe
    78f2:	5f 42 70 00 	mov.b	&0x0070,r15	
    78f6:	2f f2       	and	#4,	r15	;r2 As==10
    78f8:	02 24       	jz	$+6      	;abs 0x78fe
    78fa:	5f 42 70 00 	mov.b	&0x0070,r15	
    78fe:	3f 41       	pop	r15		
    7900:	b1 c0 f0 00 00 00 	bic	#240,	0(r1)	;#0x00f0, 0x0000(r1)
    7906:	00 13       	reti			

00007908 <printfflush>:
    7908:	0f 43       	clr	r15		
    790a:	30 41       	ret			

0000790c <sig_UART1RX_VECTOR>:
    790c:	0f 12       	push	r15		
    790e:	0e 12       	push	r14		
    7910:	0d 12       	push	r13		
    7912:	5d 42 7e 00 	mov.b	&0x007e,r13	
    7916:	5f 42 64 17 	mov.b	&0x1764,r15	
    791a:	4f 93       	tst.b	r15		
    791c:	19 24       	jz	$+52     	;abs 0x7950
    791e:	15 3c       	jmp	$+44     	;abs 0x794a
    7920:	c2 93 08 11 	tst.b	&0x1108	
    7924:	15 20       	jnz	$+44     	;abs 0x7950
    7926:	1e 42 8c 1a 	mov	&0x1a8c,r14	
    792a:	0e 93       	tst	r14		
    792c:	11 24       	jz	$+36     	;abs 0x7950
    792e:	1f 42 82 1b 	mov	&0x1b82,r15	
    7932:	0e 5f       	add	r15,	r14	
    7934:	ce 4d 00 00 	mov.b	r13,	0(r14)	;0x0000(r14)
    7938:	1f 53       	inc	r15		
    793a:	82 4f 82 1b 	mov	r15,	&0x1b82	
    793e:	1f 92 6c 1b 	cmp	&0x1b6c,r15	
    7942:	06 28       	jnc	$+14     	;abs 0x7950
    7944:	82 43 8c 1a 	mov	#0,	&0x1a8c	;r3 As==00
    7948:	03 3c       	jmp	$+8      	;abs 0x7950
    794a:	7f 90 03 00 	cmp.b	#3,	r15	;#0x0003
    794e:	e8 27       	jz	$-46     	;abs 0x7920
    7950:	3d 41       	pop	r13		
    7952:	3e 41       	pop	r14		
    7954:	3f 41       	pop	r15		
    7956:	b1 c0 f0 00 00 00 	bic	#240,	0(r1)	;#0x00f0, 0x0000(r1)
    795c:	00 13       	reti			

0000795e <sig_UART1TX_VECTOR>:
    795e:	0f 12       	push	r15		
    7960:	0e 12       	push	r14		
    7962:	5f 42 64 17 	mov.b	&0x1764,r15	
    7966:	4f 93       	tst.b	r15		
    7968:	1c 24       	jz	$+58     	;abs 0x79a2
    796a:	18 3c       	jmp	$+50     	;abs 0x799c
    796c:	c2 93 08 11 	tst.b	&0x1108	
    7970:	18 20       	jnz	$+50     	;abs 0x79a2
    7972:	c2 93 88 17 	tst.b	&0x1788	
    7976:	0f 20       	jnz	$+32     	;abs 0x7996
    7978:	1f 42 cc 1a 	mov	&0x1acc,r15	
    797c:	1f 92 8e 1b 	cmp	&0x1b8e,r15	
    7980:	0a 2c       	jc	$+22     	;abs 0x7996
    7982:	1e 42 e8 20 	mov	&0x20e8,r14	
    7986:	0e 5f       	add	r15,	r14	
    7988:	6e 4e       	mov.b	@r14,	r14	
    798a:	1f 53       	inc	r15		
    798c:	82 4f cc 1a 	mov	r15,	&0x1acc	
    7990:	c2 4e 7f 00 	mov.b	r14,	&0x007f	
    7994:	06 3c       	jmp	$+14     	;abs 0x79a2
    7996:	82 43 e8 20 	mov	#0,	&0x20e8	;r3 As==00
    799a:	03 3c       	jmp	$+8      	;abs 0x79a2
    799c:	7f 90 03 00 	cmp.b	#3,	r15	;#0x0003
    79a0:	e5 27       	jz	$-52     	;abs 0x796c
    79a2:	3e 41       	pop	r14		
    79a4:	3f 41       	pop	r15		
    79a6:	b1 c0 f0 00 00 00 	bic	#240,	0(r1)	;#0x00f0, 0x0000(r1)
    79ac:	00 13       	reti			

000079ae <putchar>:
    79ae:	0b 12       	push	r11		
    79b0:	0b 4f       	mov	r15,	r11	
    79b2:	b0 12 3a 4a 	call	#0x4a3a	
    79b6:	4e 4f       	mov.b	r15,	r14	
    79b8:	c2 93 08 11 	tst.b	&0x1108	
    79bc:	0f 20       	jnz	$+32     	;abs 0x79dc
    79be:	f2 90 03 00 64 17 	cmp.b	#3,	&0x1764	;#0x0003
    79c4:	0b 20       	jnz	$+24     	;abs 0x79dc
    79c6:	b0 12 4c 4a 	call	#0x4a4c	
    79ca:	f2 f0 df ff 03 00 	and.b	#-33,	&0x0003	;#0xffdf
    79d0:	f2 f0 df ff 01 00 	and.b	#-33,	&0x0001	;#0xffdf
    79d6:	c2 4b 7f 00 	mov.b	r11,	&0x007f	
    79da:	05 3c       	jmp	$+12     	;abs 0x79e6
    79dc:	4f 4e       	mov.b	r14,	r15	
    79de:	b0 12 4c 4a 	call	#0x4a4c	
    79e2:	3b 43       	mov	#-1,	r11	;r3 As==11
    79e4:	12 3c       	jmp	$+38     	;abs 0x7a0a
    79e6:	5f 42 03 00 	mov.b	&0x0003,r15	
    79ea:	3f f0 20 00 	and	#32,	r15	;#0x0020
    79ee:	fb 27       	jz	$-8      	;abs 0x79e6
    79f0:	f2 f0 df ff 03 00 	and.b	#-33,	&0x0003	;#0xffdf
    79f6:	b0 12 3a 4a 	call	#0x4a3a	
    79fa:	f2 f0 df ff 03 00 	and.b	#-33,	&0x0003	;#0xffdf
    7a00:	f2 d0 20 00 01 00 	bis.b	#32,	&0x0001	;#0x0020
    7a06:	b0 12 4c 4a 	call	#0x4a4c	
    7a0a:	0f 4b       	mov	r11,	r15	
    7a0c:	3b 41       	pop	r11		
    7a0e:	30 41       	ret			

00007a10 <qACK_dequeue>:
    7a10:	0b 12       	push	r11		
    7a12:	0a 12       	push	r10		
    7a14:	09 12       	push	r9		
    7a16:	09 4f       	mov	r15,	r9	
    7a18:	2a 4f       	mov	@r15,	r10	
    7a1a:	0a 93       	tst	r10		
    7a1c:	23 24       	jz	$+72     	;abs 0x7a64
    7a1e:	8a 9e 02 00 	cmp	r14,	2(r10)	;0x0002(r10)
    7a22:	08 20       	jnz	$+18     	;abs 0x7a34
    7a24:	9f 4a 06 00 00 00 	mov	6(r10),	0(r15)	;0x0006(r10), 0x0000(r15)
    7a2a:	2f 4a       	mov	@r10,	r15	
    7a2c:	b0 12 66 8b 	call	#0x8b66	
    7a30:	0f 4a       	mov	r10,	r15	
    7a32:	0d 3c       	jmp	$+28     	;abs 0x7a4e
    7a34:	1b 4a 06 00 	mov	6(r10),	r11	;0x0006(r10)
    7a38:	13 3c       	jmp	$+40     	;abs 0x7a60
    7a3a:	8b 9e 02 00 	cmp	r14,	2(r11)	;0x0002(r11)
    7a3e:	0d 20       	jnz	$+28     	;abs 0x7a5a
    7a40:	9a 4b 06 00 06 00 	mov	6(r11),	6(r10)	;0x0006(r11), 0x0006(r10)
    7a46:	2f 4b       	mov	@r11,	r15	
    7a48:	b0 12 66 8b 	call	#0x8b66	
    7a4c:	0f 4b       	mov	r11,	r15	
    7a4e:	b0 12 66 8b 	call	#0x8b66	
    7a52:	b9 53 04 00 	add	#-1,	4(r9)	;r3 As==11, 0x0004(r9)
    7a56:	5f 43       	mov.b	#1,	r15	;r3 As==01
    7a58:	06 3c       	jmp	$+14     	;abs 0x7a66
    7a5a:	0a 4b       	mov	r11,	r10	
    7a5c:	1b 4b 06 00 	mov	6(r11),	r11	;0x0006(r11)
    7a60:	0b 93       	tst	r11		
    7a62:	eb 23       	jnz	$-40     	;abs 0x7a3a
    7a64:	4f 43       	clr.b	r15		
    7a66:	39 41       	pop	r9		
    7a68:	3a 41       	pop	r10		
    7a6a:	3b 41       	pop	r11		
    7a6c:	30 41       	ret			

00007a6e <__umulsidi3>:
    7a6e:	0b 12       	push	r11		
    7a70:	0a 12       	push	r10		
    7a72:	09 12       	push	r9		
    7a74:	08 12       	push	r8		
    7a76:	07 12       	push	r7		
    7a78:	06 12       	push	r6		
    7a7a:	05 12       	push	r5		
    7a7c:	04 12       	push	r4		
    7a7e:	08 4c       	mov	r12,	r8	
    7a80:	09 4d       	mov	r13,	r9	
    7a82:	0a 43       	clr	r10		
    7a84:	0b 43       	clr	r11		
    7a86:	0c 4e       	mov	r14,	r12	
    7a88:	0d 4f       	mov	r15,	r13	
    7a8a:	0e 43       	clr	r14		
    7a8c:	0f 43       	clr	r15		
    7a8e:	b0 12 da 7a 	call	#0x7ada	
    7a92:	34 41       	pop	r4		
    7a94:	35 41       	pop	r5		
    7a96:	36 41       	pop	r6		
    7a98:	37 41       	pop	r7		
    7a9a:	38 41       	pop	r8		
    7a9c:	39 41       	pop	r9		
    7a9e:	3a 41       	pop	r10		
    7aa0:	3b 41       	pop	r11		
    7aa2:	30 41       	ret			

00007aa4 <__muldi3>:
    7aa4:	0b 12       	push	r11		
    7aa6:	0a 12       	push	r10		
    7aa8:	09 12       	push	r9		
    7aaa:	08 12       	push	r8		
    7aac:	07 12       	push	r7		
    7aae:	06 12       	push	r6		
    7ab0:	05 12       	push	r5		
    7ab2:	04 12       	push	r4		
    7ab4:	18 41 12 00 	mov	18(r1),	r8	;0x0012(r1)
    7ab8:	19 41 14 00 	mov	20(r1),	r9	;0x0014(r1)
    7abc:	1a 41 16 00 	mov	22(r1),	r10	;0x0016(r1)
    7ac0:	1b 41 18 00 	mov	24(r1),	r11	;0x0018(r1)
    7ac4:	b0 12 da 7a 	call	#0x7ada	
    7ac8:	34 41       	pop	r4		
    7aca:	35 41       	pop	r5		
    7acc:	36 41       	pop	r6		
    7ace:	37 41       	pop	r7		
    7ad0:	38 41       	pop	r8		
    7ad2:	39 41       	pop	r9		
    7ad4:	3a 41       	pop	r10		
    7ad6:	3b 41       	pop	r11		
    7ad8:	30 41       	ret			

00007ada <__xabi_muldi3>:
    7ada:	04 43       	clr	r4		
    7adc:	05 43       	clr	r5		
    7ade:	06 43       	clr	r6		
    7ae0:	07 43       	clr	r7		
    7ae2:	0e 3c       	jmp	$+30     	;abs 0x7b00
    7ae4:	12 c3       	clrc			
    7ae6:	0b 10       	rrc	r11		
    7ae8:	0a 10       	rrc	r10		
    7aea:	09 10       	rrc	r9		
    7aec:	08 10       	rrc	r8		
    7aee:	04 28       	jnc	$+10     	;abs 0x7af8
    7af0:	04 5c       	add	r12,	r4	
    7af2:	05 6d       	addc	r13,	r5	
    7af4:	06 6e       	addc	r14,	r6	
    7af6:	07 6f       	addc	r15,	r7	
    7af8:	0c 5c       	rla	r12		
    7afa:	0d 6d       	rlc	r13		
    7afc:	0e 6e       	rlc	r14		
    7afe:	0f 6f       	rlc	r15		
    7b00:	08 93       	tst	r8		
    7b02:	f0 23       	jnz	$-30     	;abs 0x7ae4
    7b04:	09 93       	tst	r9		
    7b06:	ee 23       	jnz	$-34     	;abs 0x7ae4
    7b08:	0a 93       	tst	r10		
    7b0a:	ec 23       	jnz	$-38     	;abs 0x7ae4
    7b0c:	0b 93       	tst	r11		
    7b0e:	ea 23       	jnz	$-42     	;abs 0x7ae4
    7b10:	0c 44       	mov	r4,	r12	
    7b12:	0d 45       	mov	r5,	r13	
    7b14:	0e 46       	mov	r6,	r14	
    7b16:	0f 47       	mov	r7,	r15	
    7b18:	30 41       	ret			

00007b1a <__udivhi3>:
    7b1a:	7c 40 10 00 	mov.b	#16,	r12	;#0x0010
    7b1e:	0d 4e       	mov	r14,	r13	
    7b20:	0e 43       	clr	r14		
    7b22:	0f 5f       	rla	r15		
    7b24:	0e 6e       	rlc	r14		
    7b26:	0e 9d       	cmp	r13,	r14	
    7b28:	02 28       	jnc	$+6      	;abs 0x7b2e
    7b2a:	0e 8d       	sub	r13,	r14	
    7b2c:	1f d3       	bis	#1,	r15	;r3 As==01
    7b2e:	1c 83       	dec	r12		
    7b30:	f8 23       	jnz	$-14     	;abs 0x7b22
    7b32:	30 41       	ret			

00007b34 <__umodhi3>:
    7b34:	b0 12 1a 7b 	call	#0x7b1a	
    7b38:	0f 4e       	mov	r14,	r15	
    7b3a:	30 41       	ret			

00007b3c <__divhi3>:
    7b3c:	0d 43       	clr	r13		
    7b3e:	0f 93       	tst	r15		
    7b40:	04 34       	jge	$+10     	;abs 0x7b4a
    7b42:	3d 40 03 00 	mov	#3,	r13	;#0x0003
    7b46:	3f e3       	inv	r15		
    7b48:	1f 53       	inc	r15		
    7b4a:	0e 93       	tst	r14		
    7b4c:	03 34       	jge	$+8      	;abs 0x7b54
    7b4e:	5d e3       	xor.b	#1,	r13	;r3 As==01
    7b50:	3e e3       	inv	r14		
    7b52:	1e 53       	inc	r14		
    7b54:	0d 12       	push	r13		
    7b56:	b0 12 1a 7b 	call	#0x7b1a	
    7b5a:	3d 41       	pop	r13		
    7b5c:	6d b3       	bit.b	#2,	r13	;r3 As==10
    7b5e:	02 24       	jz	$+6      	;abs 0x7b64
    7b60:	3e e3       	inv	r14		
    7b62:	1e 53       	inc	r14		
    7b64:	5d b3       	bit.b	#1,	r13	;r3 As==01
    7b66:	02 24       	jz	$+6      	;abs 0x7b6c
    7b68:	3f e3       	inv	r15		
    7b6a:	1f 53       	inc	r15		
    7b6c:	30 41       	ret			

00007b6e <__modhi3>:
    7b6e:	b0 12 3c 7b 	call	#0x7b3c	
    7b72:	0f 4e       	mov	r14,	r15	
    7b74:	30 41       	ret			

00007b76 <__fixunssfsi>:
    7b76:	0b 12       	push	r11		
    7b78:	0a 12       	push	r10		
    7b7a:	0a 4e       	mov	r14,	r10	
    7b7c:	0b 4f       	mov	r15,	r11	
    7b7e:	0c 43       	clr	r12		
    7b80:	3d 40 00 4f 	mov	#20224,	r13	;#0x4f00
    7b84:	b0 12 5a 82 	call	#0x825a	
    7b88:	0f 93       	tst	r15		
    7b8a:	07 34       	jge	$+16     	;abs 0x7b9a
    7b8c:	0e 4a       	mov	r10,	r14	
    7b8e:	0f 4b       	mov	r11,	r15	
    7b90:	b0 12 50 83 	call	#0x8350	
    7b94:	3a 41       	pop	r10		
    7b96:	3b 41       	pop	r11		
    7b98:	30 41       	ret			
    7b9a:	0c 43       	clr	r12		
    7b9c:	3d 40 00 4f 	mov	#20224,	r13	;#0x4f00
    7ba0:	0e 4a       	mov	r10,	r14	
    7ba2:	0f 4b       	mov	r11,	r15	
    7ba4:	b0 12 96 7e 	call	#0x7e96	
    7ba8:	b0 12 50 83 	call	#0x8350	
    7bac:	0e 53       	add	#0,	r14	;r3 As==00
    7bae:	3f 60 00 80 	addc	#-32768,r15	;#0x8000
    7bb2:	3a 41       	pop	r10		
    7bb4:	3b 41       	pop	r11		
    7bb6:	30 41       	ret			

00007bb8 <_fpadd_parts>:
    7bb8:	0b 12       	push	r11		
    7bba:	0a 12       	push	r10		
    7bbc:	09 12       	push	r9		
    7bbe:	08 12       	push	r8		
    7bc0:	07 12       	push	r7		
    7bc2:	06 12       	push	r6		
    7bc4:	05 12       	push	r5		
    7bc6:	04 12       	push	r4		
    7bc8:	31 50 fa ff 	add	#-6,	r1	;#0xfffa
    7bcc:	08 4d       	mov	r13,	r8	
    7bce:	6b 4f       	mov.b	@r15,	r11	
    7bd0:	6b 93       	cmp.b	#2,	r11	;r3 As==10
    7bd2:	67 28       	jnc	$+208    	;abs 0x7ca2
    7bd4:	6c 4e       	mov.b	@r14,	r12	
    7bd6:	6c 93       	cmp.b	#2,	r12	;r3 As==10
    7bd8:	e9 28       	jnc	$+468    	;abs 0x7dac
    7bda:	6b 92       	cmp.b	#4,	r11	;r2 As==10
    7bdc:	02 20       	jnz	$+6      	;abs 0x7be2
    7bde:	30 40 38 7e 	br	#0x7e38	
    7be2:	6c 92       	cmp.b	#4,	r12	;r2 As==10
    7be4:	e3 24       	jz	$+456    	;abs 0x7dac
    7be6:	6c 93       	cmp.b	#2,	r12	;r3 As==10
    7be8:	bb 24       	jz	$+376    	;abs 0x7d60
    7bea:	6b 93       	cmp.b	#2,	r11	;r3 As==10
    7bec:	df 24       	jz	$+448    	;abs 0x7dac
    7bee:	91 4f 02 00 00 00 	mov	2(r15),	0(r1)	;0x0002(r15), 0x0000(r1)
    7bf4:	1b 4e 02 00 	mov	2(r14),	r11	;0x0002(r14)
    7bf8:	14 4f 04 00 	mov	4(r15),	r4	;0x0004(r15)
    7bfc:	15 4f 06 00 	mov	6(r15),	r5	;0x0006(r15)
    7c00:	16 4e 04 00 	mov	4(r14),	r6	;0x0004(r14)
    7c04:	17 4e 06 00 	mov	6(r14),	r7	;0x0006(r14)
    7c08:	2c 41       	mov	@r1,	r12	
    7c0a:	0c 8b       	sub	r11,	r12	
    7c0c:	09 4c       	mov	r12,	r9	
    7c0e:	0c 93       	tst	r12		
    7c10:	bf 38       	jl	$+384    	;abs 0x7d90
    7c12:	39 90 20 00 	cmp	#32,	r9	;#0x0020
    7c16:	50 34       	jge	$+162    	;abs 0x7cb8
    7c18:	1c 93       	cmp	#1,	r12	;r3 As==01
    7c1a:	d7 38       	jl	$+432    	;abs 0x7dca
    7c1c:	81 46 02 00 	mov	r6,	2(r1)	;0x0002(r1)
    7c20:	81 47 04 00 	mov	r7,	4(r1)	;0x0004(r1)
    7c24:	4c 49       	mov.b	r9,	r12	
    7c26:	7c f0 1f 00 	and.b	#31,	r12	;#0x001f
    7c2a:	0b 24       	jz	$+24     	;abs 0x7c42
    7c2c:	0a 46       	mov	r6,	r10	
    7c2e:	0b 47       	mov	r7,	r11	
    7c30:	12 c3       	clrc			
    7c32:	0b 10       	rrc	r11		
    7c34:	0a 10       	rrc	r10		
    7c36:	7c 53       	add.b	#-1,	r12	;r3 As==11
    7c38:	fb 23       	jnz	$-8      	;abs 0x7c30
    7c3a:	81 4a 02 00 	mov	r10,	2(r1)	;0x0002(r1)
    7c3e:	81 4b 04 00 	mov	r11,	4(r1)	;0x0004(r1)
    7c42:	1c 43       	mov	#1,	r12	;r3 As==01
    7c44:	0d 43       	clr	r13		
    7c46:	79 f0 1f 00 	and.b	#31,	r9	;#0x001f
    7c4a:	04 24       	jz	$+10     	;abs 0x7c54
    7c4c:	0c 5c       	rla	r12		
    7c4e:	0d 6d       	rlc	r13		
    7c50:	79 53       	add.b	#-1,	r9	;r3 As==11
    7c52:	fc 23       	jnz	$-6      	;abs 0x7c4c
    7c54:	3c 53       	add	#-1,	r12	;r3 As==11
    7c56:	3d 63       	addc	#-1,	r13	;r3 As==11
    7c58:	0c f6       	and	r6,	r12	
    7c5a:	0d f7       	and	r7,	r13	
    7c5c:	1a 43       	mov	#1,	r10	;r3 As==01
    7c5e:	0b 43       	clr	r11		
    7c60:	0c 93       	tst	r12		
    7c62:	02 20       	jnz	$+6      	;abs 0x7c68
    7c64:	0d 93       	tst	r13		
    7c66:	e5 24       	jz	$+460    	;abs 0x7e32
    7c68:	16 41 02 00 	mov	2(r1),	r6	;0x0002(r1)
    7c6c:	17 41 04 00 	mov	4(r1),	r7	;0x0004(r1)
    7c70:	06 da       	bis	r10,	r6	
    7c72:	07 db       	bis	r11,	r7	
    7c74:	5f 4f 01 00 	mov.b	1(r15),	r15	;0x0001(r15)
    7c78:	5f 9e 01 00 	cmp.b	1(r14),	r15	;0x0001(r14)
    7c7c:	28 20       	jnz	$+82     	;abs 0x7cce
    7c7e:	c8 4f 01 00 	mov.b	r15,	1(r8)	;0x0001(r8)
    7c82:	a8 41 02 00 	mov	@r1,	2(r8)	;0x0002(r8)
    7c86:	0e 46       	mov	r6,	r14	
    7c88:	0f 47       	mov	r7,	r15	
    7c8a:	0e 54       	add	r4,	r14	
    7c8c:	0f 65       	addc	r5,	r15	
    7c8e:	88 4e 04 00 	mov	r14,	4(r8)	;0x0004(r8)
    7c92:	88 4f 06 00 	mov	r15,	6(r8)	;0x0006(r8)
    7c96:	f8 40 03 00 00 00 	mov.b	#3,	0(r8)	;#0x0003, 0x0000(r8)
    7c9c:	0f 93       	tst	r15		
    7c9e:	4d 38       	jl	$+156    	;abs 0x7d3a
    7ca0:	0f 48       	mov	r8,	r15	
    7ca2:	31 50 06 00 	add	#6,	r1	;#0x0006
    7ca6:	34 41       	pop	r4		
    7ca8:	35 41       	pop	r5		
    7caa:	36 41       	pop	r6		
    7cac:	37 41       	pop	r7		
    7cae:	38 41       	pop	r8		
    7cb0:	39 41       	pop	r9		
    7cb2:	3a 41       	pop	r10		
    7cb4:	3b 41       	pop	r11		
    7cb6:	30 41       	ret			
    7cb8:	2b 91       	cmp	@r1,	r11	
    7cba:	67 38       	jl	$+208    	;abs 0x7d8a
    7cbc:	81 4b 00 00 	mov	r11,	0(r1)	;0x0000(r1)
    7cc0:	04 43       	clr	r4		
    7cc2:	05 43       	clr	r5		
    7cc4:	5f 4f 01 00 	mov.b	1(r15),	r15	;0x0001(r15)
    7cc8:	5f 9e 01 00 	cmp.b	1(r14),	r15	;0x0001(r14)
    7ccc:	d8 27       	jz	$-78     	;abs 0x7c7e
    7cce:	4f 93       	tst.b	r15		
    7cd0:	68 24       	jz	$+210    	;abs 0x7da2
    7cd2:	0e 46       	mov	r6,	r14	
    7cd4:	0f 47       	mov	r7,	r15	
    7cd6:	0e 84       	sub	r4,	r14	
    7cd8:	0f 75       	subc	r5,	r15	
    7cda:	0f 93       	tst	r15		
    7cdc:	69 38       	jl	$+212    	;abs 0x7db0
    7cde:	c8 43 01 00 	mov.b	#0,	1(r8)	;r3 As==00, 0x0001(r8)
    7ce2:	a8 41 02 00 	mov	@r1,	2(r8)	;0x0002(r8)
    7ce6:	88 4e 04 00 	mov	r14,	4(r8)	;0x0004(r8)
    7cea:	88 4f 06 00 	mov	r15,	6(r8)	;0x0006(r8)
    7cee:	0c 4e       	mov	r14,	r12	
    7cf0:	0d 4f       	mov	r15,	r13	
    7cf2:	3c 53       	add	#-1,	r12	;r3 As==11
    7cf4:	3d 63       	addc	#-1,	r13	;r3 As==11
    7cf6:	3d 90 ff 3f 	cmp	#16383,	r13	;#0x3fff
    7cfa:	05 28       	jnc	$+12     	;abs 0x7d06
    7cfc:	3d 90 00 40 	cmp	#16384,	r13	;#0x4000
    7d00:	17 2c       	jc	$+48     	;abs 0x7d30
    7d02:	3c 93       	cmp	#-1,	r12	;r3 As==11
    7d04:	15 2c       	jc	$+44     	;abs 0x7d30
    7d06:	1b 48 02 00 	mov	2(r8),	r11	;0x0002(r8)
    7d0a:	3b 53       	add	#-1,	r11	;r3 As==11
    7d0c:	0e 5e       	rla	r14		
    7d0e:	0f 6f       	rlc	r15		
    7d10:	0a 4b       	mov	r11,	r10	
    7d12:	3b 53       	add	#-1,	r11	;r3 As==11
    7d14:	0c 4e       	mov	r14,	r12	
    7d16:	0d 4f       	mov	r15,	r13	
    7d18:	3c 53       	add	#-1,	r12	;r3 As==11
    7d1a:	3d 63       	addc	#-1,	r13	;r3 As==11
    7d1c:	3d 90 ff 3f 	cmp	#16383,	r13	;#0x3fff
    7d20:	f5 2b       	jnc	$-20     	;abs 0x7d0c
    7d22:	3c 24       	jz	$+122    	;abs 0x7d9c
    7d24:	88 4e 04 00 	mov	r14,	4(r8)	;0x0004(r8)
    7d28:	88 4f 06 00 	mov	r15,	6(r8)	;0x0006(r8)
    7d2c:	88 4a 02 00 	mov	r10,	2(r8)	;0x0002(r8)
    7d30:	f8 40 03 00 00 00 	mov.b	#3,	0(r8)	;#0x0003, 0x0000(r8)
    7d36:	0f 93       	tst	r15		
    7d38:	b3 37       	jge	$-152    	;abs 0x7ca0
    7d3a:	0c 4e       	mov	r14,	r12	
    7d3c:	0d 4f       	mov	r15,	r13	
    7d3e:	1c f3       	and	#1,	r12	;r3 As==01
    7d40:	0d f3       	and	#0,	r13	;r3 As==00
    7d42:	12 c3       	clrc			
    7d44:	0f 10       	rrc	r15		
    7d46:	0e 10       	rrc	r14		
    7d48:	0a 4c       	mov	r12,	r10	
    7d4a:	0b 4d       	mov	r13,	r11	
    7d4c:	0a de       	bis	r14,	r10	
    7d4e:	0b df       	bis	r15,	r11	
    7d50:	88 4a 04 00 	mov	r10,	4(r8)	;0x0004(r8)
    7d54:	88 4b 06 00 	mov	r11,	6(r8)	;0x0006(r8)
    7d58:	98 53 02 00 	inc	2(r8)		;0x0002(r8)
    7d5c:	0f 48       	mov	r8,	r15	
    7d5e:	a1 3f       	jmp	$-188    	;abs 0x7ca2
    7d60:	6b 93       	cmp.b	#2,	r11	;r3 As==10
    7d62:	9f 23       	jnz	$-192    	;abs 0x7ca2
    7d64:	ad 4f 00 00 	mov	@r15,	0(r13)	;0x0000(r13)
    7d68:	9d 4f 02 00 02 00 	mov	2(r15),	2(r13)	;0x0002(r15), 0x0002(r13)
    7d6e:	9d 4f 04 00 04 00 	mov	4(r15),	4(r13)	;0x0004(r15), 0x0004(r13)
    7d74:	9d 4f 06 00 06 00 	mov	6(r15),	6(r13)	;0x0006(r15), 0x0006(r13)
    7d7a:	5e 4e 01 00 	mov.b	1(r14),	r14	;0x0001(r14)
    7d7e:	5e ff 01 00 	and.b	1(r15),	r14	;0x0001(r15)
    7d82:	cd 4e 01 00 	mov.b	r14,	1(r13)	;0x0001(r13)
    7d86:	0f 4d       	mov	r13,	r15	
    7d88:	8c 3f       	jmp	$-230    	;abs 0x7ca2
    7d8a:	06 43       	clr	r6		
    7d8c:	07 43       	clr	r7		
    7d8e:	9a 3f       	jmp	$-202    	;abs 0x7cc4
    7d90:	39 e3       	inv	r9		
    7d92:	19 53       	inc	r9		
    7d94:	39 90 20 00 	cmp	#32,	r9	;#0x0020
    7d98:	8f 37       	jge	$-224    	;abs 0x7cb8
    7d9a:	3e 3f       	jmp	$-386    	;abs 0x7c18
    7d9c:	3c 93       	cmp	#-1,	r12	;r3 As==11
    7d9e:	b6 2b       	jnc	$-146    	;abs 0x7d0c
    7da0:	c1 3f       	jmp	$-124    	;abs 0x7d24
    7da2:	0e 44       	mov	r4,	r14	
    7da4:	0f 45       	mov	r5,	r15	
    7da6:	0e 86       	sub	r6,	r14	
    7da8:	0f 77       	subc	r7,	r15	
    7daa:	97 3f       	jmp	$-208    	;abs 0x7cda
    7dac:	0f 4e       	mov	r14,	r15	
    7dae:	79 3f       	jmp	$-268    	;abs 0x7ca2
    7db0:	d8 43 01 00 	mov.b	#1,	1(r8)	;r3 As==01, 0x0001(r8)
    7db4:	a8 41 02 00 	mov	@r1,	2(r8)	;0x0002(r8)
    7db8:	3e e3       	inv	r14		
    7dba:	3f e3       	inv	r15		
    7dbc:	1e 53       	inc	r14		
    7dbe:	0f 63       	adc	r15		
    7dc0:	88 4e 04 00 	mov	r14,	4(r8)	;0x0004(r8)
    7dc4:	88 4f 06 00 	mov	r15,	6(r8)	;0x0006(r8)
    7dc8:	92 3f       	jmp	$-218    	;abs 0x7cee
    7dca:	0c 93       	tst	r12		
    7dcc:	7b 27       	jz	$-264    	;abs 0x7cc4
    7dce:	81 59 00 00 	add	r9,	0(r1)	;0x0000(r1)
    7dd2:	81 44 02 00 	mov	r4,	2(r1)	;0x0002(r1)
    7dd6:	81 45 04 00 	mov	r5,	4(r1)	;0x0004(r1)
    7dda:	4d 49       	mov.b	r9,	r13	
    7ddc:	7d f0 1f 00 	and.b	#31,	r13	;#0x001f
    7de0:	0c 24       	jz	$+26     	;abs 0x7dfa
    7de2:	4b 4d       	mov.b	r13,	r11	
    7de4:	0c 44       	mov	r4,	r12	
    7de6:	0d 45       	mov	r5,	r13	
    7de8:	12 c3       	clrc			
    7dea:	0d 10       	rrc	r13		
    7dec:	0c 10       	rrc	r12		
    7dee:	7b 53       	add.b	#-1,	r11	;r3 As==11
    7df0:	fb 23       	jnz	$-8      	;abs 0x7de8
    7df2:	81 4c 02 00 	mov	r12,	2(r1)	;0x0002(r1)
    7df6:	81 4d 04 00 	mov	r13,	4(r1)	;0x0004(r1)
    7dfa:	1c 43       	mov	#1,	r12	;r3 As==01
    7dfc:	0d 43       	clr	r13		
    7dfe:	79 f0 1f 00 	and.b	#31,	r9	;#0x001f
    7e02:	04 24       	jz	$+10     	;abs 0x7e0c
    7e04:	0c 5c       	rla	r12		
    7e06:	0d 6d       	rlc	r13		
    7e08:	79 53       	add.b	#-1,	r9	;r3 As==11
    7e0a:	fc 23       	jnz	$-6      	;abs 0x7e04
    7e0c:	3c 53       	add	#-1,	r12	;r3 As==11
    7e0e:	3d 63       	addc	#-1,	r13	;r3 As==11
    7e10:	0c f4       	and	r4,	r12	
    7e12:	0d f5       	and	r5,	r13	
    7e14:	1a 43       	mov	#1,	r10	;r3 As==01
    7e16:	0b 43       	clr	r11		
    7e18:	0c 93       	tst	r12		
    7e1a:	04 20       	jnz	$+10     	;abs 0x7e24
    7e1c:	0d 93       	tst	r13		
    7e1e:	02 20       	jnz	$+6      	;abs 0x7e24
    7e20:	0a 43       	clr	r10		
    7e22:	0b 43       	clr	r11		
    7e24:	14 41 02 00 	mov	2(r1),	r4	;0x0002(r1)
    7e28:	15 41 04 00 	mov	4(r1),	r5	;0x0004(r1)
    7e2c:	04 da       	bis	r10,	r4	
    7e2e:	05 db       	bis	r11,	r5	
    7e30:	49 3f       	jmp	$-364    	;abs 0x7cc4
    7e32:	0a 43       	clr	r10		
    7e34:	0b 43       	clr	r11		
    7e36:	18 3f       	jmp	$-462    	;abs 0x7c68
    7e38:	6c 92       	cmp.b	#4,	r12	;r2 As==10
    7e3a:	33 23       	jnz	$-408    	;abs 0x7ca2
    7e3c:	df 9e 01 00 01 00 	cmp.b	1(r14),	1(r15)	;0x0001(r14), 0x0001(r15)
    7e42:	2f 27       	jz	$-416    	;abs 0x7ca2
    7e44:	3f 40 c4 8b 	mov	#-29756,r15	;#0x8bc4
    7e48:	2c 3f       	jmp	$-422    	;abs 0x7ca2

00007e4a <__addsf3>:
    7e4a:	31 50 e0 ff 	add	#-32,	r1	;#0xffe0
    7e4e:	81 4e 04 00 	mov	r14,	4(r1)	;0x0004(r1)
    7e52:	81 4f 06 00 	mov	r15,	6(r1)	;0x0006(r1)
    7e56:	81 4c 00 00 	mov	r12,	0(r1)	;0x0000(r1)
    7e5a:	81 4d 02 00 	mov	r13,	2(r1)	;0x0002(r1)
    7e5e:	0e 41       	mov	r1,	r14	
    7e60:	3e 50 18 00 	add	#24,	r14	;#0x0018
    7e64:	0f 41       	mov	r1,	r15	
    7e66:	2f 52       	add	#4,	r15	;r2 As==10
    7e68:	b0 12 12 87 	call	#0x8712	
    7e6c:	0e 41       	mov	r1,	r14	
    7e6e:	3e 50 10 00 	add	#16,	r14	;#0x0010
    7e72:	0f 41       	mov	r1,	r15	
    7e74:	b0 12 12 87 	call	#0x8712	
    7e78:	0d 41       	mov	r1,	r13	
    7e7a:	3d 52       	add	#8,	r13	;r2 As==11
    7e7c:	0e 41       	mov	r1,	r14	
    7e7e:	3e 50 10 00 	add	#16,	r14	;#0x0010
    7e82:	0f 41       	mov	r1,	r15	
    7e84:	3f 50 18 00 	add	#24,	r15	;#0x0018
    7e88:	b0 12 b8 7b 	call	#0x7bb8	
    7e8c:	b0 12 34 85 	call	#0x8534	
    7e90:	31 50 20 00 	add	#32,	r1	;#0x0020
    7e94:	30 41       	ret			

00007e96 <__subsf3>:
    7e96:	31 50 e0 ff 	add	#-32,	r1	;#0xffe0
    7e9a:	81 4e 04 00 	mov	r14,	4(r1)	;0x0004(r1)
    7e9e:	81 4f 06 00 	mov	r15,	6(r1)	;0x0006(r1)
    7ea2:	81 4c 00 00 	mov	r12,	0(r1)	;0x0000(r1)
    7ea6:	81 4d 02 00 	mov	r13,	2(r1)	;0x0002(r1)
    7eaa:	0e 41       	mov	r1,	r14	
    7eac:	3e 50 18 00 	add	#24,	r14	;#0x0018
    7eb0:	0f 41       	mov	r1,	r15	
    7eb2:	2f 52       	add	#4,	r15	;r2 As==10
    7eb4:	b0 12 12 87 	call	#0x8712	
    7eb8:	0e 41       	mov	r1,	r14	
    7eba:	3e 50 10 00 	add	#16,	r14	;#0x0010
    7ebe:	0f 41       	mov	r1,	r15	
    7ec0:	b0 12 12 87 	call	#0x8712	
    7ec4:	d1 e3 11 00 	xor.b	#1,	17(r1)	;r3 As==01, 0x0011(r1)
    7ec8:	0d 41       	mov	r1,	r13	
    7eca:	3d 52       	add	#8,	r13	;r2 As==11
    7ecc:	0e 41       	mov	r1,	r14	
    7ece:	3e 50 10 00 	add	#16,	r14	;#0x0010
    7ed2:	0f 41       	mov	r1,	r15	
    7ed4:	3f 50 18 00 	add	#24,	r15	;#0x0018
    7ed8:	b0 12 b8 7b 	call	#0x7bb8	
    7edc:	b0 12 34 85 	call	#0x8534	
    7ee0:	31 50 20 00 	add	#32,	r1	;#0x0020
    7ee4:	30 41       	ret			

00007ee6 <__mulsf3>:
    7ee6:	0b 12       	push	r11		
    7ee8:	0a 12       	push	r10		
    7eea:	09 12       	push	r9		
    7eec:	08 12       	push	r8		
    7eee:	07 12       	push	r7		
    7ef0:	06 12       	push	r6		
    7ef2:	05 12       	push	r5		
    7ef4:	04 12       	push	r4		
    7ef6:	31 50 dc ff 	add	#-36,	r1	;#0xffdc
    7efa:	81 4e 04 00 	mov	r14,	4(r1)	;0x0004(r1)
    7efe:	81 4f 06 00 	mov	r15,	6(r1)	;0x0006(r1)
    7f02:	81 4c 00 00 	mov	r12,	0(r1)	;0x0000(r1)
    7f06:	81 4d 02 00 	mov	r13,	2(r1)	;0x0002(r1)
    7f0a:	0e 41       	mov	r1,	r14	
    7f0c:	3e 50 18 00 	add	#24,	r14	;#0x0018
    7f10:	0f 41       	mov	r1,	r15	
    7f12:	2f 52       	add	#4,	r15	;r2 As==10
    7f14:	b0 12 12 87 	call	#0x8712	
    7f18:	0e 41       	mov	r1,	r14	
    7f1a:	3e 50 10 00 	add	#16,	r14	;#0x0010
    7f1e:	0f 41       	mov	r1,	r15	
    7f20:	b0 12 12 87 	call	#0x8712	
    7f24:	5f 41 18 00 	mov.b	24(r1),	r15	;0x0018(r1)
    7f28:	6f 93       	cmp.b	#2,	r15	;r3 As==10
    7f2a:	b6 28       	jnc	$+366    	;abs 0x8098
    7f2c:	5e 41 10 00 	mov.b	16(r1),	r14	;0x0010(r1)
    7f30:	6e 93       	cmp.b	#2,	r14	;r3 As==10
    7f32:	d9 28       	jnc	$+436    	;abs 0x80e6
    7f34:	6f 92       	cmp.b	#4,	r15	;r2 As==10
    7f36:	ae 24       	jz	$+350    	;abs 0x8094
    7f38:	6e 92       	cmp.b	#4,	r14	;r2 As==10
    7f3a:	e2 24       	jz	$+454    	;abs 0x8100
    7f3c:	6f 93       	cmp.b	#2,	r15	;r3 As==10
    7f3e:	ac 24       	jz	$+346    	;abs 0x8098
    7f40:	6e 93       	cmp.b	#2,	r14	;r3 As==10
    7f42:	d1 24       	jz	$+420    	;abs 0x80e6
    7f44:	14 41 1c 00 	mov	28(r1),	r4	;0x001c(r1)
    7f48:	15 41 1e 00 	mov	30(r1),	r5	;0x001e(r1)
    7f4c:	18 41 14 00 	mov	20(r1),	r8	;0x0014(r1)
    7f50:	19 41 16 00 	mov	22(r1),	r9	;0x0016(r1)
    7f54:	3c 40 20 00 	mov	#32,	r12	;#0x0020
    7f58:	0e 43       	clr	r14		
    7f5a:	0f 43       	clr	r15		
    7f5c:	06 43       	clr	r6		
    7f5e:	07 43       	clr	r7		
    7f60:	81 43 20 00 	mov	#0,	32(r1)	;r3 As==00, 0x0020(r1)
    7f64:	81 43 22 00 	mov	#0,	34(r1)	;r3 As==00, 0x0022(r1)
    7f68:	0a 43       	clr	r10		
    7f6a:	0b 43       	clr	r11		
    7f6c:	81 4c 20 00 	mov	r12,	32(r1)	;0x0020(r1)
    7f70:	08 3c       	jmp	$+18     	;abs 0x7f82
    7f72:	08 58       	rla	r8		
    7f74:	09 69       	rlc	r9		
    7f76:	12 c3       	clrc			
    7f78:	05 10       	rrc	r5		
    7f7a:	04 10       	rrc	r4		
    7f7c:	b1 53 20 00 	add	#-1,	32(r1)	;r3 As==11, 0x0020(r1)
    7f80:	19 24       	jz	$+52     	;abs 0x7fb4
    7f82:	14 b3       	bit	#1,	r4	;r3 As==01
    7f84:	0d 24       	jz	$+28     	;abs 0x7fa0
    7f86:	0a 58       	add	r8,	r10	
    7f88:	0b 69       	addc	r9,	r11	
    7f8a:	0e 56       	add	r6,	r14	
    7f8c:	0f 67       	addc	r7,	r15	
    7f8e:	1c 43       	mov	#1,	r12	;r3 As==01
    7f90:	0d 43       	clr	r13		
    7f92:	0b 99       	cmp	r9,	r11	
    7f94:	03 28       	jnc	$+8      	;abs 0x7f9c
    7f96:	0b 24       	jz	$+24     	;abs 0x7fae
    7f98:	0c 43       	clr	r12		
    7f9a:	0d 43       	clr	r13		
    7f9c:	0e 5c       	add	r12,	r14	
    7f9e:	0f 6d       	addc	r13,	r15	
    7fa0:	06 56       	rla	r6		
    7fa2:	07 67       	rlc	r7		
    7fa4:	09 93       	tst	r9		
    7fa6:	e5 37       	jge	$-52     	;abs 0x7f72
    7fa8:	16 d3       	bis	#1,	r6	;r3 As==01
    7faa:	07 d3       	bis	#0,	r7	;r3 As==00
    7fac:	e2 3f       	jmp	$-58     	;abs 0x7f72
    7fae:	0a 98       	cmp	r8,	r10	
    7fb0:	f5 2b       	jnc	$-20     	;abs 0x7f9c
    7fb2:	f2 3f       	jmp	$-26     	;abs 0x7f98
    7fb4:	81 4a 20 00 	mov	r10,	32(r1)	;0x0020(r1)
    7fb8:	81 4b 22 00 	mov	r11,	34(r1)	;0x0022(r1)
    7fbc:	0c 4f       	mov	r15,	r12	
    7fbe:	1a 41 1a 00 	mov	26(r1),	r10	;0x001a(r1)
    7fc2:	1a 51 12 00 	add	18(r1),	r10	;0x0012(r1)
    7fc6:	06 4a       	mov	r10,	r6	
    7fc8:	26 53       	incd	r6		
    7fca:	81 46 0a 00 	mov	r6,	10(r1)	;0x000a(r1)
    7fce:	5d 43       	mov.b	#1,	r13	;r3 As==01
    7fd0:	d1 91 11 00 19 00 	cmp.b	17(r1),	25(r1)	;0x0011(r1), 0x0019(r1)
    7fd6:	83 24       	jz	$+264    	;abs 0x80de
    7fd8:	c1 4d 09 00 	mov.b	r13,	9(r1)	;0x0009(r1)
    7fdc:	0c 93       	tst	r12		
    7fde:	3c 38       	jl	$+122    	;abs 0x8058
    7fe0:	3f 90 00 40 	cmp	#16384,	r15	;#0x4000
    7fe4:	18 2c       	jc	$+50     	;abs 0x8016
    7fe6:	1d 41 0a 00 	mov	10(r1),	r13	;0x000a(r1)
    7fea:	3d 53       	add	#-1,	r13	;r3 As==11
    7fec:	1a 41 20 00 	mov	32(r1),	r10	;0x0020(r1)
    7ff0:	1b 41 22 00 	mov	34(r1),	r11	;0x0022(r1)
    7ff4:	0c 4d       	mov	r13,	r12	
    7ff6:	0e 5e       	rla	r14		
    7ff8:	0f 6f       	rlc	r15		
    7ffa:	0b 93       	tst	r11		
    7ffc:	2a 38       	jl	$+86     	;abs 0x8052
    7ffe:	0a 5a       	rla	r10		
    8000:	0b 6b       	rlc	r11		
    8002:	3d 53       	add	#-1,	r13	;r3 As==11
    8004:	3f 90 00 40 	cmp	#16384,	r15	;#0x4000
    8008:	f5 2b       	jnc	$-20     	;abs 0x7ff4
    800a:	81 4a 20 00 	mov	r10,	32(r1)	;0x0020(r1)
    800e:	81 4b 22 00 	mov	r11,	34(r1)	;0x0022(r1)
    8012:	81 4c 0a 00 	mov	r12,	10(r1)	;0x000a(r1)
    8016:	0c 4e       	mov	r14,	r12	
    8018:	0d 4f       	mov	r15,	r13	
    801a:	3c f0 7f 00 	and	#127,	r12	;#0x007f
    801e:	0d f3       	and	#0,	r13	;r3 As==00
    8020:	3c 90 40 00 	cmp	#64,	r12	;#0x0040
    8024:	44 24       	jz	$+138    	;abs 0x80ae
    8026:	81 4e 0c 00 	mov	r14,	12(r1)	;0x000c(r1)
    802a:	81 4f 0e 00 	mov	r15,	14(r1)	;0x000e(r1)
    802e:	f1 40 03 00 08 00 	mov.b	#3,	8(r1)	;#0x0003, 0x0008(r1)
    8034:	0f 41       	mov	r1,	r15	
    8036:	3f 52       	add	#8,	r15	;r2 As==11
    8038:	b0 12 34 85 	call	#0x8534	
    803c:	31 50 24 00 	add	#36,	r1	;#0x0024
    8040:	34 41       	pop	r4		
    8042:	35 41       	pop	r5		
    8044:	36 41       	pop	r6		
    8046:	37 41       	pop	r7		
    8048:	38 41       	pop	r8		
    804a:	39 41       	pop	r9		
    804c:	3a 41       	pop	r10		
    804e:	3b 41       	pop	r11		
    8050:	30 41       	ret			
    8052:	1e d3       	bis	#1,	r14	;r3 As==01
    8054:	0f d3       	bis	#0,	r15	;r3 As==00
    8056:	d3 3f       	jmp	$-88     	;abs 0x7ffe
    8058:	3a 50 03 00 	add	#3,	r10	;#0x0003
    805c:	08 4a       	mov	r10,	r8	
    805e:	1e b3       	bit	#1,	r14	;r3 As==01
    8060:	10 24       	jz	$+34     	;abs 0x8082
    8062:	1c 41 20 00 	mov	32(r1),	r12	;0x0020(r1)
    8066:	1d 41 22 00 	mov	34(r1),	r13	;0x0022(r1)
    806a:	12 c3       	clrc			
    806c:	0d 10       	rrc	r13		
    806e:	0c 10       	rrc	r12		
    8070:	06 4c       	mov	r12,	r6	
    8072:	07 4d       	mov	r13,	r7	
    8074:	06 d3       	bis	#0,	r6	;r3 As==00
    8076:	37 d0 00 80 	bis	#-32768,r7	;#0x8000
    807a:	81 46 20 00 	mov	r6,	32(r1)	;0x0020(r1)
    807e:	81 47 22 00 	mov	r7,	34(r1)	;0x0022(r1)
    8082:	12 c3       	clrc			
    8084:	0f 10       	rrc	r15		
    8086:	0e 10       	rrc	r14		
    8088:	1a 53       	inc	r10		
    808a:	0f 93       	tst	r15		
    808c:	e7 3b       	jl	$-48     	;abs 0x805c
    808e:	81 48 0a 00 	mov	r8,	10(r1)	;0x000a(r1)
    8092:	a6 3f       	jmp	$-178    	;abs 0x7fe0
    8094:	6e 93       	cmp.b	#2,	r14	;r3 As==10
    8096:	36 24       	jz	$+110    	;abs 0x8104
    8098:	5f 43       	mov.b	#1,	r15	;r3 As==01
    809a:	d1 91 11 00 19 00 	cmp.b	17(r1),	25(r1)	;0x0011(r1), 0x0019(r1)
    80a0:	20 24       	jz	$+66     	;abs 0x80e2
    80a2:	c1 4f 19 00 	mov.b	r15,	25(r1)	;0x0019(r1)
    80a6:	0f 41       	mov	r1,	r15	
    80a8:	3f 50 18 00 	add	#24,	r15	;#0x0018
    80ac:	c5 3f       	jmp	$-116    	;abs 0x8038
    80ae:	0d 93       	tst	r13		
    80b0:	ba 23       	jnz	$-138    	;abs 0x8026
    80b2:	0c 4e       	mov	r14,	r12	
    80b4:	0d 4f       	mov	r15,	r13	
    80b6:	3c f0 80 00 	and	#128,	r12	;#0x0080
    80ba:	0d f3       	and	#0,	r13	;r3 As==00
    80bc:	0c 93       	tst	r12		
    80be:	b3 23       	jnz	$-152    	;abs 0x8026
    80c0:	0d 93       	tst	r13		
    80c2:	b1 23       	jnz	$-156    	;abs 0x8026
    80c4:	81 93 20 00 	tst	32(r1)		;0x0020(r1)
    80c8:	03 20       	jnz	$+8      	;abs 0x80d0
    80ca:	81 93 22 00 	tst	34(r1)		;0x0022(r1)
    80ce:	ab 27       	jz	$-168    	;abs 0x8026
    80d0:	3e 50 40 00 	add	#64,	r14	;#0x0040
    80d4:	0f 63       	adc	r15		
    80d6:	3e f0 80 ff 	and	#-128,	r14	;#0xff80
    80da:	3f f3       	and	#-1,	r15	;r3 As==11
    80dc:	a4 3f       	jmp	$-182    	;abs 0x8026
    80de:	4d 43       	clr.b	r13		
    80e0:	7b 3f       	jmp	$-264    	;abs 0x7fd8
    80e2:	4f 43       	clr.b	r15		
    80e4:	de 3f       	jmp	$-66     	;abs 0x80a2
    80e6:	5f 43       	mov.b	#1,	r15	;r3 As==01
    80e8:	d1 91 11 00 19 00 	cmp.b	17(r1),	25(r1)	;0x0011(r1), 0x0019(r1)
    80ee:	06 24       	jz	$+14     	;abs 0x80fc
    80f0:	c1 4f 11 00 	mov.b	r15,	17(r1)	;0x0011(r1)
    80f4:	0f 41       	mov	r1,	r15	
    80f6:	3f 50 10 00 	add	#16,	r15	;#0x0010
    80fa:	9e 3f       	jmp	$-194    	;abs 0x8038
    80fc:	4f 43       	clr.b	r15		
    80fe:	f8 3f       	jmp	$-14     	;abs 0x80f0
    8100:	6f 93       	cmp.b	#2,	r15	;r3 As==10
    8102:	f1 23       	jnz	$-28     	;abs 0x80e6
    8104:	3f 40 c4 8b 	mov	#-29756,r15	;#0x8bc4
    8108:	97 3f       	jmp	$-208    	;abs 0x8038

0000810a <__divsf3>:
    810a:	0b 12       	push	r11		
    810c:	0a 12       	push	r10		
    810e:	09 12       	push	r9		
    8110:	08 12       	push	r8		
    8112:	07 12       	push	r7		
    8114:	31 50 e8 ff 	add	#-24,	r1	;#0xffe8
    8118:	81 4e 04 00 	mov	r14,	4(r1)	;0x0004(r1)
    811c:	81 4f 06 00 	mov	r15,	6(r1)	;0x0006(r1)
    8120:	81 4c 00 00 	mov	r12,	0(r1)	;0x0000(r1)
    8124:	81 4d 02 00 	mov	r13,	2(r1)	;0x0002(r1)
    8128:	0e 41       	mov	r1,	r14	
    812a:	3e 50 10 00 	add	#16,	r14	;#0x0010
    812e:	0f 41       	mov	r1,	r15	
    8130:	2f 52       	add	#4,	r15	;r2 As==10
    8132:	b0 12 12 87 	call	#0x8712	
    8136:	0e 41       	mov	r1,	r14	
    8138:	3e 52       	add	#8,	r14	;r2 As==11
    813a:	0f 41       	mov	r1,	r15	
    813c:	b0 12 12 87 	call	#0x8712	
    8140:	5f 41 10 00 	mov.b	16(r1),	r15	;0x0010(r1)
    8144:	6f 93       	cmp.b	#2,	r15	;r3 As==10
    8146:	5d 28       	jnc	$+188    	;abs 0x8202
    8148:	5e 41 08 00 	mov.b	8(r1),	r14	;0x0008(r1)
    814c:	6e 93       	cmp.b	#2,	r14	;r3 As==10
    814e:	82 28       	jnc	$+262    	;abs 0x8254
    8150:	d1 e1 09 00 11 00 	xor.b	9(r1),	17(r1)	;0x0009(r1), 0x0011(r1)
    8156:	6f 92       	cmp.b	#4,	r15	;r2 As==10
    8158:	58 24       	jz	$+178    	;abs 0x820a
    815a:	6f 93       	cmp.b	#2,	r15	;r3 As==10
    815c:	56 24       	jz	$+174    	;abs 0x820a
    815e:	6e 92       	cmp.b	#4,	r14	;r2 As==10
    8160:	6f 24       	jz	$+224    	;abs 0x8240
    8162:	6e 93       	cmp.b	#2,	r14	;r3 As==10
    8164:	4c 24       	jz	$+154    	;abs 0x81fe
    8166:	1d 41 12 00 	mov	18(r1),	r13	;0x0012(r1)
    816a:	1d 81 0a 00 	sub	10(r1),	r13	;0x000a(r1)
    816e:	81 4d 12 00 	mov	r13,	18(r1)	;0x0012(r1)
    8172:	1e 41 14 00 	mov	20(r1),	r14	;0x0014(r1)
    8176:	1f 41 16 00 	mov	22(r1),	r15	;0x0016(r1)
    817a:	18 41 0c 00 	mov	12(r1),	r8	;0x000c(r1)
    817e:	19 41 0e 00 	mov	14(r1),	r9	;0x000e(r1)
    8182:	0f 99       	cmp	r9,	r15	
    8184:	1e 2c       	jc	$+62     	;abs 0x81c2
    8186:	0e 5e       	rla	r14		
    8188:	0f 6f       	rlc	r15		
    818a:	3d 53       	add	#-1,	r13	;r3 As==11
    818c:	81 4d 12 00 	mov	r13,	18(r1)	;0x0012(r1)
    8190:	37 40 1f 00 	mov	#31,	r7	;#0x001f
    8194:	0c 43       	clr	r12		
    8196:	3d 40 00 40 	mov	#16384,	r13	;#0x4000
    819a:	0a 43       	clr	r10		
    819c:	0b 43       	clr	r11		
    819e:	0b 3c       	jmp	$+24     	;abs 0x81b6
    81a0:	0a dc       	bis	r12,	r10	
    81a2:	0b dd       	bis	r13,	r11	
    81a4:	0e 88       	sub	r8,	r14	
    81a6:	0f 79       	subc	r9,	r15	
    81a8:	12 c3       	clrc			
    81aa:	0d 10       	rrc	r13		
    81ac:	0c 10       	rrc	r12		
    81ae:	0e 5e       	rla	r14		
    81b0:	0f 6f       	rlc	r15		
    81b2:	37 53       	add	#-1,	r7	;r3 As==11
    81b4:	0b 24       	jz	$+24     	;abs 0x81cc
    81b6:	0f 99       	cmp	r9,	r15	
    81b8:	f7 2b       	jnc	$-16     	;abs 0x81a8
    81ba:	f2 23       	jnz	$-26     	;abs 0x81a0
    81bc:	0e 98       	cmp	r8,	r14	
    81be:	f4 2b       	jnc	$-22     	;abs 0x81a8
    81c0:	ef 3f       	jmp	$-32     	;abs 0x81a0
    81c2:	09 9f       	cmp	r15,	r9	
    81c4:	e5 2b       	jnc	$-52     	;abs 0x8190
    81c6:	0e 98       	cmp	r8,	r14	
    81c8:	e3 2f       	jc	$-56     	;abs 0x8190
    81ca:	dd 3f       	jmp	$-68     	;abs 0x8186
    81cc:	0c 4a       	mov	r10,	r12	
    81ce:	0d 4b       	mov	r11,	r13	
    81d0:	3c f0 7f 00 	and	#127,	r12	;#0x007f
    81d4:	0d f3       	and	#0,	r13	;r3 As==00
    81d6:	3c 90 40 00 	cmp	#64,	r12	;#0x0040
    81da:	1c 24       	jz	$+58     	;abs 0x8214
    81dc:	81 4a 14 00 	mov	r10,	20(r1)	;0x0014(r1)
    81e0:	81 4b 16 00 	mov	r11,	22(r1)	;0x0016(r1)
    81e4:	0f 41       	mov	r1,	r15	
    81e6:	3f 50 10 00 	add	#16,	r15	;#0x0010
    81ea:	b0 12 34 85 	call	#0x8534	
    81ee:	31 50 18 00 	add	#24,	r1	;#0x0018
    81f2:	37 41       	pop	r7		
    81f4:	38 41       	pop	r8		
    81f6:	39 41       	pop	r9		
    81f8:	3a 41       	pop	r10		
    81fa:	3b 41       	pop	r11		
    81fc:	30 41       	ret			
    81fe:	e1 42 10 00 	mov.b	#4,	16(r1)	;r2 As==10, 0x0010(r1)
    8202:	0f 41       	mov	r1,	r15	
    8204:	3f 50 10 00 	add	#16,	r15	;#0x0010
    8208:	f0 3f       	jmp	$-30     	;abs 0x81ea
    820a:	4f 9e       	cmp.b	r14,	r15	
    820c:	fa 23       	jnz	$-10     	;abs 0x8202
    820e:	3f 40 c4 8b 	mov	#-29756,r15	;#0x8bc4
    8212:	eb 3f       	jmp	$-40     	;abs 0x81ea
    8214:	0d 93       	tst	r13		
    8216:	e2 23       	jnz	$-58     	;abs 0x81dc
    8218:	0c 4a       	mov	r10,	r12	
    821a:	0d 4b       	mov	r11,	r13	
    821c:	3c f0 80 00 	and	#128,	r12	;#0x0080
    8220:	0d f3       	and	#0,	r13	;r3 As==00
    8222:	0c 93       	tst	r12		
    8224:	db 23       	jnz	$-72     	;abs 0x81dc
    8226:	0d 93       	tst	r13		
    8228:	d9 23       	jnz	$-76     	;abs 0x81dc
    822a:	0e 93       	tst	r14		
    822c:	02 20       	jnz	$+6      	;abs 0x8232
    822e:	0f 93       	tst	r15		
    8230:	d5 27       	jz	$-84     	;abs 0x81dc
    8232:	3a 50 40 00 	add	#64,	r10	;#0x0040
    8236:	0b 63       	adc	r11		
    8238:	3a f0 80 ff 	and	#-128,	r10	;#0xff80
    823c:	3b f3       	and	#-1,	r11	;r3 As==11
    823e:	ce 3f       	jmp	$-98     	;abs 0x81dc
    8240:	81 43 14 00 	mov	#0,	20(r1)	;r3 As==00, 0x0014(r1)
    8244:	81 43 16 00 	mov	#0,	22(r1)	;r3 As==00, 0x0016(r1)
    8248:	81 43 12 00 	mov	#0,	18(r1)	;r3 As==00, 0x0012(r1)
    824c:	0f 41       	mov	r1,	r15	
    824e:	3f 50 10 00 	add	#16,	r15	;#0x0010
    8252:	cb 3f       	jmp	$-104    	;abs 0x81ea
    8254:	0f 41       	mov	r1,	r15	
    8256:	3f 52       	add	#8,	r15	;r2 As==11
    8258:	c8 3f       	jmp	$-110    	;abs 0x81ea

0000825a <__gesf2>:
    825a:	31 50 e8 ff 	add	#-24,	r1	;#0xffe8
    825e:	81 4e 04 00 	mov	r14,	4(r1)	;0x0004(r1)
    8262:	81 4f 06 00 	mov	r15,	6(r1)	;0x0006(r1)
    8266:	81 4c 00 00 	mov	r12,	0(r1)	;0x0000(r1)
    826a:	81 4d 02 00 	mov	r13,	2(r1)	;0x0002(r1)
    826e:	0e 41       	mov	r1,	r14	
    8270:	3e 50 10 00 	add	#16,	r14	;#0x0010
    8274:	0f 41       	mov	r1,	r15	
    8276:	2f 52       	add	#4,	r15	;r2 As==10
    8278:	b0 12 12 87 	call	#0x8712	
    827c:	0e 41       	mov	r1,	r14	
    827e:	3e 52       	add	#8,	r14	;r2 As==11
    8280:	0f 41       	mov	r1,	r15	
    8282:	b0 12 12 87 	call	#0x8712	
    8286:	e1 93 10 00 	cmp.b	#2,	16(r1)	;r3 As==10, 0x0010(r1)
    828a:	0d 28       	jnc	$+28     	;abs 0x82a6
    828c:	e1 93 08 00 	cmp.b	#2,	8(r1)	;r3 As==10, 0x0008(r1)
    8290:	0a 28       	jnc	$+22     	;abs 0x82a6
    8292:	0e 41       	mov	r1,	r14	
    8294:	3e 52       	add	#8,	r14	;r2 As==11
    8296:	0f 41       	mov	r1,	r15	
    8298:	3f 50 10 00 	add	#16,	r15	;#0x0010
    829c:	b0 12 36 88 	call	#0x8836	
    82a0:	31 50 18 00 	add	#24,	r1	;#0x0018
    82a4:	30 41       	ret			
    82a6:	3f 43       	mov	#-1,	r15	;r3 As==11
    82a8:	fb 3f       	jmp	$-8      	;abs 0x82a0

000082aa <__floatsisf>:
    82aa:	0b 12       	push	r11		
    82ac:	0a 12       	push	r10		
    82ae:	31 82       	sub	#8,	r1	;r2 As==11
    82b0:	f1 40 03 00 00 00 	mov.b	#3,	0(r1)	;#0x0003, 0x0000(r1)
    82b6:	0d 4f       	mov	r15,	r13	
    82b8:	0d 5d       	rla	r13		
    82ba:	0d 43       	clr	r13		
    82bc:	0d 6d       	rlc	r13		
    82be:	4c 4d       	mov.b	r13,	r12	
    82c0:	c1 4d 01 00 	mov.b	r13,	1(r1)	;0x0001(r1)
    82c4:	0e 93       	tst	r14		
    82c6:	0b 20       	jnz	$+24     	;abs 0x82de
    82c8:	0f 93       	tst	r15		
    82ca:	09 20       	jnz	$+20     	;abs 0x82de
    82cc:	e1 43 00 00 	mov.b	#2,	0(r1)	;r3 As==10, 0x0000(r1)
    82d0:	0f 41       	mov	r1,	r15	
    82d2:	b0 12 34 85 	call	#0x8534	
    82d6:	31 52       	add	#8,	r1	;r2 As==11
    82d8:	3a 41       	pop	r10		
    82da:	3b 41       	pop	r11		
    82dc:	30 41       	ret			
    82de:	b1 40 1e 00 02 00 	mov	#30,	2(r1)	;#0x001e, 0x0002(r1)
    82e4:	4c 93       	tst.b	r12		
    82e6:	1b 20       	jnz	$+56     	;abs 0x831e
    82e8:	0a 4e       	mov	r14,	r10	
    82ea:	0b 4f       	mov	r15,	r11	
    82ec:	81 4a 04 00 	mov	r10,	4(r1)	;0x0004(r1)
    82f0:	81 4b 06 00 	mov	r11,	6(r1)	;0x0006(r1)
    82f4:	0e 4a       	mov	r10,	r14	
    82f6:	0f 4b       	mov	r11,	r15	
    82f8:	b0 12 c2 84 	call	#0x84c2	
    82fc:	3f 53       	add	#-1,	r15	;r3 As==11
    82fe:	1f 93       	cmp	#1,	r15	;r3 As==01
    8300:	e7 3b       	jl	$-48     	;abs 0x82d0
    8302:	81 4a 04 00 	mov	r10,	4(r1)	;0x0004(r1)
    8306:	81 4b 06 00 	mov	r11,	6(r1)	;0x0006(r1)
    830a:	4e 4f       	mov.b	r15,	r14	
    830c:	7e f0 1f 00 	and.b	#31,	r14	;#0x001f
    8310:	0f 20       	jnz	$+32     	;abs 0x8330
    8312:	3e 40 1e 00 	mov	#30,	r14	;#0x001e
    8316:	0e 8f       	sub	r15,	r14	
    8318:	81 4e 02 00 	mov	r14,	2(r1)	;0x0002(r1)
    831c:	d9 3f       	jmp	$-76     	;abs 0x82d0
    831e:	0e 93       	tst	r14		
    8320:	10 24       	jz	$+34     	;abs 0x8342
    8322:	0a 4e       	mov	r14,	r10	
    8324:	0b 4f       	mov	r15,	r11	
    8326:	3a e3       	inv	r10		
    8328:	3b e3       	inv	r11		
    832a:	1a 53       	inc	r10		
    832c:	0b 63       	adc	r11		
    832e:	de 3f       	jmp	$-66     	;abs 0x82ec
    8330:	91 51 04 00 04 00 	rla	4(r1)		;0x0004(r1)
    8336:	91 61 06 00 06 00 	rlc	6(r1)		;0x0006(r1)
    833c:	7e 53       	add.b	#-1,	r14	;r3 As==11
    833e:	f8 23       	jnz	$-14     	;abs 0x8330
    8340:	e8 3f       	jmp	$-46     	;abs 0x8312
    8342:	3f 90 00 80 	cmp	#-32768,r15	;#0x8000
    8346:	ed 23       	jnz	$-36     	;abs 0x8322
    8348:	0e 43       	clr	r14		
    834a:	3f 40 00 cf 	mov	#-12544,r15	;#0xcf00
    834e:	c3 3f       	jmp	$-120    	;abs 0x82d6

00008350 <__fixsfsi>:
    8350:	31 50 f4 ff 	add	#-12,	r1	;#0xfff4
    8354:	81 4e 00 00 	mov	r14,	0(r1)	;0x0000(r1)
    8358:	81 4f 02 00 	mov	r15,	2(r1)	;0x0002(r1)
    835c:	0e 41       	mov	r1,	r14	
    835e:	2e 52       	add	#4,	r14	;r2 As==10
    8360:	0f 41       	mov	r1,	r15	
    8362:	b0 12 12 87 	call	#0x8712	
    8366:	5f 41 04 00 	mov.b	4(r1),	r15	;0x0004(r1)
    836a:	6f 93       	cmp.b	#2,	r15	;r3 As==10
    836c:	28 24       	jz	$+82     	;abs 0x83be
    836e:	27 28       	jnc	$+80     	;abs 0x83be
    8370:	6f 92       	cmp.b	#4,	r15	;r2 As==10
    8372:	07 24       	jz	$+16     	;abs 0x8382
    8374:	1d 41 06 00 	mov	6(r1),	r13	;0x0006(r1)
    8378:	0d 93       	tst	r13		
    837a:	21 38       	jl	$+68     	;abs 0x83be
    837c:	3d 90 1f 00 	cmp	#31,	r13	;#0x001f
    8380:	09 38       	jl	$+20     	;abs 0x8394
    8382:	c1 93 05 00 	tst.b	5(r1)		;0x0005(r1)
    8386:	26 20       	jnz	$+78     	;abs 0x83d4
    8388:	3e 43       	mov	#-1,	r14	;r3 As==11
    838a:	3f 40 ff 7f 	mov	#32767,	r15	;#0x7fff
    838e:	31 50 0c 00 	add	#12,	r1	;#0x000c
    8392:	30 41       	ret			
    8394:	1e 41 08 00 	mov	8(r1),	r14	;0x0008(r1)
    8398:	1f 41 0a 00 	mov	10(r1),	r15	;0x000a(r1)
    839c:	3c 40 1e 00 	mov	#30,	r12	;#0x001e
    83a0:	4c 8d       	sub.b	r13,	r12	
    83a2:	4d 4c       	mov.b	r12,	r13	
    83a4:	7d f0 1f 00 	and.b	#31,	r13	;#0x001f
    83a8:	0f 20       	jnz	$+32     	;abs 0x83c8
    83aa:	c1 93 05 00 	tst.b	5(r1)		;0x0005(r1)
    83ae:	ef 27       	jz	$-32     	;abs 0x838e
    83b0:	3e e3       	inv	r14		
    83b2:	3f e3       	inv	r15		
    83b4:	1e 53       	inc	r14		
    83b6:	0f 63       	adc	r15		
    83b8:	31 50 0c 00 	add	#12,	r1	;#0x000c
    83bc:	30 41       	ret			
    83be:	0e 43       	clr	r14		
    83c0:	0f 43       	clr	r15		
    83c2:	31 50 0c 00 	add	#12,	r1	;#0x000c
    83c6:	30 41       	ret			
    83c8:	12 c3       	clrc			
    83ca:	0f 10       	rrc	r15		
    83cc:	0e 10       	rrc	r14		
    83ce:	7d 53       	add.b	#-1,	r13	;r3 As==11
    83d0:	fb 23       	jnz	$-8      	;abs 0x83c8
    83d2:	eb 3f       	jmp	$-40     	;abs 0x83aa
    83d4:	0e 43       	clr	r14		
    83d6:	3f 40 00 80 	mov	#-32768,r15	;#0x8000
    83da:	31 50 0c 00 	add	#12,	r1	;#0x000c
    83de:	30 41       	ret			

000083e0 <__floatunsisf>:
    83e0:	0b 12       	push	r11		
    83e2:	0a 12       	push	r10		
    83e4:	09 12       	push	r9		
    83e6:	08 12       	push	r8		
    83e8:	31 82       	sub	#8,	r1	;r2 As==11
    83ea:	0a 4e       	mov	r14,	r10	
    83ec:	0b 4f       	mov	r15,	r11	
    83ee:	c1 43 01 00 	mov.b	#0,	1(r1)	;r3 As==00, 0x0001(r1)
    83f2:	0e 93       	tst	r14		
    83f4:	0d 20       	jnz	$+28     	;abs 0x8410
    83f6:	0b 93       	tst	r11		
    83f8:	0b 20       	jnz	$+24     	;abs 0x8410
    83fa:	e1 43 00 00 	mov.b	#2,	0(r1)	;r3 As==10, 0x0000(r1)
    83fe:	0f 41       	mov	r1,	r15	
    8400:	b0 12 34 85 	call	#0x8534	
    8404:	31 52       	add	#8,	r1	;r2 As==11
    8406:	38 41       	pop	r8		
    8408:	39 41       	pop	r9		
    840a:	3a 41       	pop	r10		
    840c:	3b 41       	pop	r11		
    840e:	30 41       	ret			
    8410:	f1 40 03 00 00 00 	mov.b	#3,	0(r1)	;#0x0003, 0x0000(r1)
    8416:	b1 40 1e 00 02 00 	mov	#30,	2(r1)	;#0x001e, 0x0002(r1)
    841c:	81 4a 04 00 	mov	r10,	4(r1)	;0x0004(r1)
    8420:	81 4b 06 00 	mov	r11,	6(r1)	;0x0006(r1)
    8424:	0e 4a       	mov	r10,	r14	
    8426:	0f 4b       	mov	r11,	r15	
    8428:	b0 12 c2 84 	call	#0x84c2	
    842c:	3f 53       	add	#-1,	r15	;r3 As==11
    842e:	0f 93       	tst	r15		
    8430:	18 38       	jl	$+50     	;abs 0x8462
    8432:	e5 27       	jz	$-52     	;abs 0x83fe
    8434:	81 4a 04 00 	mov	r10,	4(r1)	;0x0004(r1)
    8438:	81 4b 06 00 	mov	r11,	6(r1)	;0x0006(r1)
    843c:	4e 4f       	mov.b	r15,	r14	
    843e:	7e f0 1f 00 	and.b	#31,	r14	;#0x001f
    8442:	06 20       	jnz	$+14     	;abs 0x8450
    8444:	3e 40 1e 00 	mov	#30,	r14	;#0x001e
    8448:	0e 8f       	sub	r15,	r14	
    844a:	81 4e 02 00 	mov	r14,	2(r1)	;0x0002(r1)
    844e:	d7 3f       	jmp	$-80     	;abs 0x83fe
    8450:	91 51 04 00 04 00 	rla	4(r1)		;0x0004(r1)
    8456:	91 61 06 00 06 00 	rlc	6(r1)		;0x0006(r1)
    845c:	7e 53       	add.b	#-1,	r14	;r3 As==11
    845e:	f8 23       	jnz	$-14     	;abs 0x8450
    8460:	f1 3f       	jmp	$-28     	;abs 0x8444
    8462:	0e 4f       	mov	r15,	r14	
    8464:	3e e3       	inv	r14		
    8466:	1e 53       	inc	r14		
    8468:	1c 43       	mov	#1,	r12	;r3 As==01
    846a:	0d 43       	clr	r13		
    846c:	48 4e       	mov.b	r14,	r8	
    846e:	78 f0 1f 00 	and.b	#31,	r8	;#0x001f
    8472:	04 24       	jz	$+10     	;abs 0x847c
    8474:	0c 5c       	rla	r12		
    8476:	0d 6d       	rlc	r13		
    8478:	78 53       	add.b	#-1,	r8	;r3 As==11
    847a:	fc 23       	jnz	$-6      	;abs 0x8474
    847c:	3c 53       	add	#-1,	r12	;r3 As==11
    847e:	3d 63       	addc	#-1,	r13	;r3 As==11
    8480:	0c fa       	and	r10,	r12	
    8482:	0d fb       	and	r11,	r13	
    8484:	18 43       	mov	#1,	r8	;r3 As==01
    8486:	09 43       	clr	r9		
    8488:	0c 93       	tst	r12		
    848a:	04 20       	jnz	$+10     	;abs 0x8494
    848c:	0d 93       	tst	r13		
    848e:	02 20       	jnz	$+6      	;abs 0x8494
    8490:	08 43       	clr	r8		
    8492:	09 43       	clr	r9		
    8494:	7e f0 1f 00 	and.b	#31,	r14	;#0x001f
    8498:	0e 20       	jnz	$+30     	;abs 0x84b6
    849a:	0d 48       	mov	r8,	r13	
    849c:	0e 49       	mov	r9,	r14	
    849e:	0d da       	bis	r10,	r13	
    84a0:	0e db       	bis	r11,	r14	
    84a2:	81 4d 04 00 	mov	r13,	4(r1)	;0x0004(r1)
    84a6:	81 4e 06 00 	mov	r14,	6(r1)	;0x0006(r1)
    84aa:	3e 40 1e 00 	mov	#30,	r14	;#0x001e
    84ae:	0e 8f       	sub	r15,	r14	
    84b0:	81 4e 02 00 	mov	r14,	2(r1)	;0x0002(r1)
    84b4:	a4 3f       	jmp	$-182    	;abs 0x83fe
    84b6:	12 c3       	clrc			
    84b8:	0b 10       	rrc	r11		
    84ba:	0a 10       	rrc	r10		
    84bc:	7e 53       	add.b	#-1,	r14	;r3 As==11
    84be:	fb 23       	jnz	$-8      	;abs 0x84b6
    84c0:	ec 3f       	jmp	$-38     	;abs 0x849a

000084c2 <__clzsi2>:
    84c2:	0b 12       	push	r11		
    84c4:	0a 12       	push	r10		
    84c6:	09 12       	push	r9		
    84c8:	1f 93       	cmp	#1,	r15	;r3 As==01
    84ca:	17 2c       	jc	$+48     	;abs 0x84fa
    84cc:	3e 90 00 01 	cmp	#256,	r14	;#0x0100
    84d0:	2c 28       	jnc	$+90     	;abs 0x852a
    84d2:	3a 40 18 00 	mov	#24,	r10	;#0x0018
    84d6:	0b 43       	clr	r11		
    84d8:	39 42       	mov	#8,	r9	;r2 As==11
    84da:	0c 4e       	mov	r14,	r12	
    84dc:	0d 4f       	mov	r15,	r13	
    84de:	4f 49       	mov.b	r9,	r15	
    84e0:	4f 93       	tst.b	r15		
    84e2:	17 20       	jnz	$+48     	;abs 0x8512
    84e4:	3c 50 cc 8b 	add	#-29748,r12	;#0x8bcc
    84e8:	6e 4c       	mov.b	@r12,	r14	
    84ea:	0f 43       	clr	r15		
    84ec:	0a 8e       	sub	r14,	r10	
    84ee:	0b 7f       	subc	r15,	r11	
    84f0:	0f 4a       	mov	r10,	r15	
    84f2:	39 41       	pop	r9		
    84f4:	3a 41       	pop	r10		
    84f6:	3b 41       	pop	r11		
    84f8:	30 41       	ret			
    84fa:	3f 90 00 01 	cmp	#256,	r15	;#0x0100
    84fe:	0f 28       	jnc	$+32     	;abs 0x851e
    8500:	3a 42       	mov	#8,	r10	;r2 As==11
    8502:	0b 43       	clr	r11		
    8504:	39 40 18 00 	mov	#24,	r9	;#0x0018
    8508:	0c 4e       	mov	r14,	r12	
    850a:	0d 4f       	mov	r15,	r13	
    850c:	4f 49       	mov.b	r9,	r15	
    850e:	4f 93       	tst.b	r15		
    8510:	e9 27       	jz	$-44     	;abs 0x84e4
    8512:	12 c3       	clrc			
    8514:	0d 10       	rrc	r13		
    8516:	0c 10       	rrc	r12		
    8518:	7f 53       	add.b	#-1,	r15	;r3 As==11
    851a:	fb 23       	jnz	$-8      	;abs 0x8512
    851c:	e3 3f       	jmp	$-56     	;abs 0x84e4
    851e:	3a 40 10 00 	mov	#16,	r10	;#0x0010
    8522:	0b 43       	clr	r11		
    8524:	39 40 10 00 	mov	#16,	r9	;#0x0010
    8528:	ef 3f       	jmp	$-32     	;abs 0x8508
    852a:	3a 40 20 00 	mov	#32,	r10	;#0x0020
    852e:	0b 43       	clr	r11		
    8530:	09 43       	clr	r9		
    8532:	ea 3f       	jmp	$-42     	;abs 0x8508

00008534 <__pack_f>:
    8534:	0b 12       	push	r11		
    8536:	0a 12       	push	r10		
    8538:	09 12       	push	r9		
    853a:	08 12       	push	r8		
    853c:	07 12       	push	r7		
    853e:	0d 4f       	mov	r15,	r13	
    8540:	1e 4f 04 00 	mov	4(r15),	r14	;0x0004(r15)
    8544:	1f 4f 06 00 	mov	6(r15),	r15	;0x0006(r15)
    8548:	5a 4d 01 00 	mov.b	1(r13),	r10	;0x0001(r13)
    854c:	6c 4d       	mov.b	@r13,	r12	
    854e:	6c 93       	cmp.b	#2,	r12	;r3 As==10
    8550:	70 28       	jnc	$+226    	;abs 0x8632
    8552:	6c 92       	cmp.b	#4,	r12	;r2 As==10
    8554:	6a 24       	jz	$+214    	;abs 0x862a
    8556:	6c 93       	cmp.b	#2,	r12	;r3 As==10
    8558:	36 24       	jz	$+110    	;abs 0x85c6
    855a:	0e 93       	tst	r14		
    855c:	32 24       	jz	$+102    	;abs 0x85c2
    855e:	1b 4d 02 00 	mov	2(r13),	r11	;0x0002(r13)
    8562:	3b 90 82 ff 	cmp	#-126,	r11	;#0xff82
    8566:	6d 38       	jl	$+220    	;abs 0x8642
    8568:	3b 90 80 00 	cmp	#128,	r11	;#0x0080
    856c:	5e 34       	jge	$+190    	;abs 0x862a
    856e:	0c 4e       	mov	r14,	r12	
    8570:	0d 4f       	mov	r15,	r13	
    8572:	3c f0 7f 00 	and	#127,	r12	;#0x007f
    8576:	0d f3       	and	#0,	r13	;r3 As==00
    8578:	3c 90 40 00 	cmp	#64,	r12	;#0x0040
    857c:	40 24       	jz	$+130    	;abs 0x85fe
    857e:	3e 50 3f 00 	add	#63,	r14	;#0x003f
    8582:	0f 63       	adc	r15		
    8584:	0f 93       	tst	r15		
    8586:	4a 38       	jl	$+150    	;abs 0x861c
    8588:	0d 4b       	mov	r11,	r13	
    858a:	3d 50 7f 00 	add	#127,	r13	;#0x007f
    858e:	12 c3       	clrc			
    8590:	0f 10       	rrc	r15		
    8592:	0e 10       	rrc	r14		
    8594:	12 c3       	clrc			
    8596:	0f 10       	rrc	r15		
    8598:	0e 10       	rrc	r14		
    859a:	12 c3       	clrc			
    859c:	0f 10       	rrc	r15		
    859e:	0e 10       	rrc	r14		
    85a0:	12 c3       	clrc			
    85a2:	0f 10       	rrc	r15		
    85a4:	0e 10       	rrc	r14		
    85a6:	12 c3       	clrc			
    85a8:	0f 10       	rrc	r15		
    85aa:	0e 10       	rrc	r14		
    85ac:	12 c3       	clrc			
    85ae:	0f 10       	rrc	r15		
    85b0:	0e 10       	rrc	r14		
    85b2:	12 c3       	clrc			
    85b4:	0f 10       	rrc	r15		
    85b6:	0e 10       	rrc	r14		
    85b8:	3e f3       	and	#-1,	r14	;r3 As==11
    85ba:	3f f0 7f 00 	and	#127,	r15	;#0x007f
    85be:	4d 4d       	mov.b	r13,	r13	
    85c0:	05 3c       	jmp	$+12     	;abs 0x85cc
    85c2:	0f 93       	tst	r15		
    85c4:	cc 23       	jnz	$-102    	;abs 0x855e
    85c6:	4d 43       	clr.b	r13		
    85c8:	0e 43       	clr	r14		
    85ca:	0f 43       	clr	r15		
    85cc:	4d 4d       	mov.b	r13,	r13	
    85ce:	0d 5d       	rla	r13		
    85d0:	0d 5d       	rla	r13		
    85d2:	0d 5d       	rla	r13		
    85d4:	0d 5d       	rla	r13		
    85d6:	0d 5d       	rla	r13		
    85d8:	0d 5d       	rla	r13		
    85da:	0d 5d       	rla	r13		
    85dc:	0c 4f       	mov	r15,	r12	
    85de:	3c f0 7f 00 	and	#127,	r12	;#0x007f
    85e2:	0c dd       	bis	r13,	r12	
    85e4:	4f 4a       	mov.b	r10,	r15	
    85e6:	0f 11       	rra	r15		
    85e8:	0f 43       	clr	r15		
    85ea:	0f 10       	rrc	r15		
    85ec:	0d 4c       	mov	r12,	r13	
    85ee:	0d df       	bis	r15,	r13	
    85f0:	0f 4d       	mov	r13,	r15	
    85f2:	37 41       	pop	r7		
    85f4:	38 41       	pop	r8		
    85f6:	39 41       	pop	r9		
    85f8:	3a 41       	pop	r10		
    85fa:	3b 41       	pop	r11		
    85fc:	30 41       	ret			
    85fe:	0d 93       	tst	r13		
    8600:	be 23       	jnz	$-130    	;abs 0x857e
    8602:	0c 4e       	mov	r14,	r12	
    8604:	0d 4f       	mov	r15,	r13	
    8606:	3c f0 80 00 	and	#128,	r12	;#0x0080
    860a:	0d f3       	and	#0,	r13	;r3 As==00
    860c:	0c 93       	tst	r12		
    860e:	02 20       	jnz	$+6      	;abs 0x8614
    8610:	0d 93       	tst	r13		
    8612:	b8 27       	jz	$-142    	;abs 0x8584
    8614:	3e 50 40 00 	add	#64,	r14	;#0x0040
    8618:	0f 63       	adc	r15		
    861a:	b4 3f       	jmp	$-150    	;abs 0x8584
    861c:	12 c3       	clrc			
    861e:	0f 10       	rrc	r15		
    8620:	0e 10       	rrc	r14		
    8622:	0d 4b       	mov	r11,	r13	
    8624:	3d 50 80 00 	add	#128,	r13	;#0x0080
    8628:	b2 3f       	jmp	$-154    	;abs 0x858e
    862a:	7d 43       	mov.b	#-1,	r13	;r3 As==11
    862c:	0e 43       	clr	r14		
    862e:	0f 43       	clr	r15		
    8630:	cd 3f       	jmp	$-100    	;abs 0x85cc
    8632:	0e d3       	bis	#0,	r14	;r3 As==00
    8634:	3f d0 10 00 	bis	#16,	r15	;#0x0010
    8638:	3e f3       	and	#-1,	r14	;r3 As==11
    863a:	3f f0 7f 00 	and	#127,	r15	;#0x007f
    863e:	7d 43       	mov.b	#-1,	r13	;r3 As==11
    8640:	c5 3f       	jmp	$-116    	;abs 0x85cc
    8642:	37 40 82 ff 	mov	#-126,	r7	;#0xff82
    8646:	07 8b       	sub	r11,	r7	
    8648:	37 90 1a 00 	cmp	#26,	r7	;#0x001a
    864c:	4f 34       	jge	$+160    	;abs 0x86ec
    864e:	0c 4e       	mov	r14,	r12	
    8650:	0d 4f       	mov	r15,	r13	
    8652:	4b 47       	mov.b	r7,	r11	
    8654:	7b f0 1f 00 	and.b	#31,	r11	;#0x001f
    8658:	05 24       	jz	$+12     	;abs 0x8664
    865a:	12 c3       	clrc			
    865c:	0d 10       	rrc	r13		
    865e:	0c 10       	rrc	r12		
    8660:	7b 53       	add.b	#-1,	r11	;r3 As==11
    8662:	fb 23       	jnz	$-8      	;abs 0x865a
    8664:	18 43       	mov	#1,	r8	;r3 As==01
    8666:	09 43       	clr	r9		
    8668:	77 f0 1f 00 	and.b	#31,	r7	;#0x001f
    866c:	04 24       	jz	$+10     	;abs 0x8676
    866e:	08 58       	rla	r8		
    8670:	09 69       	rlc	r9		
    8672:	77 53       	add.b	#-1,	r7	;r3 As==11
    8674:	fc 23       	jnz	$-6      	;abs 0x866e
    8676:	38 53       	add	#-1,	r8	;r3 As==11
    8678:	39 63       	addc	#-1,	r9	;r3 As==11
    867a:	08 fe       	and	r14,	r8	
    867c:	09 ff       	and	r15,	r9	
    867e:	1e 43       	mov	#1,	r14	;r3 As==01
    8680:	0f 43       	clr	r15		
    8682:	08 93       	tst	r8		
    8684:	04 20       	jnz	$+10     	;abs 0x868e
    8686:	09 93       	tst	r9		
    8688:	02 20       	jnz	$+6      	;abs 0x868e
    868a:	0e 43       	clr	r14		
    868c:	0f 43       	clr	r15		
    868e:	08 4e       	mov	r14,	r8	
    8690:	09 4f       	mov	r15,	r9	
    8692:	08 dc       	bis	r12,	r8	
    8694:	09 dd       	bis	r13,	r9	
    8696:	0e 48       	mov	r8,	r14	
    8698:	0f 49       	mov	r9,	r15	
    869a:	3e f0 7f 00 	and	#127,	r14	;#0x007f
    869e:	0f f3       	and	#0,	r15	;r3 As==00
    86a0:	3e 90 40 00 	cmp	#64,	r14	;#0x0040
    86a4:	26 24       	jz	$+78     	;abs 0x86f2
    86a6:	38 50 3f 00 	add	#63,	r8	;#0x003f
    86aa:	09 63       	adc	r9		
    86ac:	0e 48       	mov	r8,	r14	
    86ae:	0f 49       	mov	r9,	r15	
    86b0:	12 c3       	clrc			
    86b2:	0f 10       	rrc	r15		
    86b4:	0e 10       	rrc	r14		
    86b6:	12 c3       	clrc			
    86b8:	0f 10       	rrc	r15		
    86ba:	0e 10       	rrc	r14		
    86bc:	12 c3       	clrc			
    86be:	0f 10       	rrc	r15		
    86c0:	0e 10       	rrc	r14		
    86c2:	12 c3       	clrc			
    86c4:	0f 10       	rrc	r15		
    86c6:	0e 10       	rrc	r14		
    86c8:	12 c3       	clrc			
    86ca:	0f 10       	rrc	r15		
    86cc:	0e 10       	rrc	r14		
    86ce:	12 c3       	clrc			
    86d0:	0f 10       	rrc	r15		
    86d2:	0e 10       	rrc	r14		
    86d4:	12 c3       	clrc			
    86d6:	0f 10       	rrc	r15		
    86d8:	0e 10       	rrc	r14		
    86da:	3e f3       	and	#-1,	r14	;r3 As==11
    86dc:	3f f0 7f 00 	and	#127,	r15	;#0x007f
    86e0:	5d 43       	mov.b	#1,	r13	;r3 As==01
    86e2:	39 90 00 40 	cmp	#16384,	r9	;#0x4000
    86e6:	72 2f       	jc	$-282    	;abs 0x85cc
    86e8:	4d 43       	clr.b	r13		
    86ea:	70 3f       	jmp	$-286    	;abs 0x85cc
    86ec:	08 43       	clr	r8		
    86ee:	09 43       	clr	r9		
    86f0:	da 3f       	jmp	$-74     	;abs 0x86a6
    86f2:	0f 93       	tst	r15		
    86f4:	d8 23       	jnz	$-78     	;abs 0x86a6
    86f6:	0e 48       	mov	r8,	r14	
    86f8:	0f 49       	mov	r9,	r15	
    86fa:	3e f0 80 00 	and	#128,	r14	;#0x0080
    86fe:	0f f3       	and	#0,	r15	;r3 As==00
    8700:	0e 93       	tst	r14		
    8702:	04 24       	jz	$+10     	;abs 0x870c
    8704:	38 50 40 00 	add	#64,	r8	;#0x0040
    8708:	09 63       	adc	r9		
    870a:	d0 3f       	jmp	$-94     	;abs 0x86ac
    870c:	0f 93       	tst	r15		
    870e:	ce 27       	jz	$-98     	;abs 0x86ac
    8710:	f9 3f       	jmp	$-12     	;abs 0x8704

00008712 <__unpack_f>:
    8712:	0b 12       	push	r11		
    8714:	0a 12       	push	r10		
    8716:	2a 4f       	mov	@r15,	r10	
    8718:	5b 4f 02 00 	mov.b	2(r15),	r11	;0x0002(r15)
    871c:	3b f0 7f 00 	and	#127,	r11	;#0x007f
    8720:	1d 4f 02 00 	mov	2(r15),	r13	;0x0002(r15)
    8724:	12 c3       	clrc			
    8726:	0d 10       	rrc	r13		
    8728:	12 c3       	clrc			
    872a:	0d 10       	rrc	r13		
    872c:	12 c3       	clrc			
    872e:	0d 10       	rrc	r13		
    8730:	12 c3       	clrc			
    8732:	0d 10       	rrc	r13		
    8734:	12 c3       	clrc			
    8736:	0d 10       	rrc	r13		
    8738:	12 c3       	clrc			
    873a:	0d 10       	rrc	r13		
    873c:	12 c3       	clrc			
    873e:	0d 10       	rrc	r13		
    8740:	4d 4d       	mov.b	r13,	r13	
    8742:	5f 4f 03 00 	mov.b	3(r15),	r15	;0x0003(r15)
    8746:	3f b0 80 00 	bit	#128,	r15	;#0x0080
    874a:	0f 43       	clr	r15		
    874c:	0f 6f       	rlc	r15		
    874e:	ce 4f 01 00 	mov.b	r15,	1(r14)	;0x0001(r14)
    8752:	0d 93       	tst	r13		
    8754:	2d 20       	jnz	$+92     	;abs 0x87b0
    8756:	0a 93       	tst	r10		
    8758:	51 24       	jz	$+164    	;abs 0x87fc
    875a:	be 40 82 ff 02 00 	mov	#-126,	2(r14)	;#0xff82, 0x0002(r14)
    8760:	0c 4a       	mov	r10,	r12	
    8762:	0d 4b       	mov	r11,	r13	
    8764:	0c 5c       	rla	r12		
    8766:	0d 6d       	rlc	r13		
    8768:	0c 5c       	rla	r12		
    876a:	0d 6d       	rlc	r13		
    876c:	0c 5c       	rla	r12		
    876e:	0d 6d       	rlc	r13		
    8770:	0c 5c       	rla	r12		
    8772:	0d 6d       	rlc	r13		
    8774:	0c 5c       	rla	r12		
    8776:	0d 6d       	rlc	r13		
    8778:	0c 5c       	rla	r12		
    877a:	0d 6d       	rlc	r13		
    877c:	0c 5c       	rla	r12		
    877e:	0d 6d       	rlc	r13		
    8780:	fe 40 03 00 00 00 	mov.b	#3,	0(r14)	;#0x0003, 0x0000(r14)
    8786:	3d 90 00 40 	cmp	#16384,	r13	;#0x4000
    878a:	0b 2c       	jc	$+24     	;abs 0x87a2
    878c:	3f 40 81 ff 	mov	#-127,	r15	;#0xff81
    8790:	0c 5c       	rla	r12		
    8792:	0d 6d       	rlc	r13		
    8794:	0a 4f       	mov	r15,	r10	
    8796:	3f 53       	add	#-1,	r15	;r3 As==11
    8798:	3d 90 00 40 	cmp	#16384,	r13	;#0x4000
    879c:	f9 2b       	jnc	$-12     	;abs 0x8790
    879e:	8e 4a 02 00 	mov	r10,	2(r14)	;0x0002(r14)
    87a2:	8e 4c 04 00 	mov	r12,	4(r14)	;0x0004(r14)
    87a6:	8e 4d 06 00 	mov	r13,	6(r14)	;0x0006(r14)
    87aa:	3a 41       	pop	r10		
    87ac:	3b 41       	pop	r11		
    87ae:	30 41       	ret			
    87b0:	3d 90 ff 00 	cmp	#255,	r13	;#0x00ff
    87b4:	2a 24       	jz	$+86     	;abs 0x880a
    87b6:	3d 50 81 ff 	add	#-127,	r13	;#0xff81
    87ba:	8e 4d 02 00 	mov	r13,	2(r14)	;0x0002(r14)
    87be:	fe 40 03 00 00 00 	mov.b	#3,	0(r14)	;#0x0003, 0x0000(r14)
    87c4:	0c 4a       	mov	r10,	r12	
    87c6:	0d 4b       	mov	r11,	r13	
    87c8:	0c 5c       	rla	r12		
    87ca:	0d 6d       	rlc	r13		
    87cc:	0c 5c       	rla	r12		
    87ce:	0d 6d       	rlc	r13		
    87d0:	0c 5c       	rla	r12		
    87d2:	0d 6d       	rlc	r13		
    87d4:	0c 5c       	rla	r12		
    87d6:	0d 6d       	rlc	r13		
    87d8:	0c 5c       	rla	r12		
    87da:	0d 6d       	rlc	r13		
    87dc:	0c 5c       	rla	r12		
    87de:	0d 6d       	rlc	r13		
    87e0:	0c 5c       	rla	r12		
    87e2:	0d 6d       	rlc	r13		
    87e4:	0a 4c       	mov	r12,	r10	
    87e6:	0b 4d       	mov	r13,	r11	
    87e8:	0a d3       	bis	#0,	r10	;r3 As==00
    87ea:	3b d0 00 40 	bis	#16384,	r11	;#0x4000
    87ee:	8e 4a 04 00 	mov	r10,	4(r14)	;0x0004(r14)
    87f2:	8e 4b 06 00 	mov	r11,	6(r14)	;0x0006(r14)
    87f6:	3a 41       	pop	r10		
    87f8:	3b 41       	pop	r11		
    87fa:	30 41       	ret			
    87fc:	0b 93       	tst	r11		
    87fe:	ad 23       	jnz	$-164    	;abs 0x875a
    8800:	ee 43 00 00 	mov.b	#2,	0(r14)	;r3 As==10, 0x0000(r14)
    8804:	3a 41       	pop	r10		
    8806:	3b 41       	pop	r11		
    8808:	30 41       	ret			
    880a:	0a 93       	tst	r10		
    880c:	0c 24       	jz	$+26     	;abs 0x8826
    880e:	0c 4a       	mov	r10,	r12	
    8810:	0d 4b       	mov	r11,	r13	
    8812:	0c f3       	and	#0,	r12	;r3 As==00
    8814:	3d f0 10 00 	and	#16,	r13	;#0x0010
    8818:	0c 93       	tst	r12		
    881a:	02 20       	jnz	$+6      	;abs 0x8820
    881c:	0d 93       	tst	r13		
    881e:	08 24       	jz	$+18     	;abs 0x8830
    8820:	de 43 00 00 	mov.b	#1,	0(r14)	;r3 As==01, 0x0000(r14)
    8824:	e4 3f       	jmp	$-54     	;abs 0x87ee
    8826:	0b 93       	tst	r11		
    8828:	f2 23       	jnz	$-26     	;abs 0x880e
    882a:	ee 42 00 00 	mov.b	#4,	0(r14)	;r2 As==10, 0x0000(r14)
    882e:	e3 3f       	jmp	$-56     	;abs 0x87f6
    8830:	ce 43 00 00 	mov.b	#0,	0(r14)	;r3 As==00, 0x0000(r14)
    8834:	dc 3f       	jmp	$-70     	;abs 0x87ee

00008836 <__fpcmp_parts_f>:
    8836:	0b 12       	push	r11		
    8838:	6d 4f       	mov.b	@r15,	r13	
    883a:	6d 93       	cmp.b	#2,	r13	;r3 As==10
    883c:	12 28       	jnc	$+38     	;abs 0x8862
    883e:	6c 4e       	mov.b	@r14,	r12	
    8840:	6c 93       	cmp.b	#2,	r12	;r3 As==10
    8842:	0f 28       	jnc	$+32     	;abs 0x8862
    8844:	6d 92       	cmp.b	#4,	r13	;r2 As==10
    8846:	41 24       	jz	$+132    	;abs 0x88ca
    8848:	6c 92       	cmp.b	#4,	r12	;r2 As==10
    884a:	11 24       	jz	$+36     	;abs 0x886e
    884c:	6d 93       	cmp.b	#2,	r13	;r3 As==10
    884e:	0d 24       	jz	$+28     	;abs 0x886a
    8850:	6c 93       	cmp.b	#2,	r12	;r3 As==10
    8852:	14 24       	jz	$+42     	;abs 0x887c
    8854:	5d 4f 01 00 	mov.b	1(r15),	r13	;0x0001(r15)
    8858:	5d 9e 01 00 	cmp.b	1(r14),	r13	;0x0001(r14)
    885c:	14 24       	jz	$+42     	;abs 0x8886
    885e:	4d 93       	tst.b	r13		
    8860:	09 20       	jnz	$+20     	;abs 0x8874
    8862:	1e 43       	mov	#1,	r14	;r3 As==01
    8864:	0f 4e       	mov	r14,	r15	
    8866:	3b 41       	pop	r11		
    8868:	30 41       	ret			
    886a:	6c 93       	cmp.b	#2,	r12	;r3 As==10
    886c:	28 24       	jz	$+82     	;abs 0x88be
    886e:	ce 93 01 00 	tst.b	1(r14)		;0x0001(r14)
    8872:	f7 23       	jnz	$-16     	;abs 0x8862
    8874:	3e 43       	mov	#-1,	r14	;r3 As==11
    8876:	0f 4e       	mov	r14,	r15	
    8878:	3b 41       	pop	r11		
    887a:	30 41       	ret			
    887c:	cf 93 01 00 	tst.b	1(r15)		;0x0001(r15)
    8880:	f0 27       	jz	$-30     	;abs 0x8862
    8882:	3e 43       	mov	#-1,	r14	;r3 As==11
    8884:	f8 3f       	jmp	$-14     	;abs 0x8876
    8886:	1b 4f 02 00 	mov	2(r15),	r11	;0x0002(r15)
    888a:	1c 4e 02 00 	mov	2(r14),	r12	;0x0002(r14)
    888e:	0c 9b       	cmp	r11,	r12	
    8890:	e6 3b       	jl	$-50     	;abs 0x885e
    8892:	0b 9c       	cmp	r12,	r11	
    8894:	16 38       	jl	$+46     	;abs 0x88c2
    8896:	1b 4f 04 00 	mov	4(r15),	r11	;0x0004(r15)
    889a:	1f 4f 06 00 	mov	6(r15),	r15	;0x0006(r15)
    889e:	1c 4e 04 00 	mov	4(r14),	r12	;0x0004(r14)
    88a2:	1e 4e 06 00 	mov	6(r14),	r14	;0x0006(r14)
    88a6:	0e 9f       	cmp	r15,	r14	
    88a8:	da 2b       	jnc	$-74     	;abs 0x885e
    88aa:	0f 9e       	cmp	r14,	r15	
    88ac:	02 28       	jnc	$+6      	;abs 0x88b2
    88ae:	0c 9b       	cmp	r11,	r12	
    88b0:	d6 2b       	jnc	$-82     	;abs 0x885e
    88b2:	0f 9e       	cmp	r14,	r15	
    88b4:	06 28       	jnc	$+14     	;abs 0x88c2
    88b6:	0e 9f       	cmp	r15,	r14	
    88b8:	02 28       	jnc	$+6      	;abs 0x88be
    88ba:	0b 9c       	cmp	r12,	r11	
    88bc:	02 28       	jnc	$+6      	;abs 0x88c2
    88be:	0e 43       	clr	r14		
    88c0:	d1 3f       	jmp	$-92     	;abs 0x8864
    88c2:	4d 93       	tst.b	r13		
    88c4:	ce 23       	jnz	$-98     	;abs 0x8862
    88c6:	3e 43       	mov	#-1,	r14	;r3 As==11
    88c8:	d6 3f       	jmp	$-82     	;abs 0x8876
    88ca:	6c 92       	cmp.b	#4,	r12	;r2 As==10
    88cc:	d7 23       	jnz	$-80     	;abs 0x887c
    88ce:	5e 4e 01 00 	mov.b	1(r14),	r14	;0x0001(r14)
    88d2:	5f 4f 01 00 	mov.b	1(r15),	r15	;0x0001(r15)
    88d6:	0e 8f       	sub	r15,	r14	
    88d8:	c5 3f       	jmp	$-116    	;abs 0x8864

000088da <memcmp>:
    88da:	0b 12       	push	r11		
    88dc:	0d 93       	tst	r13		
    88de:	0a 24       	jz	$+22     	;abs 0x88f4
    88e0:	7b 4f       	mov.b	@r15+,	r11	
    88e2:	7c 4e       	mov.b	@r14+,	r12	
    88e4:	4b 9c       	cmp.b	r12,	r11	
    88e6:	04 24       	jz	$+10     	;abs 0x88f0
    88e8:	4f 4b       	mov.b	r11,	r15	
    88ea:	4e 4c       	mov.b	r12,	r14	
    88ec:	0f 8e       	sub	r14,	r15	
    88ee:	03 3c       	jmp	$+8      	;abs 0x88f6
    88f0:	3d 53       	add	#-1,	r13	;r3 As==11
    88f2:	f4 3f       	jmp	$-22     	;abs 0x88dc
    88f4:	0f 43       	clr	r15		
    88f6:	3b 41       	pop	r11		
    88f8:	30 41       	ret			

000088fa <memcpy>:
    88fa:	0b 12       	push	r11		
    88fc:	0a 12       	push	r10		
    88fe:	09 12       	push	r9		
    8900:	08 12       	push	r8		
    8902:	07 12       	push	r7		
    8904:	0d 93       	tst	r13		
    8906:	70 24       	jz	$+226    	;abs 0x89e8
    8908:	0f 9e       	cmp	r14,	r15	
    890a:	6e 24       	jz	$+222    	;abs 0x89e8
    890c:	34 2c       	jc	$+106    	;abs 0x8976
    890e:	0c 4e       	mov	r14,	r12	
    8910:	0c df       	bis	r15,	r12	
    8912:	1c f3       	and	#1,	r12	;r3 As==01
    8914:	1b 24       	jz	$+56     	;abs 0x894c
    8916:	0c 4e       	mov	r14,	r12	
    8918:	0c ef       	xor	r15,	r12	
    891a:	1c f3       	and	#1,	r12	;r3 As==01
    891c:	07 20       	jnz	$+16     	;abs 0x892c
    891e:	2d 93       	cmp	#2,	r13	;r3 As==10
    8920:	07 28       	jnc	$+16     	;abs 0x8930
    8922:	0b 4e       	mov	r14,	r11	
    8924:	1b f3       	and	#1,	r11	;r3 As==01
    8926:	2c 43       	mov	#2,	r12	;r3 As==10
    8928:	0c 8b       	sub	r11,	r12	
    892a:	03 3c       	jmp	$+8      	;abs 0x8932
    892c:	0c 4d       	mov	r13,	r12	
    892e:	01 3c       	jmp	$+4      	;abs 0x8932
    8930:	1c 43       	mov	#1,	r12	;r3 As==01
    8932:	0d 8c       	sub	r12,	r13	
    8934:	0a 4c       	mov	r12,	r10	
    8936:	09 4e       	mov	r14,	r9	
    8938:	0b 4f       	mov	r15,	r11	
    893a:	fb 49 00 00 	mov.b	@r9+,	0(r11)	;0x0000(r11)
    893e:	1b 53       	inc	r11		
    8940:	3a 53       	add	#-1,	r10	;r3 As==11
    8942:	fb 23       	jnz	$-8      	;abs 0x893a
    8944:	0a 4f       	mov	r15,	r10	
    8946:	0a 5c       	add	r12,	r10	
    8948:	0e 5c       	add	r12,	r14	
    894a:	01 3c       	jmp	$+4      	;abs 0x894e
    894c:	0a 4f       	mov	r15,	r10	
    894e:	0b 4d       	mov	r13,	r11	
    8950:	12 c3       	clrc			
    8952:	0b 10       	rrc	r11		
    8954:	0b 24       	jz	$+24     	;abs 0x896c
    8956:	09 4b       	mov	r11,	r9	
    8958:	08 4e       	mov	r14,	r8	
    895a:	0c 4a       	mov	r10,	r12	
    895c:	bc 48 00 00 	mov	@r8+,	0(r12)	;0x0000(r12)
    8960:	2c 53       	incd	r12		
    8962:	39 53       	add	#-1,	r9	;r3 As==11
    8964:	fb 23       	jnz	$-8      	;abs 0x895c
    8966:	0b 5b       	rla	r11		
    8968:	0e 5b       	add	r11,	r14	
    896a:	0a 5b       	add	r11,	r10	
    896c:	1d f3       	and	#1,	r13	;r3 As==01
    896e:	3c 24       	jz	$+122    	;abs 0x89e8
    8970:	ea 4e 00 00 	mov.b	@r14,	0(r10)	;0x0000(r10)
    8974:	39 3c       	jmp	$+116    	;abs 0x89e8
    8976:	0e 5d       	add	r13,	r14	
    8978:	0c 4f       	mov	r15,	r12	
    897a:	0c 5d       	add	r13,	r12	
    897c:	0b 4c       	mov	r12,	r11	
    897e:	0b de       	bis	r14,	r11	
    8980:	1b f3       	and	#1,	r11	;r3 As==01
    8982:	1b 24       	jz	$+56     	;abs 0x89ba
    8984:	0b 4c       	mov	r12,	r11	
    8986:	0b ee       	xor	r14,	r11	
    8988:	1b f3       	and	#1,	r11	;r3 As==01
    898a:	06 20       	jnz	$+14     	;abs 0x8998
    898c:	3d 90 03 00 	cmp	#3,	r13	;#0x0003
    8990:	03 28       	jnc	$+8      	;abs 0x8998
    8992:	0b 4e       	mov	r14,	r11	
    8994:	1b f3       	and	#1,	r11	;r3 As==01
    8996:	01 3c       	jmp	$+4      	;abs 0x899a
    8998:	0b 4d       	mov	r13,	r11	
    899a:	0d 8b       	sub	r11,	r13	
    899c:	09 4e       	mov	r14,	r9	
    899e:	0a 4c       	mov	r12,	r10	
    89a0:	08 4b       	mov	r11,	r8	
    89a2:	08 8c       	sub	r12,	r8	
    89a4:	3a 53       	add	#-1,	r10	;r3 As==11
    89a6:	39 53       	add	#-1,	r9	;r3 As==11
    89a8:	ea 49 00 00 	mov.b	@r9,	0(r10)	;0x0000(r10)
    89ac:	07 4a       	mov	r10,	r7	
    89ae:	07 58       	add	r8,	r7	
    89b0:	f9 23       	jnz	$-12     	;abs 0x89a4
    89b2:	3b e3       	inv	r11		
    89b4:	1b 53       	inc	r11		
    89b6:	0c 5b       	add	r11,	r12	
    89b8:	0e 5b       	add	r11,	r14	
    89ba:	0b 4d       	mov	r13,	r11	
    89bc:	12 c3       	clrc			
    89be:	0b 10       	rrc	r11		
    89c0:	0e 24       	jz	$+30     	;abs 0x89de
    89c2:	0a 4b       	mov	r11,	r10	
    89c4:	08 4e       	mov	r14,	r8	
    89c6:	09 4c       	mov	r12,	r9	
    89c8:	28 83       	decd	r8		
    89ca:	29 83       	decd	r9		
    89cc:	a9 48 00 00 	mov	@r8,	0(r9)	;0x0000(r9)
    89d0:	3a 53       	add	#-1,	r10	;r3 As==11
    89d2:	fa 23       	jnz	$-10     	;abs 0x89c8
    89d4:	0a 8b       	sub	r11,	r10	
    89d6:	0b 4a       	mov	r10,	r11	
    89d8:	0b 5b       	rla	r11		
    89da:	0e 5b       	add	r11,	r14	
    89dc:	0c 5b       	add	r11,	r12	
    89de:	1d f3       	and	#1,	r13	;r3 As==01
    89e0:	03 24       	jz	$+8      	;abs 0x89e8
    89e2:	dc 4e ff ff ff ff 	mov.b	-1(r14),-1(r12)	;0xffff(r14), 0xffff(r12)
    89e8:	37 41       	pop	r7		
    89ea:	38 41       	pop	r8		
    89ec:	39 41       	pop	r9		
    89ee:	3a 41       	pop	r10		
    89f0:	3b 41       	pop	r11		
    89f2:	30 41       	ret			

000089f4 <memset>:
    89f4:	0b 12       	push	r11		
    89f6:	0a 12       	push	r10		
    89f8:	09 12       	push	r9		
    89fa:	08 12       	push	r8		
    89fc:	3d 90 06 00 	cmp	#6,	r13	;#0x0006
    8a00:	09 2c       	jc	$+20     	;abs 0x8a14
    8a02:	0c 4f       	mov	r15,	r12	
    8a04:	04 3c       	jmp	$+10     	;abs 0x8a0e
    8a06:	cc 4e 00 00 	mov.b	r14,	0(r12)	;0x0000(r12)
    8a0a:	1c 53       	inc	r12		
    8a0c:	3d 53       	add	#-1,	r13	;r3 As==11
    8a0e:	0d 93       	tst	r13		
    8a10:	fa 23       	jnz	$-10     	;abs 0x8a06
    8a12:	20 3c       	jmp	$+66     	;abs 0x8a54
    8a14:	4e 4e       	mov.b	r14,	r14	
    8a16:	4b 4e       	mov.b	r14,	r11	
    8a18:	0b 93       	tst	r11		
    8a1a:	03 24       	jz	$+8      	;abs 0x8a22
    8a1c:	0c 4b       	mov	r11,	r12	
    8a1e:	8c 10       	swpb	r12		
    8a20:	0b dc       	bis	r12,	r11	
    8a22:	1f b3       	bit	#1,	r15	;r3 As==01
    8a24:	06 24       	jz	$+14     	;abs 0x8a32
    8a26:	3d 53       	add	#-1,	r13	;r3 As==11
    8a28:	cf 4e 00 00 	mov.b	r14,	0(r15)	;0x0000(r15)
    8a2c:	09 4f       	mov	r15,	r9	
    8a2e:	19 53       	inc	r9		
    8a30:	01 3c       	jmp	$+4      	;abs 0x8a34
    8a32:	09 4f       	mov	r15,	r9	
    8a34:	0c 4d       	mov	r13,	r12	
    8a36:	12 c3       	clrc			
    8a38:	0c 10       	rrc	r12		
    8a3a:	0a 49       	mov	r9,	r10	
    8a3c:	08 4c       	mov	r12,	r8	
    8a3e:	8a 4b 00 00 	mov	r11,	0(r10)	;0x0000(r10)
    8a42:	2a 53       	incd	r10		
    8a44:	38 53       	add	#-1,	r8	;r3 As==11
    8a46:	fb 23       	jnz	$-8      	;abs 0x8a3e
    8a48:	0c 5c       	rla	r12		
    8a4a:	0c 59       	add	r9,	r12	
    8a4c:	1d f3       	and	#1,	r13	;r3 As==01
    8a4e:	02 24       	jz	$+6      	;abs 0x8a54
    8a50:	cc 4e 00 00 	mov.b	r14,	0(r12)	;0x0000(r12)
    8a54:	38 41       	pop	r8		
    8a56:	39 41       	pop	r9		
    8a58:	3a 41       	pop	r10		
    8a5a:	3b 41       	pop	r11		
    8a5c:	30 41       	ret			

00008a5e <malloc>:
    8a5e:	0b 12       	push	r11		
    8a60:	0a 12       	push	r10		
    8a62:	09 12       	push	r9		
    8a64:	08 12       	push	r8		
    8a66:	07 12       	push	r7		
    8a68:	06 12       	push	r6		
    8a6a:	05 12       	push	r5		
    8a6c:	04 12       	push	r4		
    8a6e:	3d 40 2d 21 	mov	#8493,	r13	;#0x212d
    8a72:	3d f0 fe ff 	and	#-2,	r13	;#0xfffe
    8a76:	c2 93 84 17 	tst.b	&0x1784	
    8a7a:	05 20       	jnz	$+12     	;abs 0x8a86
    8a7c:	d2 43 84 17 	mov.b	#1,	&0x1784	;r3 As==01
    8a80:	bd 40 fe ff 00 00 	mov	#-2,	0(r13)	;#0xfffe, 0x0000(r13)
    8a86:	0a 41       	mov	r1,	r10	
    8a88:	3a 50 d8 ff 	add	#-40,	r10	;#0xffd8
    8a8c:	0c 4f       	mov	r15,	r12	
    8a8e:	1c 53       	inc	r12		
    8a90:	12 c3       	clrc			
    8a92:	0c 10       	rrc	r12		
    8a94:	03 3c       	jmp	$+8      	;abs 0x8a9c
    8a96:	1e 53       	inc	r14		
    8a98:	0e 5e       	rla	r14		
    8a9a:	0d 5e       	add	r14,	r13	
    8a9c:	2f 4d       	mov	@r13,	r15	
    8a9e:	0e 4f       	mov	r15,	r14	
    8aa0:	12 c3       	clrc			
    8aa2:	0e 10       	rrc	r14		
    8aa4:	55 43       	mov.b	#1,	r5	;r3 As==01
    8aa6:	3e 90 ff 7f 	cmp	#32767,	r14	;#0x7fff
    8aaa:	01 24       	jz	$+4      	;abs 0x8aae
    8aac:	45 43       	clr.b	r5		
    8aae:	1f f3       	and	#1,	r15	;r3 As==01
    8ab0:	4e 20       	jnz	$+158    	;abs 0x8b4e
    8ab2:	45 93       	tst.b	r5		
    8ab4:	16 24       	jz	$+46     	;abs 0x8ae2
    8ab6:	08 4a       	mov	r10,	r8	
    8ab8:	0e 4a       	mov	r10,	r14	
    8aba:	8e 10       	swpb	r14		
    8abc:	8e 11       	sxt	r14		
    8abe:	8e 10       	swpb	r14		
    8ac0:	8e 11       	sxt	r14		
    8ac2:	09 4e       	mov	r14,	r9	
    8ac4:	06 4d       	mov	r13,	r6	
    8ac6:	0e 4d       	mov	r13,	r14	
    8ac8:	8e 10       	swpb	r14		
    8aca:	8e 11       	sxt	r14		
    8acc:	8e 10       	swpb	r14		
    8ace:	8e 11       	sxt	r14		
    8ad0:	07 4e       	mov	r14,	r7	
    8ad2:	0e 48       	mov	r8,	r14	
    8ad4:	0f 49       	mov	r9,	r15	
    8ad6:	0e 86       	sub	r6,	r14	
    8ad8:	0f 77       	subc	r7,	r15	
    8ada:	0f 11       	rra	r15		
    8adc:	0e 10       	rrc	r14		
    8ade:	3e 53       	add	#-1,	r14	;r3 As==11
    8ae0:	18 3c       	jmp	$+50     	;abs 0x8b12
    8ae2:	04 4e       	mov	r14,	r4	
    8ae4:	14 53       	inc	r4		
    8ae6:	0b 44       	mov	r4,	r11	
    8ae8:	0b 5b       	rla	r11		
    8aea:	0b 5d       	add	r13,	r11	
    8aec:	2f 4b       	mov	@r11,	r15	
    8aee:	1f b3       	bit	#1,	r15	;r3 As==01
    8af0:	10 20       	jnz	$+34     	;abs 0x8b12
    8af2:	0e 4f       	mov	r15,	r14	
    8af4:	3e f0 fe ff 	and	#-2,	r14	;#0xfffe
    8af8:	3e 90 fe ff 	cmp	#-2,	r14	;#0xfffe
    8afc:	05 24       	jz	$+12     	;abs 0x8b08
    8afe:	12 c3       	clrc			
    8b00:	0f 10       	rrc	r15		
    8b02:	0f 54       	add	r4,	r15	
    8b04:	0f 5f       	rla	r15		
    8b06:	02 3c       	jmp	$+6      	;abs 0x8b0c
    8b08:	3f 40 fe ff 	mov	#-2,	r15	;#0xfffe
    8b0c:	8d 4f 00 00 	mov	r15,	0(r13)	;0x0000(r13)
    8b10:	c5 3f       	jmp	$-116    	;abs 0x8a9c
    8b12:	0e 9c       	cmp	r12,	r14	
    8b14:	1c 28       	jnc	$+58     	;abs 0x8b4e
    8b16:	0f 4c       	mov	r12,	r15	
    8b18:	1f 53       	inc	r15		
    8b1a:	0f 5f       	rla	r15		
    8b1c:	0f 5d       	add	r13,	r15	
    8b1e:	0a 9f       	cmp	r15,	r10	
    8b20:	18 28       	jnc	$+50     	;abs 0x8b52
    8b22:	45 93       	tst.b	r5		
    8b24:	04 24       	jz	$+10     	;abs 0x8b2e
    8b26:	bf 40 fe ff 00 00 	mov	#-2,	0(r15)	;#0xfffe, 0x0000(r15)
    8b2c:	09 3c       	jmp	$+20     	;abs 0x8b40
    8b2e:	0e 9c       	cmp	r12,	r14	
    8b30:	07 24       	jz	$+16     	;abs 0x8b40
    8b32:	0b 4c       	mov	r12,	r11	
    8b34:	3b e3       	inv	r11		
    8b36:	0b 5e       	add	r14,	r11	
    8b38:	8f 4b 00 00 	mov	r11,	0(r15)	;0x0000(r15)
    8b3c:	af 5f 00 00 	add	@r15,	0(r15)	;0x0000(r15)
    8b40:	0c 5c       	rla	r12		
    8b42:	1c d3       	bis	#1,	r12	;r3 As==01
    8b44:	8d 4c 00 00 	mov	r12,	0(r13)	;0x0000(r13)
    8b48:	0f 4d       	mov	r13,	r15	
    8b4a:	2f 53       	incd	r15		
    8b4c:	03 3c       	jmp	$+8      	;abs 0x8b54
    8b4e:	45 93       	tst.b	r5		
    8b50:	a2 27       	jz	$-186    	;abs 0x8a96
    8b52:	0f 43       	clr	r15		
    8b54:	34 41       	pop	r4		
    8b56:	35 41       	pop	r5		
    8b58:	36 41       	pop	r6		
    8b5a:	37 41       	pop	r7		
    8b5c:	38 41       	pop	r8		
    8b5e:	39 41       	pop	r9		
    8b60:	3a 41       	pop	r10		
    8b62:	3b 41       	pop	r11		
    8b64:	30 41       	ret			

00008b66 <free>:
    8b66:	bf f0 fe ff fe ff 	and	#-2,	-2(r15)	;#0xfffe, 0xfffe(r15)
    8b6c:	30 41       	ret			

00008b6e <_unexpected_>:
    8b6e:	00 13       	reti			

Disassembly of section .vectors:

0000ffe0 <__ivtbl_16>:
    ffe0:	ae 45 dc 77 5e 79 0c 79 ea 76 80 76 62 76 ae 45     .E.w^y.y.v.vbv.E
    fff0:	e6 78 8a 78 ae 45 ae 45 c4 76 a6 76 ae 45 00 40     .x.x.E.E.v.v.E.@
