
build/telosb/main.exe:     file format elf32-msp430


Disassembly of section .text:

00004000 <__init_stack>:
    4000:	31 40 00 39 	mov	#14592,	r1	;#0x3900

00004004 <__low_level_init>:
    4004:	15 42 20 01 	mov	&0x0120,r5	
    4008:	75 f3       	and.b	#-1,	r5	;r3 As==11
    400a:	35 d0 08 5a 	bis	#23048,	r5	;#0x5a08

0000400e <__do_copy_data>:
    400e:	3f 40 e8 07 	mov	#2024,	r15	;#0x07e8
    4012:	0f 93       	tst	r15		
    4014:	07 24       	jz	$+16     	;abs 0x4024
    4016:	82 45 20 01 	mov	r5,	&0x0120	
    401a:	2f 83       	decd	r15		
    401c:	9f 4f 1c 76 00 11 	mov	30236(r15),4352(r15);0x761c(r15), 0x1100(r15)
    4022:	f9 23       	jnz	$-12     	;abs 0x4016

00004024 <__do_clear_bss>:
    4024:	3f 40 78 06 	mov	#1656,	r15	;#0x0678
    4028:	0f 93       	tst	r15		
    402a:	06 24       	jz	$+14     	;abs 0x4038
    402c:	82 45 20 01 	mov	r5,	&0x0120	
    4030:	1f 83       	dec	r15		
    4032:	cf 43 e8 18 	mov.b	#0,	6376(r15);r3 As==00, 0x18e8(r15)
    4036:	fa 23       	jnz	$-10     	;abs 0x402c

00004038 <main>:
    4038:	21 83       	decd	r1		
    403a:	b0 12 66 4c 	call	#0x4c66	
    403e:	47 4f       	mov.b	r15,	r7	
    4040:	3d 40 0e 00 	mov	#14,	r13	;#0x000e
    4044:	3e 40 ff 00 	mov	#255,	r14	;#0x00ff
    4048:	3f 40 9c 1b 	mov	#7068,	r15	;#0x1b9c
    404c:	b0 12 7e 73 	call	#0x737e	
    4050:	f2 43 b6 1c 	mov.b	#-1,	&0x1cb6	;r3 As==11
    4054:	f2 43 27 1f 	mov.b	#-1,	&0x1f27	;r3 As==11
    4058:	b2 40 80 5a 20 01 	mov	#23168,	&0x0120	;#0x5a80
    405e:	a2 42 60 01 	mov	#4,	&0x0160	;r2 As==10
    4062:	82 43 2e 01 	mov	#0,	&0x012e	;r3 As==00
    4066:	a2 42 80 01 	mov	#4,	&0x0180	;r2 As==10
    406a:	82 43 1e 01 	mov	#0,	&0x011e	;r3 As==00
    406e:	b2 40 20 02 60 01 	mov	#544,	&0x0160	;#0x0220
    4074:	b2 40 20 01 80 01 	mov	#288,	&0x0180	;#0x0120
    407a:	f2 40 84 ff 57 00 	mov.b	#-124,	&0x0057	;#0xff84
    4080:	c2 43 58 00 	mov.b	#0,	&0x0058	;r3 As==00
    4084:	b2 40 00 40 82 01 	mov	#16384,	&0x0182	;#0x4000
    408a:	39 40 0c 00 	mov	#12,	r9	;#0x000c
    408e:	3a 40 00 08 	mov	#2048,	r10	;#0x0800
    4092:	0b 43       	clr	r11		
    4094:	36 40 00 04 	mov	#1024,	r6	;#0x0400
    4098:	08 4a       	mov	r10,	r8	
    409a:	08 db       	bis	r11,	r8	
    409c:	0f 48       	mov	r8,	r15	
    409e:	b0 12 a2 47 	call	#0x47a2	
    40a2:	0e 43       	clr	r14		
    40a4:	0c 4e       	mov	r14,	r12	
    40a6:	6d 43       	mov.b	#2,	r13	;r3 As==10
    40a8:	0e 3c       	jmp	$+30     	;abs 0x40c6
    40aa:	1f 42 90 01 	mov	&0x0190,r15	
    40ae:	3f 52       	add	#8,	r15	;r2 As==11
    40b0:	82 4f 92 01 	mov	r15,	&0x0192	
    40b4:	b2 f0 fe ff 82 01 	and	#-2,	&0x0182	;#0xfffe
    40ba:	92 b3 82 01 	bit	#1,	&0x0182	;r3 As==01
    40be:	fd 27       	jz	$-4      	;abs 0x40ba
    40c0:	0c 4e       	mov	r14,	r12	
    40c2:	1e 42 70 01 	mov	&0x0170,r14	
    40c6:	7d 53       	add.b	#-1,	r13	;r3 As==11
    40c8:	7d 93       	cmp.b	#-1,	r13	;r3 As==11
    40ca:	ef 23       	jnz	$-32     	;abs 0x40aa
    40cc:	0e 8c       	sub	r12,	r14	
    40ce:	06 9e       	cmp	r14,	r6	
    40d0:	01 28       	jnc	$+4      	;abs 0x40d4
    40d2:	0b 48       	mov	r8,	r11	
    40d4:	0a 11       	rra	r10		
    40d6:	39 53       	add	#-1,	r9	;r3 As==11
    40d8:	df 23       	jnz	$-64     	;abs 0x4098
    40da:	0f 4b       	mov	r11,	r15	
    40dc:	3f f0 e0 00 	and	#224,	r15	;#0x00e0
    40e0:	3f 90 e0 00 	cmp	#224,	r15	;#0x00e0
    40e4:	02 20       	jnz	$+6      	;abs 0x40ea
    40e6:	3b f0 e0 ff 	and	#-32,	r11	;#0xffe0
    40ea:	0f 4b       	mov	r11,	r15	
    40ec:	b0 12 a2 47 	call	#0x47a2	
    40f0:	5f 42 57 00 	mov.b	&0x0057,r15	
    40f4:	7f f0 07 00 	and.b	#7,	r15	;#0x0007
    40f8:	7f d0 80 ff 	bis.b	#-128,	r15	;#0xff80
    40fc:	c2 4f 57 00 	mov.b	r15,	&0x0057	
    4100:	e2 42 58 00 	mov.b	#4,	&0x0058	;r2 As==10
    4104:	f2 f0 fd ff 00 00 	and.b	#-3,	&0x0000	;#0xfffd
    410a:	82 43 70 01 	mov	#0,	&0x0170	;r3 As==00
    410e:	b2 40 02 02 60 01 	mov	#514,	&0x0160	;#0x0202
    4114:	82 43 90 01 	mov	#0,	&0x0190	;r3 As==00
    4118:	b2 40 02 01 80 01 	mov	#258,	&0x0180	;#0x0102
    411e:	1f 42 60 01 	mov	&0x0160,r15	
    4122:	3f f0 cf ff 	and	#-49,	r15	;#0xffcf
    4126:	3f d0 20 00 	bis	#32,	r15	;#0x0020
    412a:	82 4f 60 01 	mov	r15,	&0x0160	
    412e:	1f 42 80 01 	mov	&0x0180,r15	
    4132:	3f f0 cf ff 	and	#-49,	r15	;#0xffcf
    4136:	3f d0 20 00 	bis	#32,	r15	;#0x0020
    413a:	82 4f 80 01 	mov	r15,	&0x0180	
    413e:	c2 43 26 00 	mov.b	#0,	&0x0026	;r3 As==00
    4142:	c2 43 2e 00 	mov.b	#0,	&0x002e	;r3 As==00
    4146:	c2 43 1b 00 	mov.b	#0,	&0x001b	;r3 As==00
    414a:	c2 43 1f 00 	mov.b	#0,	&0x001f	;r3 As==00
    414e:	c2 43 33 00 	mov.b	#0,	&0x0033	;r3 As==00
    4152:	c2 43 37 00 	mov.b	#0,	&0x0037	;r3 As==00
    4156:	c2 43 21 00 	mov.b	#0,	&0x0021	;r3 As==00
    415a:	f2 40 e0 ff 22 00 	mov.b	#-32,	&0x0022	;#0xffe0
    4160:	f2 40 30 00 29 00 	mov.b	#48,	&0x0029	;#0x0030
    4166:	f2 40 7b 00 2a 00 	mov.b	#123,	&0x002a	;#0x007b
    416c:	c2 43 19 00 	mov.b	#0,	&0x0019	;r3 As==00
    4170:	f2 40 f1 ff 1a 00 	mov.b	#-15,	&0x001a	;#0xfff1
    4176:	f2 40 dd ff 1d 00 	mov.b	#-35,	&0x001d	;#0xffdd
    417c:	f2 40 fd ff 1e 00 	mov.b	#-3,	&0x001e	;#0xfffd
    4182:	f2 43 31 00 	mov.b	#-1,	&0x0031	;r3 As==11
    4186:	f2 43 32 00 	mov.b	#-1,	&0x0032	;r3 As==11
    418a:	c2 43 35 00 	mov.b	#0,	&0x0035	;r3 As==00
    418e:	f2 43 36 00 	mov.b	#-1,	&0x0036	;r3 As==11
    4192:	c2 43 25 00 	mov.b	#0,	&0x0025	;r3 As==00
    4196:	c2 43 2d 00 	mov.b	#0,	&0x002d	;r3 As==00
    419a:	1e 42 70 01 	mov	&0x0170,r14	
    419e:	3f 40 00 28 	mov	#10240,	r15	;#0x2800
    41a2:	1d 42 70 01 	mov	&0x0170,r13	
    41a6:	0d 8e       	sub	r14,	r13	
    41a8:	0f 9d       	cmp	r13,	r15	
    41aa:	fb 2f       	jc	$-8      	;abs 0x41a2
    41ac:	e2 d3 1a 00 	bis.b	#2,	&0x001a	;r3 As==10
    41b0:	f2 d2 1a 00 	bis.b	#8,	&0x001a	;r2 As==11
    41b4:	f2 d0 80 ff 1e 00 	bis.b	#-128,	&0x001e	;#0xff80
    41ba:	f2 d0 10 00 1e 00 	bis.b	#16,	&0x001e	;#0x0010
    41c0:	f2 d0 80 ff 1d 00 	bis.b	#-128,	&0x001d	;#0xff80
    41c6:	b0 12 78 46 	call	#0x4678	
    41ca:	03 43       	nop			
    41cc:	03 43       	nop			
    41ce:	f2 f0 ef ff 1d 00 	and.b	#-17,	&0x001d	;#0xffef
    41d4:	b0 12 80 46 	call	#0x4680	
    41d8:	5f 43       	mov.b	#1,	r15	;r3 As==01
    41da:	b0 12 c0 47 	call	#0x47c0	
    41de:	4f 43       	clr.b	r15		
    41e0:	b0 12 c0 47 	call	#0x47c0	
    41e4:	5f 43       	mov.b	#1,	r15	;r3 As==01
    41e6:	b0 12 c0 47 	call	#0x47c0	
    41ea:	5f 43       	mov.b	#1,	r15	;r3 As==01
    41ec:	b0 12 c0 47 	call	#0x47c0	
    41f0:	5f 43       	mov.b	#1,	r15	;r3 As==01
    41f2:	b0 12 c0 47 	call	#0x47c0	
    41f6:	4f 43       	clr.b	r15		
    41f8:	b0 12 c0 47 	call	#0x47c0	
    41fc:	4f 43       	clr.b	r15		
    41fe:	b0 12 c0 47 	call	#0x47c0	
    4202:	5f 43       	mov.b	#1,	r15	;r3 As==01
    4204:	b0 12 c0 47 	call	#0x47c0	
    4208:	b0 12 78 46 	call	#0x4678	
    420c:	b0 12 72 46 	call	#0x4672	
    4210:	b0 12 6c 46 	call	#0x466c	
    4214:	f2 d0 10 00 32 00 	bis.b	#16,	&0x0032	;#0x0010
    421a:	f2 d0 20 00 32 00 	bis.b	#32,	&0x0032	;#0x0020
    4220:	f2 d0 40 00 32 00 	bis.b	#64,	&0x0032	;#0x0040
    4226:	f2 d0 10 00 31 00 	bis.b	#16,	&0x0031	;#0x0010
    422c:	f2 d0 20 00 31 00 	bis.b	#32,	&0x0031	;#0x0020
    4232:	f2 d0 40 00 31 00 	bis.b	#64,	&0x0031	;#0x0040
    4238:	b0 12 8a 6f 	call	#0x6f8a	
    423c:	4b 4f       	mov.b	r15,	r11	
    423e:	4f 93       	tst.b	r15		
    4240:	fb 23       	jnz	$-8      	;abs 0x4238
    4242:	f2 43 ea 1b 	mov.b	#-1,	&0x1bea	;r3 As==11
    4246:	b2 43 42 1a 	mov	#-1,	&0x1a42	;r3 As==11
    424a:	c2 4f 44 1a 	mov.b	r15,	&0x1a44	
    424e:	b2 43 46 1a 	mov	#-1,	&0x1a46	;r3 As==11
    4252:	c2 4f 48 1a 	mov.b	r15,	&0x1a48	
    4256:	b2 43 4a 1a 	mov	#-1,	&0x1a4a	;r3 As==11
    425a:	c2 4f 4c 1a 	mov.b	r15,	&0x1a4c	
    425e:	b2 43 4e 1a 	mov	#-1,	&0x1a4e	;r3 As==11
    4262:	c2 4f 50 1a 	mov.b	r15,	&0x1a50	
    4266:	b0 12 38 45 	call	#0x4538	
    426a:	c2 4f 5b 1c 	mov.b	r15,	&0x1c5b	
    426e:	1f 42 00 11 	mov	&0x1100,r15	
    4272:	1f 53       	inc	r15		
    4274:	82 4f f8 1b 	mov	r15,	&0x1bf8	
    4278:	82 43 fa 1b 	mov	#0,	&0x1bfa	;r3 As==00
    427c:	b0 12 64 46 	call	#0x4664	
    4280:	b2 40 00 40 86 01 	mov	#16384,	&0x0186	;#0x4000
    4286:	b2 40 80 1c 06 19 	mov	#7296,	&0x1906	;#0x1c80
    428c:	f2 f0 ef ff 22 00 	and.b	#-17,	&0x0022	;#0xffef
    4292:	b0 12 ba 46 	call	#0x46ba	
    4296:	f2 f0 fd ff 1e 00 	and.b	#-3,	&0x001e	;#0xfffd
    429c:	b0 12 30 45 	call	#0x4530	
    42a0:	b2 40 00 40 82 01 	mov	#16384,	&0x0182	;#0x4000
    42a6:	f2 43 08 1c 	mov.b	#-1,	&0x1c08	;r3 As==11
    42aa:	c2 4b 40 1c 	mov.b	r11,	&0x1c40	
    42ae:	c2 4b 41 1c 	mov.b	r11,	&0x1c41	
    42b2:	c2 4b 42 1c 	mov.b	r11,	&0x1c42	
    42b6:	c2 4b 43 1c 	mov.b	r11,	&0x1c43	
    42ba:	b0 12 ba 46 	call	#0x46ba	
    42be:	f2 d0 40 00 1e 00 	bis.b	#64,	&0x001e	;#0x0040
    42c4:	f2 d0 20 00 1e 00 	bis.b	#32,	&0x001e	;#0x0020
    42ca:	b0 12 76 53 	call	#0x5376	
    42ce:	82 4f 0e 1c 	mov	r15,	&0x1c0e	
    42d2:	b0 12 aa 4a 	call	#0x4aaa	
    42d6:	82 4c 50 1c 	mov	r12,	&0x1c50	
    42da:	82 4d 52 1c 	mov	r13,	&0x1c52	
    42de:	82 4e 54 1c 	mov	r14,	&0x1c54	
    42e2:	82 4f 56 1c 	mov	r15,	&0x1c56	
    42e6:	d2 42 de 18 f2 1b 	mov.b	&0x18de,&0x1bf2	
    42ec:	c2 4b f3 1b 	mov.b	r11,	&0x1bf3	
    42f0:	f2 40 1f 00 3e 1c 	mov.b	#31,	&0x1c3e	;#0x001f
    42f6:	f2 40 1a 00 59 1c 	mov.b	#26,	&0x1c59	;#0x001a
    42fc:	b0 12 aa 4a 	call	#0x4aaa	
    4300:	82 4c 50 1c 	mov	r12,	&0x1c50	
    4304:	82 4d 52 1c 	mov	r13,	&0x1c52	
    4308:	82 4e 54 1c 	mov	r14,	&0x1c54	
    430c:	82 4f 56 1c 	mov	r15,	&0x1c56	
    4310:	3e 40 50 1c 	mov	#7248,	r14	;#0x1c50
    4314:	0d 4e       	mov	r14,	r13	
    4316:	3d 50 07 00 	add	#7,	r13	;#0x0007
    431a:	6f 4e       	mov.b	@r14,	r15	
    431c:	ee 4d 00 00 	mov.b	@r13,	0(r14)	;0x0000(r14)
    4320:	cd 4f 00 00 	mov.b	r15,	0(r13)	;0x0000(r13)
    4324:	1e 53       	inc	r14		
    4326:	3d 53       	add	#-1,	r13	;r3 As==11
    4328:	3e 90 54 1c 	cmp	#7252,	r14	;#0x1c54
    432c:	f6 23       	jnz	$-18     	;abs 0x431a
    432e:	d2 43 e4 1b 	mov.b	#1,	&0x1be4	;r3 As==01
    4332:	c2 43 20 1f 	mov.b	#0,	&0x1f20	;r3 As==00
    4336:	d2 43 f4 1b 	mov.b	#1,	&0x1bf4	;r3 As==01
    433a:	c2 43 4e 1c 	mov.b	#0,	&0x1c4e	;r3 As==00
    433e:	b0 12 8a 6f 	call	#0x6f8a	
    4342:	4b 4f       	mov.b	r15,	r11	
    4344:	4f 93       	tst.b	r15		
    4346:	fb 23       	jnz	$-8      	;abs 0x433e
    4348:	4f 47       	mov.b	r7,	r15	
    434a:	b0 12 7a 4c 	call	#0x4c7a	
    434e:	32 d2       	eint			
    4350:	82 43 1e 1f 	mov	#0,	&0x1f1e	;r3 As==00
    4354:	92 43 38 1c 	mov	#1,	&0x1c38	;r3 As==01
    4358:	92 42 08 11 62 1a 	mov	&0x1108,&0x1a62	
    435e:	92 42 06 11 16 1c 	mov	&0x1106,&0x1c16	
    4364:	82 43 22 1f 	mov	#0,	&0x1f22	;r3 As==00
    4368:	82 43 1c 1c 	mov	#0,	&0x1c1c	;r3 As==00
    436c:	d2 43 21 1f 	mov.b	#1,	&0x1f21	;r3 As==01
    4370:	c2 4b f0 1b 	mov.b	r11,	&0x1bf0	
    4374:	a2 43 10 1f 	mov	#2,	&0x1f10	;r3 As==10
    4378:	82 43 40 1a 	mov	#0,	&0x1a40	;r3 As==00
    437c:	82 43 96 1b 	mov	#0,	&0x1b96	;r3 As==00
    4380:	b0 12 1a 48 	call	#0x481a	
    4384:	5f 43       	mov.b	#1,	r15	;r3 As==01
    4386:	b0 12 e8 56 	call	#0x56e8	
    438a:	4f 9b       	cmp.b	r11,	r15	
    438c:	19 20       	jnz	$+52     	;abs 0x43c0
    438e:	b0 12 66 4c 	call	#0x4c66	
    4392:	82 93 ea 18 	tst	&0x18ea	
    4396:	03 24       	jz	$+8      	;abs 0x439e
    4398:	b0 12 7a 4c 	call	#0x4c7a	
    439c:	19 3c       	jmp	$+52     	;abs 0x43d0
    439e:	92 43 ea 18 	mov	#1,	&0x18ea	;r3 As==01
    43a2:	b0 12 7a 4c 	call	#0x4c7a	
    43a6:	b0 12 66 4c 	call	#0x4c66	
    43aa:	f2 d0 20 00 1d 00 	bis.b	#32,	&0x001d	;#0x0020
    43b0:	b0 12 7a 4c 	call	#0x4c7a	
    43b4:	3e 40 14 00 	mov	#20,	r14	;#0x0014
    43b8:	0f 43       	clr	r15		
    43ba:	b0 12 52 51 	call	#0x5152	
    43be:	08 3c       	jmp	$+18     	;abs 0x43d0
    43c0:	6f 43       	mov.b	#2,	r15	;r3 As==10
    43c2:	b0 12 4c 4d 	call	#0x4d4c	
    43c6:	4f 93       	tst.b	r15		
    43c8:	03 20       	jnz	$+8      	;abs 0x43d0
    43ca:	5f 43       	mov.b	#1,	r15	;r3 As==01
    43cc:	b0 12 4c 4d 	call	#0x4d4c	
    43d0:	6a 42       	mov.b	#4,	r10	;r2 As==10
    43d2:	b0 12 66 4c 	call	#0x4c66	
    43d6:	49 4f       	mov.b	r15,	r9	
    43d8:	7a 3c       	jmp	$+246    	;abs 0x44ce
    43da:	c2 93 d6 18 	tst.b	&0x18d6	
    43de:	6b 24       	jz	$+216    	;abs 0x44b6
    43e0:	1d 42 62 01 	mov	&0x0162,r13	
    43e4:	3d f0 10 00 	and	#16,	r13	;#0x0010
    43e8:	0c 20       	jnz	$+26     	;abs 0x4402
    43ea:	1e 42 64 01 	mov	&0x0164,r14	
    43ee:	3e f0 10 00 	and	#16,	r14	;#0x0010
    43f2:	0e 9d       	cmp	r13,	r14	
    43f4:	06 20       	jnz	$+14     	;abs 0x4402
    43f6:	1f 42 66 01 	mov	&0x0166,r15	
    43fa:	3f f0 10 00 	and	#16,	r15	;#0x0010
    43fe:	0f 9e       	cmp	r14,	r15	
    4400:	07 24       	jz	$+16     	;abs 0x4410
    4402:	1f 42 60 01 	mov	&0x0160,r15	
    4406:	3f f0 00 03 	and	#768,	r15	;#0x0300
    440a:	3f 90 00 02 	cmp	#512,	r15	;#0x0200
    440e:	31 24       	jz	$+100    	;abs 0x4472
    4410:	5e 42 04 00 	mov.b	&0x0004,r14	
    4414:	3e f0 c0 00 	and	#192,	r14	;#0x00c0
    4418:	05 24       	jz	$+12     	;abs 0x4424
    441a:	5e 42 71 00 	mov.b	&0x0071,r14	
    441e:	3e f0 20 00 	and	#32,	r14	;#0x0020
    4422:	27 20       	jnz	$+80     	;abs 0x4472
    4424:	5e 42 05 00 	mov.b	&0x0005,r14	
    4428:	3e f0 30 00 	and	#48,	r14	;#0x0030
    442c:	05 24       	jz	$+12     	;abs 0x4438
    442e:	5e 42 79 00 	mov.b	&0x0079,r14	
    4432:	3e f0 20 00 	and	#32,	r14	;#0x0020
    4436:	1d 20       	jnz	$+60     	;abs 0x4472
    4438:	5e 42 70 00 	mov.b	&0x0070,r14	
    443c:	1e f3       	and	#1,	r14	;r3 As==01
    443e:	16 24       	jz	$+46     	;abs 0x446c
    4440:	5e 42 71 00 	mov.b	&0x0071,r14	
    4444:	3e f0 20 00 	and	#32,	r14	;#0x0020
    4448:	11 24       	jz	$+36     	;abs 0x446c
    444a:	5e 42 72 00 	mov.b	&0x0072,r14	
    444e:	3e f0 20 00 	and	#32,	r14	;#0x0020
    4452:	0c 24       	jz	$+26     	;abs 0x446c
    4454:	5e 42 70 00 	mov.b	&0x0070,r14	
    4458:	2e f2       	and	#4,	r14	;r2 As==10
    445a:	08 24       	jz	$+18     	;abs 0x446c
    445c:	5e 42 70 00 	mov.b	&0x0070,r14	
    4460:	3e f0 20 00 	and	#32,	r14	;#0x0020
    4464:	06 20       	jnz	$+14     	;abs 0x4472
    4466:	7e 50 05 00 	add.b	#5,	r14	;#0x0005
    446a:	04 3c       	jmp	$+10     	;abs 0x4474
    446c:	7e 40 05 00 	mov.b	#5,	r14	;#0x0005
    4470:	01 3c       	jmp	$+4      	;abs 0x4474
    4472:	6e 43       	mov.b	#2,	r14	;r3 As==10
    4474:	b2 b0 10 00 a0 01 	bit	#16,	&0x01a0	;#0x0010
    447a:	18 24       	jz	$+50     	;abs 0x44ac
    447c:	1d 42 a2 01 	mov	&0x01a2,r13	
    4480:	3d f0 10 00 	and	#16,	r13	;#0x0010
    4484:	05 24       	jz	$+12     	;abs 0x4490
    4486:	1e 42 a2 01 	mov	&0x01a2,r14	
    448a:	3e f2       	and	#8,	r14	;r2 As==11
    448c:	12 24       	jz	$+38     	;abs 0x44b2
    448e:	0d 3c       	jmp	$+28     	;abs 0x44aa
    4490:	1f 42 a2 01 	mov	&0x01a2,r15	
    4494:	3f f0 00 04 	and	#1024,	r15	;#0x0400
    4498:	0f 9d       	cmp	r13,	r15	
    449a:	08 24       	jz	$+18     	;abs 0x44ac
    449c:	1f 42 60 01 	mov	&0x0160,r15	
    44a0:	3f f0 00 03 	and	#768,	r15	;#0x0300
    44a4:	3f 90 00 02 	cmp	#512,	r15	;#0x0200
    44a8:	01 20       	jnz	$+4      	;abs 0x44ac
    44aa:	6e 43       	mov.b	#2,	r14	;r3 As==10
    44ac:	4a 9e       	cmp.b	r14,	r10	
    44ae:	01 2c       	jc	$+4      	;abs 0x44b2
    44b0:	6e 42       	mov.b	#4,	r14	;r2 As==10
    44b2:	c2 4e ec 18 	mov.b	r14,	&0x18ec	
    44b6:	5e 42 ec 18 	mov.b	&0x18ec,r14	
    44ba:	0e 5e       	rla	r14		
    44bc:	1e 4e 32 72 	mov	29234(r14),r14	;0x7232(r14)
    44c0:	3e d2       	bis	#8,	r14	;r2 As==11
    44c2:	81 4e 00 00 	mov	r14,	0(r1)	;0x0000(r1)
    44c6:	22 d1       	bis	@r1,	r2	
    44c8:	32 c2       	dint			
    44ca:	03 43       	nop			
    44cc:	03 43       	nop			
    44ce:	b0 12 fa 46 	call	#0x46fa	
    44d2:	4b 4f       	mov.b	r15,	r11	
    44d4:	7f 93       	cmp.b	#-1,	r15	;r3 As==11
    44d6:	81 27       	jz	$-252    	;abs 0x43da
    44d8:	4f 49       	mov.b	r9,	r15	
    44da:	b0 12 7a 4c 	call	#0x4c7a	
    44de:	4f 4b       	mov.b	r11,	r15	
    44e0:	b0 12 3e 68 	call	#0x683e	
    44e4:	76 3f       	jmp	$-274    	;abs 0x43d2

000044e6 <__stop_progExec__>:
    44e6:	32 d0 f0 00 	bis	#240,	r2	;#0x00f0
    44ea:	fd 3f       	jmp	$-4      	;abs 0x44e6

000044ec <__ctors_end>:
    44ec:	30 40 1a 76 	br	#0x761a	

000044f0 <Msp430TimerP__0__Event__fired>:
    44f0:	5f 93       	cmp.b	#1,	r15	;r3 As==01
    44f2:	0e 24       	jz	$+30     	;abs 0x4510
    44f4:	4f 93       	tst.b	r15		
    44f6:	03 24       	jz	$+8      	;abs 0x44fe
    44f8:	6f 93       	cmp.b	#2,	r15	;r3 As==10
    44fa:	19 20       	jnz	$+52     	;abs 0x452e
    44fc:	11 3c       	jmp	$+36     	;abs 0x4520
    44fe:	1e 42 62 01 	mov	&0x0162,r14	
    4502:	8e 10       	swpb	r14		
    4504:	5e f3       	and.b	#1,	r14	;r3 As==01
    4506:	4e 9f       	cmp.b	r15,	r14	
    4508:	12 24       	jz	$+38     	;abs 0x452e
    450a:	1f 42 72 01 	mov	&0x0172,r15	
    450e:	30 41       	ret			
    4510:	1f 42 64 01 	mov	&0x0164,r15	
    4514:	8f 10       	swpb	r15		
    4516:	5f f3       	and.b	#1,	r15	;r3 As==01
    4518:	0a 24       	jz	$+22     	;abs 0x452e
    451a:	1f 42 74 01 	mov	&0x0174,r15	
    451e:	30 41       	ret			
    4520:	1f 42 66 01 	mov	&0x0166,r15	
    4524:	8f 10       	swpb	r15		
    4526:	5f f3       	and.b	#1,	r15	;r3 As==01
    4528:	02 24       	jz	$+6      	;abs 0x452e
    452a:	1f 42 76 01 	mov	&0x0176,r15	
    452e:	30 41       	ret			

00004530 <Msp430AlarmC__0__Msp430TimerControl__disableEvents>:
    4530:	b2 f0 ef ff 82 01 	and	#-17,	&0x0182	;#0xffef
    4536:	30 41       	ret			

00004538 <RandomMlcgC__Random__rand16>:
    4538:	0b 12       	push	r11		
    453a:	0a 12       	push	r10		
    453c:	09 12       	push	r9		
    453e:	08 12       	push	r8		
    4540:	07 12       	push	r7		
    4542:	06 12       	push	r6		
    4544:	05 12       	push	r5		
    4546:	04 12       	push	r4		
    4548:	18 42 f8 1b 	mov	&0x1bf8,r8	
    454c:	19 42 fa 1b 	mov	&0x1bfa,r9	
    4550:	34 40 4e 83 	mov	#-31922,r4	;#0x834e
    4554:	05 43       	clr	r5		
    4556:	b0 12 18 75 	call	#0x7518	
    455a:	0a 4c       	mov	r12,	r10	
    455c:	0b 4d       	mov	r13,	r11	
    455e:	0c 4e       	mov	r14,	r12	
    4560:	0d 4f       	mov	r15,	r13	
    4562:	0e 4a       	mov	r10,	r14	
    4564:	0f 4b       	mov	r11,	r15	
    4566:	12 c3       	clrc			
    4568:	0f 10       	rrc	r15		
    456a:	0e 10       	rrc	r14		
    456c:	0e 5c       	add	r12,	r14	
    456e:	0f 6d       	addc	r13,	r15	
    4570:	0f 93       	tst	r15		
    4572:	05 34       	jge	$+12     	;abs 0x457e
    4574:	3e f3       	and	#-1,	r14	;r3 As==11
    4576:	3f f0 ff 7f 	and	#32767,	r15	;#0x7fff
    457a:	1e 53       	inc	r14		
    457c:	0f 63       	adc	r15		
    457e:	82 4e f8 1b 	mov	r14,	&0x1bf8	
    4582:	82 4f fa 1b 	mov	r15,	&0x1bfa	
    4586:	0f 4e       	mov	r14,	r15	
    4588:	34 41       	pop	r4		
    458a:	35 41       	pop	r5		
    458c:	36 41       	pop	r6		
    458e:	37 41       	pop	r7		
    4590:	38 41       	pop	r8		
    4592:	39 41       	pop	r9		
    4594:	3a 41       	pop	r10		
    4596:	3b 41       	pop	r11		
    4598:	30 41       	ret			

0000459a <CC2420SpiP__SpiResource__isOwner>:
    459a:	c2 93 da 18 	tst.b	&0x18da	
    459e:	08 20       	jnz	$+18     	;abs 0x45b0
    45a0:	5f 43       	mov.b	#1,	r15	;r3 As==01
    45a2:	f2 90 03 00 f0 18 	cmp.b	#3,	&0x18f0	;#0x0003
    45a8:	04 24       	jz	$+10     	;abs 0x45b2
    45aa:	5f 42 da 18 	mov.b	&0x18da,r15	
    45ae:	30 41       	ret			
    45b0:	4f 43       	clr.b	r15		
    45b2:	30 41       	ret			

000045b4 <HplMsp430Usart0P__Usart__resetUsart>:
    45b4:	4f 93       	tst.b	r15		
    45b6:	03 24       	jz	$+8      	;abs 0x45be
    45b8:	d2 43 70 00 	mov.b	#1,	&0x0070	;r3 As==01
    45bc:	30 41       	ret			
    45be:	f2 f0 fe ff 70 00 	and.b	#-2,	&0x0070	;#0xfffe
    45c4:	30 41       	ret			

000045c6 <__nesc_ntoh_leuint16>:
    45c6:	5e 4f 01 00 	mov.b	1(r15),	r14	;0x0001(r15)
    45ca:	8e 10       	swpb	r14		
    45cc:	6f 4f       	mov.b	@r15,	r15	
    45ce:	0f de       	bis	r14,	r15	
    45d0:	30 41       	ret			

000045d2 <__nesc_hton_uint32>:
    45d2:	0b 12       	push	r11		
    45d4:	0a 12       	push	r10		
    45d6:	0a 4d       	mov	r13,	r10	
    45d8:	0b 4e       	mov	r14,	r11	
    45da:	cf 4d 03 00 	mov.b	r13,	3(r15)	;0x0003(r15)
    45de:	0c 4d       	mov	r13,	r12	
    45e0:	0d 4e       	mov	r14,	r13	
    45e2:	8c 10       	swpb	r12		
    45e4:	8d 10       	swpb	r13		
    45e6:	4c ed       	xor.b	r13,	r12	
    45e8:	0c ed       	xor	r13,	r12	
    45ea:	7d f3       	and.b	#-1,	r13	;r3 As==11
    45ec:	cf 4c 02 00 	mov.b	r12,	2(r15)	;0x0002(r15)
    45f0:	cf 4e 01 00 	mov.b	r14,	1(r15)	;0x0001(r15)
    45f4:	8e 10       	swpb	r14		
    45f6:	cf 4e 00 00 	mov.b	r14,	0(r15)	;0x0000(r15)
    45fa:	0e 4a       	mov	r10,	r14	
    45fc:	0f 4b       	mov	r11,	r15	
    45fe:	3a 41       	pop	r10		
    4600:	3b 41       	pop	r11		
    4602:	30 41       	ret			

00004604 <__nesc_ntoh_uint32>:
    4604:	0b 12       	push	r11		
    4606:	0a 12       	push	r10		
    4608:	09 12       	push	r9		
    460a:	09 4f       	mov	r15,	r9	
    460c:	5c 4f 03 00 	mov.b	3(r15),	r12	;0x0003(r15)
    4610:	0d 43       	clr	r13		
    4612:	6f 49       	mov.b	@r9,	r15	
    4614:	0e 4d       	mov	r13,	r14	
    4616:	3f f0 ff 00 	and	#255,	r15	;#0x00ff
    461a:	8f 10       	swpb	r15		
    461c:	0e dc       	bis	r12,	r14	
    461e:	0f dd       	bis	r13,	r15	
    4620:	5d 49 01 00 	mov.b	1(r9),	r13	;0x0001(r9)
    4624:	0c 43       	clr	r12		
    4626:	0e dc       	bis	r12,	r14	
    4628:	0f dd       	bis	r13,	r15	
    462a:	5a 49 02 00 	mov.b	2(r9),	r10	;0x0002(r9)
    462e:	0b 4c       	mov	r12,	r11	
    4630:	4b ea       	xor.b	r10,	r11	
    4632:	0b ea       	xor	r10,	r11	
    4634:	8b 10       	swpb	r11		
    4636:	7a f3       	and.b	#-1,	r10	;r3 As==11
    4638:	8a 10       	swpb	r10		
    463a:	0e da       	bis	r10,	r14	
    463c:	0f db       	bis	r11,	r15	
    463e:	39 41       	pop	r9		
    4640:	3a 41       	pop	r10		
    4642:	3b 41       	pop	r11		
    4644:	30 41       	ret			

00004646 <CC2420TransmitP__SFD__get>:
    4646:	5e 42 1c 00 	mov.b	&0x001c,r14	
    464a:	6e f3       	and.b	#2,	r14	;r3 As==10
    464c:	5f 43       	mov.b	#1,	r15	;r3 As==01
    464e:	01 20       	jnz	$+4      	;abs 0x4652
    4650:	4f 4e       	mov.b	r14,	r15	
    4652:	30 41       	ret			

00004654 <GpioCaptureC__0__Msp430Capture__clearOverflow>:
    4654:	b2 f0 fd ff 84 01 	and	#-3,	&0x0184	;#0xfffd
    465a:	30 41       	ret			

0000465c <GpioCaptureC__0__Msp430TimerControl__clearPendingInterrupt>:
    465c:	b2 f0 fe ff 84 01 	and	#-2,	&0x0184	;#0xfffe
    4662:	30 41       	ret			

00004664 <Msp430AlarmC__1__Msp430TimerControl__disableEvents>:
    4664:	b2 f0 ef ff 86 01 	and	#-17,	&0x0186	;#0xffef
    466a:	30 41       	ret			

0000466c <TOSH_SET_SIMO0_PIN>:
    466c:	e2 d3 19 00 	bis.b	#2,	&0x0019	;r3 As==10
    4670:	30 41       	ret			

00004672 <TOSH_SET_UCLK0_PIN>:
    4672:	f2 d2 19 00 	bis.b	#8,	&0x0019	;r2 As==11
    4676:	30 41       	ret			

00004678 <TOSH_SET_FLASH_CS_PIN>:
    4678:	f2 d0 10 00 1d 00 	bis.b	#16,	&0x001d	;#0x0010
    467e:	30 41       	ret			

00004680 <TOSH_CLR_UCLK0_PIN>:
    4680:	f2 f0 f7 ff 19 00 	and.b	#-9,	&0x0019	;#0xfff7
    4686:	30 41       	ret			

00004688 <CC2420SpiP__SpiByte__write>:
    4688:	c2 4f 77 00 	mov.b	r15,	&0x0077	
    468c:	5f 42 02 00 	mov.b	&0x0002,r15	
    4690:	3f f0 40 00 	and	#64,	r15	;#0x0040
    4694:	fb 27       	jz	$-8      	;abs 0x468c
    4696:	f2 f0 bf ff 02 00 	and.b	#-65,	&0x0002	;#0xffbf
    469c:	5f 42 76 00 	mov.b	&0x0076,r15	
    46a0:	30 41       	ret			

000046a2 <Msp430InterruptC__0__HplInterrupt__clear>:
    46a2:	f2 f0 ef ff 23 00 	and.b	#-17,	&0x0023	;#0xffef
    46a8:	30 41       	ret			

000046aa <Msp430InterruptC__1__HplInterrupt__clear>:
    46aa:	f2 f0 fe ff 23 00 	and.b	#-2,	&0x0023	;#0xfffe
    46b0:	30 41       	ret			

000046b2 <GpioCaptureC__0__Msp430TimerControl__disableEvents>:
    46b2:	b2 f0 ef ff 84 01 	and	#-17,	&0x0184	;#0xffef
    46b8:	30 41       	ret			

000046ba <Msp430GpioC__1__GeneralIO__makeOutput>:
    46ba:	e2 d2 1e 00 	bis.b	#4,	&0x001e	;r2 As==10
    46be:	30 41       	ret			

000046c0 <OneWireMasterP__BusyWait__wait>:
    46c0:	1e 42 70 01 	mov	&0x0170,r14	
    46c4:	3f 90 01 80 	cmp	#-32767,r15	;#0x8001
    46c8:	0a 28       	jnc	$+22     	;abs 0x46de
    46ca:	3f 50 00 80 	add	#-32768,r15	;#0x8000
    46ce:	1d 42 70 01 	mov	&0x0170,r13	
    46d2:	0d 8e       	sub	r14,	r13	
    46d4:	0f 9d       	cmp	r13,	r15	
    46d6:	fb 2f       	jc	$-8      	;abs 0x46ce
    46d8:	0e 5f       	add	r15,	r14	
    46da:	3f 40 00 80 	mov	#-32768,r15	;#0x8000
    46de:	1d 42 70 01 	mov	&0x0170,r13	
    46e2:	0d 8e       	sub	r14,	r13	
    46e4:	0f 9d       	cmp	r13,	r15	
    46e6:	fb 2f       	jc	$-8      	;abs 0x46de
    46e8:	30 41       	ret			

000046ea <OneWireMasterP__Pin__makeInput>:
    46ea:	f2 f0 ef ff 2a 00 	and.b	#-17,	&0x002a	;#0xffef
    46f0:	30 41       	ret			

000046f2 <OneWireMasterP__Pin__makeOutput>:
    46f2:	f2 d0 10 00 2a 00 	bis.b	#16,	&0x002a	;#0x0010
    46f8:	30 41       	ret			

000046fa <SchedulerBasicP__popTask>:
    46fa:	5f 42 b6 1c 	mov.b	&0x1cb6,r15	
    46fe:	7f 93       	cmp.b	#-1,	r15	;r3 As==11
    4700:	0d 24       	jz	$+28     	;abs 0x471c
    4702:	4d 4f       	mov.b	r15,	r13	
    4704:	0e 4d       	mov	r13,	r14	
    4706:	3e 50 9c 1b 	add	#7068,	r14	;#0x1b9c
    470a:	6c 4e       	mov.b	@r14,	r12	
    470c:	c2 4c b6 1c 	mov.b	r12,	&0x1cb6	
    4710:	7c 93       	cmp.b	#-1,	r12	;r3 As==11
    4712:	02 20       	jnz	$+6      	;abs 0x4718
    4714:	c2 4c 27 1f 	mov.b	r12,	&0x1f27	
    4718:	fd 43 9c 1b 	mov.b	#-1,	7068(r13);r3 As==11, 0x1b9c(r13)
    471c:	30 41       	ret			

0000471e <Msp430TimerP__1__Timer__get>:
    471e:	1f 42 90 01 	mov	&0x0190,r15	
    4722:	01 3c       	jmp	$+4      	;abs 0x4726
    4724:	0f 4e       	mov	r14,	r15	
    4726:	1e 42 90 01 	mov	&0x0190,r14	
    472a:	0f 9e       	cmp	r14,	r15	
    472c:	fb 23       	jnz	$-8      	;abs 0x4724
    472e:	30 41       	ret			

00004730 <GpioCaptureC__0__enableCapture>:
    4730:	0b 12       	push	r11		
    4732:	4b 4f       	mov.b	r15,	r11	
    4734:	b0 12 b2 46 	call	#0x46b2	
    4738:	e2 d3 1f 00 	bis.b	#2,	&0x001f	;r3 As==10
    473c:	b0 12 5c 46 	call	#0x465c	
    4740:	b0 12 54 46 	call	#0x4654	
    4744:	4f 4b       	mov.b	r11,	r15	
    4746:	4f 5f       	rla.b	r15		
    4748:	4f 5f       	rla.b	r15		
    474a:	4f 5f       	rla.b	r15		
    474c:	4f 5f       	rla.b	r15		
    474e:	4f 5f       	rla.b	r15		
    4750:	4f 5f       	rla.b	r15		
    4752:	4f 11       	rra.b	r15		
    4754:	4f 11       	rra.b	r15		
    4756:	4f 11       	rra.b	r15		
    4758:	4f 11       	rra.b	r15		
    475a:	4f 11       	rra.b	r15		
    475c:	4f 11       	rra.b	r15		
    475e:	4f 4f       	mov.b	r15,	r15	
    4760:	8f 10       	swpb	r15		
    4762:	0f 5f       	rla	r15		
    4764:	0f 5f       	rla	r15		
    4766:	0f 5f       	rla	r15		
    4768:	0f 5f       	rla	r15		
    476a:	0f 5f       	rla	r15		
    476c:	0f 5f       	rla	r15		
    476e:	3e 40 84 01 	mov	#388,	r14	;#0x0184
    4772:	3f d0 00 01 	bis	#256,	r15	;#0x0100
    4776:	8e 4f 00 00 	mov	r15,	0(r14)	;0x0000(r14)
    477a:	be d0 10 00 00 00 	bis	#16,	0(r14)	;#0x0010, 0x0000(r14)
    4780:	4f 43       	clr.b	r15		
    4782:	3b 41       	pop	r11		
    4784:	30 41       	ret			

00004786 <CC2420TransmitP__CaptureSFD__captureRisingEdge>:
    4786:	5f 43       	mov.b	#1,	r15	;r3 As==01
    4788:	b0 12 30 47 	call	#0x4730	
    478c:	30 41       	ret			

0000478e <CC2420PacketP__PacketTimeStamp32khz__clear>:
    478e:	cf 43 2d 00 	mov.b	#0,	45(r15)	;r3 As==00, 0x002d(r15)
    4792:	0d 43       	clr	r13		
    4794:	3e 40 00 80 	mov	#-32768,r14	;#0x8000
    4798:	3f 50 2e 00 	add	#46,	r15	;#0x002e
    479c:	b0 12 d2 45 	call	#0x45d2	
    47a0:	30 41       	ret			

000047a2 <Msp430ClockP__set_dco_calib>:
    47a2:	0e 4f       	mov	r15,	r14	
    47a4:	8e 10       	swpb	r14		
    47a6:	8e 11       	sxt	r14		
    47a8:	7e f0 07 00 	and.b	#7,	r14	;#0x0007
    47ac:	5d 42 57 00 	mov.b	&0x0057,r13	
    47b0:	7d f0 f8 ff 	and.b	#-8,	r13	;#0xfff8
    47b4:	4e dd       	bis.b	r13,	r14	
    47b6:	c2 4e 57 00 	mov.b	r14,	&0x0057	
    47ba:	c2 4f 56 00 	mov.b	r15,	&0x0056	
    47be:	30 41       	ret			

000047c0 <MotePlatformC__TOSH_FLASH_M25P_DP_bit>:
    47c0:	4f 93       	tst.b	r15		
    47c2:	03 24       	jz	$+8      	;abs 0x47ca
    47c4:	b0 12 6c 46 	call	#0x466c	
    47c8:	03 3c       	jmp	$+8      	;abs 0x47d0
    47ca:	f2 f0 fd ff 19 00 	and.b	#-3,	&0x0019	;#0xfffd
    47d0:	b0 12 72 46 	call	#0x4672	
    47d4:	b0 12 80 46 	call	#0x4680	
    47d8:	30 41       	ret			

000047da <CC2420PacketP__getNetwork>:
    47da:	0b 12       	push	r11		
    47dc:	0b 4f       	mov	r15,	r11	
    47de:	1f 53       	inc	r15		
    47e0:	b0 12 c6 45 	call	#0x45c6	
    47e4:	0e 4f       	mov	r15,	r14	
    47e6:	8e 10       	swpb	r14		
    47e8:	3e f0 ff 00 	and	#255,	r14	;#0x00ff
    47ec:	12 c3       	clrc			
    47ee:	0e 10       	rrc	r14		
    47f0:	0e 11       	rra	r14		
    47f2:	0d 4e       	mov	r14,	r13	
    47f4:	3d f0 03 00 	and	#3,	r13	;#0x0003
    47f8:	0d 5d       	rla	r13		
    47fa:	1f 4d 3e 72 	mov	29246(r13),r15	;0x723e(r13)
    47fe:	0e 11       	rra	r14		
    4800:	0e 11       	rra	r14		
    4802:	0e 11       	rra	r14		
    4804:	0e 11       	rra	r14		
    4806:	0e 5e       	rla	r14		
    4808:	1e 4e 3e 72 	mov	29246(r14),r14	;0x723e(r14)
    480c:	0e 5f       	add	r15,	r14	
    480e:	3e 50 06 00 	add	#6,	r14	;#0x0006
    4812:	0f 4b       	mov	r11,	r15	
    4814:	0f 5e       	add	r14,	r15	
    4816:	3b 41       	pop	r11		
    4818:	30 41       	ret			

0000481a <SenderC__DQIInit>:
    481a:	c2 43 b4 1c 	mov.b	#0,	&0x1cb4	;r3 As==00
    481e:	82 43 5e 1f 	mov	#0,	&0x1f5e	;r3 As==00
    4822:	82 43 98 1b 	mov	#0,	&0x1b98	;r3 As==00
    4826:	82 43 ee 1b 	mov	#0,	&0x1bee	;r3 As==00
    482a:	b2 40 0f 27 3c 1c 	mov	#9999,	&0x1c3c	;#0x270f
    4830:	c2 43 45 1c 	mov.b	#0,	&0x1c45	;r3 As==00
    4834:	82 43 60 1a 	mov	#0,	&0x1a60	;r3 As==00
    4838:	3f 40 54 1a 	mov	#6740,	r15	;#0x1a54
    483c:	8f 43 00 00 	mov	#0,	0(r15)	;r3 As==00, 0x0000(r15)
    4840:	8f 43 02 00 	mov	#0,	2(r15)	;r3 As==00, 0x0002(r15)
    4844:	8f 43 04 00 	mov	#0,	4(r15)	;r3 As==00, 0x0004(r15)
    4848:	8f 43 06 00 	mov	#0,	6(r15)	;r3 As==00, 0x0006(r15)
    484c:	8f 43 08 00 	mov	#0,	8(r15)	;r3 As==00, 0x0008(r15)
    4850:	30 41       	ret			

00004852 <pq_push>:
    4852:	0b 12       	push	r11		
    4854:	0a 12       	push	r10		
    4856:	09 12       	push	r9		
    4858:	08 12       	push	r8		
    485a:	07 12       	push	r7		
    485c:	06 12       	push	r6		
    485e:	05 12       	push	r5		
    4860:	04 12       	push	r4		
    4862:	31 50 f4 ff 	add	#-12,	r1	;#0xfff4
    4866:	08 4f       	mov	r15,	r8	
    4868:	81 4c 06 00 	mov	r12,	6(r1)	;0x0006(r1)
    486c:	81 4d 08 00 	mov	r13,	8(r1)	;0x0008(r1)
    4870:	81 4e 0a 00 	mov	r14,	10(r1)	;0x000a(r1)
    4874:	19 4f 32 01 	mov	306(r15),r9	;0x0132(r15)
    4878:	39 90 32 00 	cmp	#50,	r9	;#0x0032
    487c:	40 24       	jz	$+130    	;abs 0x48fe
    487e:	19 53       	inc	r9		
    4880:	8f 49 32 01 	mov	r9,	306(r15);0x0132(r15)
    4884:	0c 49       	mov	r9,	r12	
    4886:	0c 5c       	rla	r12		
    4888:	0c 59       	add	r9,	r12	
    488a:	0c 5c       	rla	r12		
    488c:	3d 40 06 00 	mov	#6,	r13	;#0x0006
    4890:	0e 41       	mov	r1,	r14	
    4892:	0e 5d       	add	r13,	r14	
    4894:	0f 5c       	add	r12,	r15	
    4896:	b0 12 7a 72 	call	#0x727a	
    489a:	15 43       	mov	#1,	r5	;r3 As==01
    489c:	1d 3c       	jmp	$+60     	;abs 0x48d8
    489e:	3d 40 06 00 	mov	#6,	r13	;#0x0006
    48a2:	0e 4a       	mov	r10,	r14	
    48a4:	0f 41       	mov	r1,	r15	
    48a6:	b0 12 7a 72 	call	#0x727a	
    48aa:	14 4a 02 00 	mov	2(r10),	r4	;0x0002(r10)
    48ae:	19 4a 04 00 	mov	4(r10),	r9	;0x0004(r10)
    48b2:	3d 40 06 00 	mov	#6,	r13	;#0x0006
    48b6:	0e 4b       	mov	r11,	r14	
    48b8:	0f 4a       	mov	r10,	r15	
    48ba:	b0 12 7a 72 	call	#0x727a	
    48be:	3d 40 06 00 	mov	#6,	r13	;#0x0006
    48c2:	0e 41       	mov	r1,	r14	
    48c4:	0f 4b       	mov	r11,	r15	
    48c6:	b0 12 7a 72 	call	#0x727a	
    48ca:	cb 46 00 00 	mov.b	r6,	0(r11)	;0x0000(r11)
    48ce:	8b 44 02 00 	mov	r4,	2(r11)	;0x0002(r11)
    48d2:	8b 49 04 00 	mov	r9,	4(r11)	;0x0004(r11)
    48d6:	09 47       	mov	r7,	r9	
    48d8:	05 99       	cmp	r9,	r5	
    48da:	11 2c       	jc	$+36     	;abs 0x48fe
    48dc:	07 49       	mov	r9,	r7	
    48de:	12 c3       	clrc			
    48e0:	07 10       	rrc	r7		
    48e2:	0a 47       	mov	r7,	r10	
    48e4:	0a 5a       	rla	r10		
    48e6:	0a 57       	add	r7,	r10	
    48e8:	0a 5a       	rla	r10		
    48ea:	0a 58       	add	r8,	r10	
    48ec:	66 4a       	mov.b	@r10,	r6	
    48ee:	0b 49       	mov	r9,	r11	
    48f0:	0b 5b       	rla	r11		
    48f2:	0b 59       	add	r9,	r11	
    48f4:	0b 5b       	rla	r11		
    48f6:	0b 58       	add	r8,	r11	
    48f8:	cb 96 00 00 	cmp.b	r6,	0(r11)	;0x0000(r11)
    48fc:	d0 2b       	jnc	$-94     	;abs 0x489e
    48fe:	31 50 0c 00 	add	#12,	r1	;#0x000c
    4902:	34 41       	pop	r4		
    4904:	35 41       	pop	r5		
    4906:	36 41       	pop	r6		
    4908:	37 41       	pop	r7		
    490a:	38 41       	pop	r8		
    490c:	39 41       	pop	r9		
    490e:	3a 41       	pop	r10		
    4910:	3b 41       	pop	r11		
    4912:	30 41       	ret			

00004914 <pq_pop>:
    4914:	0b 12       	push	r11		
    4916:	0a 12       	push	r10		
    4918:	09 12       	push	r9		
    491a:	08 12       	push	r8		
    491c:	07 12       	push	r7		
    491e:	06 12       	push	r6		
    4920:	05 12       	push	r5		
    4922:	04 12       	push	r4		
    4924:	31 50 e8 ff 	add	#-24,	r1	;#0xffe8
    4928:	04 4f       	mov	r15,	r4	
    492a:	1a 4f 32 01 	mov	306(r15),r10	;0x0132(r15)
    492e:	0a 93       	tst	r10		
    4930:	0e 20       	jnz	$+30     	;abs 0x494e
    4932:	3d 40 06 00 	mov	#6,	r13	;#0x0006
    4936:	0e 41       	mov	r1,	r14	
    4938:	0f 41       	mov	r1,	r15	
    493a:	0f 5d       	add	r13,	r15	
    493c:	b0 12 7a 72 	call	#0x727a	
    4940:	c1 43 06 00 	mov.b	#0,	6(r1)	;r3 As==00, 0x0006(r1)
    4944:	81 4a 08 00 	mov	r10,	8(r1)	;0x0008(r1)
    4948:	81 4a 0a 00 	mov	r10,	10(r1)	;0x000a(r1)
    494c:	90 3c       	jmp	$+290    	;abs 0x4a6e
    494e:	09 4f       	mov	r15,	r9	
    4950:	39 50 06 00 	add	#6,	r9	;#0x0006
    4954:	3d 40 06 00 	mov	#6,	r13	;#0x0006
    4958:	0e 49       	mov	r9,	r14	
    495a:	0f 41       	mov	r1,	r15	
    495c:	b0 12 7a 72 	call	#0x727a	
    4960:	d1 44 06 00 16 00 	mov.b	6(r4),	22(r1)	;0x0006(r4), 0x0016(r1)
    4966:	91 44 08 00 14 00 	mov	8(r4),	20(r1)	;0x0008(r4), 0x0014(r1)
    496c:	91 44 0a 00 12 00 	mov	10(r4),	18(r1)	;0x000a(r4), 0x0012(r1)
    4972:	08 41       	mov	r1,	r8	
    4974:	38 50 0c 00 	add	#12,	r8	;#0x000c
    4978:	3d 40 06 00 	mov	#6,	r13	;#0x0006
    497c:	0e 49       	mov	r9,	r14	
    497e:	0f 48       	mov	r8,	r15	
    4980:	b0 12 7a 72 	call	#0x727a	
    4984:	0b 4a       	mov	r10,	r11	
    4986:	0b 5b       	rla	r11		
    4988:	0b 5a       	add	r10,	r11	
    498a:	0b 5b       	rla	r11		
    498c:	0b 54       	add	r4,	r11	
    498e:	3d 40 06 00 	mov	#6,	r13	;#0x0006
    4992:	0e 4b       	mov	r11,	r14	
    4994:	0f 49       	mov	r9,	r15	
    4996:	b0 12 7a 72 	call	#0x727a	
    499a:	3d 40 06 00 	mov	#6,	r13	;#0x0006
    499e:	0e 48       	mov	r8,	r14	
    49a0:	0f 4b       	mov	r11,	r15	
    49a2:	b0 12 7a 72 	call	#0x727a	
    49a6:	db 41 16 00 00 00 	mov.b	22(r1),	0(r11)	;0x0016(r1), 0x0000(r11)
    49ac:	9b 41 14 00 02 00 	mov	20(r1),	2(r11)	;0x0014(r1), 0x0002(r11)
    49b2:	9b 41 12 00 04 00 	mov	18(r1),	4(r11)	;0x0012(r1), 0x0004(r11)
    49b8:	05 4a       	mov	r10,	r5	
    49ba:	35 53       	add	#-1,	r5	;r3 As==11
    49bc:	84 45 32 01 	mov	r5,	306(r4)	;0x0132(r4)
    49c0:	1b 43       	mov	#1,	r11	;r3 As==01
    49c2:	41 3c       	jmp	$+132    	;abs 0x4a46
    49c4:	09 95       	cmp	r5,	r9	
    49c6:	10 2c       	jc	$+34     	;abs 0x49e8
    49c8:	0d 49       	mov	r9,	r13	
    49ca:	1d 53       	inc	r13		
    49cc:	0f 49       	mov	r9,	r15	
    49ce:	0f 5f       	rla	r15		
    49d0:	0f 59       	add	r9,	r15	
    49d2:	0f 5f       	rla	r15		
    49d4:	0f 54       	add	r4,	r15	
    49d6:	0e 4d       	mov	r13,	r14	
    49d8:	0e 5e       	rla	r14		
    49da:	0e 5d       	add	r13,	r14	
    49dc:	0e 5e       	rla	r14		
    49de:	0e 54       	add	r4,	r14	
    49e0:	ee 9f 00 00 	cmp.b	@r15,	0(r14)	;0x0000(r14)
    49e4:	01 2c       	jc	$+4      	;abs 0x49e8
    49e6:	09 4d       	mov	r13,	r9	
    49e8:	0a 4b       	mov	r11,	r10	
    49ea:	0a 5a       	rla	r10		
    49ec:	0a 5b       	add	r11,	r10	
    49ee:	0a 5a       	rla	r10		
    49f0:	0a 54       	add	r4,	r10	
    49f2:	68 4a       	mov.b	@r10,	r8	
    49f4:	0b 49       	mov	r9,	r11	
    49f6:	0b 5b       	rla	r11		
    49f8:	0b 59       	add	r9,	r11	
    49fa:	0b 5b       	rla	r11		
    49fc:	0b 54       	add	r4,	r11	
    49fe:	cb 98 00 00 	cmp.b	r8,	0(r11)	;0x0000(r11)
    4a02:	25 2c       	jc	$+76     	;abs 0x4a4e
    4a04:	3d 40 06 00 	mov	#6,	r13	;#0x0006
    4a08:	0e 4a       	mov	r10,	r14	
    4a0a:	0f 41       	mov	r1,	r15	
    4a0c:	3f 50 0c 00 	add	#12,	r15	;#0x000c
    4a10:	b0 12 7a 72 	call	#0x727a	
    4a14:	16 4a 02 00 	mov	2(r10),	r6	;0x0002(r10)
    4a18:	17 4a 04 00 	mov	4(r10),	r7	;0x0004(r10)
    4a1c:	3d 40 06 00 	mov	#6,	r13	;#0x0006
    4a20:	0e 4b       	mov	r11,	r14	
    4a22:	0f 4a       	mov	r10,	r15	
    4a24:	b0 12 7a 72 	call	#0x727a	
    4a28:	3d 40 06 00 	mov	#6,	r13	;#0x0006
    4a2c:	0e 41       	mov	r1,	r14	
    4a2e:	3e 50 0c 00 	add	#12,	r14	;#0x000c
    4a32:	0f 4b       	mov	r11,	r15	
    4a34:	b0 12 7a 72 	call	#0x727a	
    4a38:	cb 48 00 00 	mov.b	r8,	0(r11)	;0x0000(r11)
    4a3c:	8b 46 02 00 	mov	r6,	2(r11)	;0x0002(r11)
    4a40:	8b 47 04 00 	mov	r7,	4(r11)	;0x0004(r11)
    4a44:	0b 49       	mov	r9,	r11	
    4a46:	09 4b       	mov	r11,	r9	
    4a48:	09 59       	rla	r9		
    4a4a:	05 99       	cmp	r9,	r5	
    4a4c:	bb 2f       	jc	$-136    	;abs 0x49c4
    4a4e:	3d 40 06 00 	mov	#6,	r13	;#0x0006
    4a52:	0e 41       	mov	r1,	r14	
    4a54:	0f 41       	mov	r1,	r15	
    4a56:	0f 5d       	add	r13,	r15	
    4a58:	b0 12 7a 72 	call	#0x727a	
    4a5c:	d1 41 16 00 06 00 	mov.b	22(r1),	6(r1)	;0x0016(r1), 0x0006(r1)
    4a62:	91 41 14 00 08 00 	mov	20(r1),	8(r1)	;0x0014(r1), 0x0008(r1)
    4a68:	91 41 12 00 0a 00 	mov	18(r1),	10(r1)	;0x0012(r1), 0x000a(r1)
    4a6e:	1c 41 06 00 	mov	6(r1),	r12	;0x0006(r1)
    4a72:	1d 41 08 00 	mov	8(r1),	r13	;0x0008(r1)
    4a76:	1e 41 0a 00 	mov	10(r1),	r14	;0x000a(r1)
    4a7a:	0f 43       	clr	r15		
    4a7c:	31 50 18 00 	add	#24,	r1	;#0x0018
    4a80:	34 41       	pop	r4		
    4a82:	35 41       	pop	r5		
    4a84:	36 41       	pop	r6		
    4a86:	37 41       	pop	r7		
    4a88:	38 41       	pop	r8		
    4a8a:	39 41       	pop	r9		
    4a8c:	3a 41       	pop	r10		
    4a8e:	3b 41       	pop	r11		
    4a90:	30 41       	ret			

00004a92 <CC2420ReceiveP__reset_state>:
    4a92:	f2 40 80 ff 5e 1a 	mov.b	#-128,	&0x1a5e	;#0xff80
    4a98:	c2 43 ec 1b 	mov.b	#0,	&0x1bec	;r3 As==00
    4a9c:	c2 43 14 1f 	mov.b	#0,	&0x1f14	;r3 As==00
    4aa0:	c2 43 b5 1c 	mov.b	#0,	&0x1cb5	;r3 As==00
    4aa4:	c2 43 e5 1b 	mov.b	#0,	&0x1be5	;r3 As==00
    4aa8:	30 41       	ret			

00004aaa <CC2420ControlP__LocalIeeeEui64__getId>:
    4aaa:	0b 12       	push	r11		
    4aac:	0a 12       	push	r10		
    4aae:	09 12       	push	r9		
    4ab0:	08 12       	push	r8		
    4ab2:	07 12       	push	r7		
    4ab4:	c2 93 fa 18 	tst.b	&0x18fa	
    4ab8:	b3 20       	jnz	$+360    	;abs 0x4c20
    4aba:	c2 93 fc 18 	tst.b	&0x18fc	
    4abe:	83 20       	jnz	$+264    	;abs 0x4bc6
    4ac0:	b0 12 ea 46 	call	#0x46ea	
    4ac4:	f2 f0 ef ff 29 00 	and.b	#-17,	&0x0029	;#0xffef
    4aca:	b0 12 f2 46 	call	#0x46f2	
    4ace:	3f 40 30 02 	mov	#560,	r15	;#0x0230
    4ad2:	b0 12 c0 46 	call	#0x46c0	
    4ad6:	b0 12 ea 46 	call	#0x46ea	
    4ada:	3f 40 3c 00 	mov	#60,	r15	;#0x003c
    4ade:	b0 12 c0 46 	call	#0x46c0	
    4ae2:	0b 43       	clr	r11		
    4ae4:	f2 b0 10 00 28 00 	bit.b	#16,	&0x0028	;#0x0010
    4aea:	09 24       	jz	$+20     	;abs 0x4afe
    4aec:	3b 50 05 00 	add	#5,	r11	;#0x0005
    4af0:	3f 40 05 00 	mov	#5,	r15	;#0x0005
    4af4:	b0 12 c0 46 	call	#0x46c0	
    4af8:	3b 90 f0 00 	cmp	#240,	r11	;#0x00f0
    4afc:	f3 23       	jnz	$-24     	;abs 0x4ae4
    4afe:	3f 40 a4 01 	mov	#420,	r15	;#0x01a4
    4b02:	b0 12 c0 46 	call	#0x46c0	
    4b06:	3b 90 f0 00 	cmp	#240,	r11	;#0x00f0
    4b0a:	60 2c       	jc	$+194    	;abs 0x4bcc
    4b0c:	7a 42       	mov.b	#8,	r10	;r2 As==11
    4b0e:	7b 40 33 00 	mov.b	#51,	r11	;#0x0033
    4b12:	1b b3       	bit	#1,	r11	;r3 As==01
    4b14:	0b 24       	jz	$+24     	;abs 0x4b2c
    4b16:	b0 12 f2 46 	call	#0x46f2	
    4b1a:	3f 40 05 00 	mov	#5,	r15	;#0x0005
    4b1e:	b0 12 c0 46 	call	#0x46c0	
    4b22:	b0 12 ea 46 	call	#0x46ea	
    4b26:	3f 40 41 00 	mov	#65,	r15	;#0x0041
    4b2a:	0a 3c       	jmp	$+22     	;abs 0x4b40
    4b2c:	b0 12 f2 46 	call	#0x46f2	
    4b30:	3f 40 3c 00 	mov	#60,	r15	;#0x003c
    4b34:	b0 12 c0 46 	call	#0x46c0	
    4b38:	b0 12 ea 46 	call	#0x46ea	
    4b3c:	3f 40 05 00 	mov	#5,	r15	;#0x0005
    4b40:	b0 12 c0 46 	call	#0x46c0	
    4b44:	7a 53       	add.b	#-1,	r10	;r3 As==11
    4b46:	03 24       	jz	$+8      	;abs 0x4b4e
    4b48:	12 c3       	clrc			
    4b4a:	4b 10       	rrc.b	r11		
    4b4c:	e2 3f       	jmp	$-58     	;abs 0x4b12
    4b4e:	3b 40 46 1c 	mov	#7238,	r11	;#0x1c46
    4b52:	0a 4b       	mov	r11,	r10	
    4b54:	78 42       	mov.b	#8,	r8	;r2 As==11
    4b56:	49 43       	clr.b	r9		
    4b58:	12 c3       	clrc			
    4b5a:	49 10       	rrc.b	r9		
    4b5c:	b0 12 f2 46 	call	#0x46f2	
    4b60:	3f 40 05 00 	mov	#5,	r15	;#0x0005
    4b64:	b0 12 c0 46 	call	#0x46c0	
    4b68:	b0 12 ea 46 	call	#0x46ea	
    4b6c:	3f 40 05 00 	mov	#5,	r15	;#0x0005
    4b70:	b0 12 c0 46 	call	#0x46c0	
    4b74:	57 42 28 00 	mov.b	&0x0028,r7	
    4b78:	3f 40 41 00 	mov	#65,	r15	;#0x0041
    4b7c:	b0 12 c0 46 	call	#0x46c0	
    4b80:	77 b0 10 00 	bit.b	#16,	r7	;#0x0010
    4b84:	02 24       	jz	$+6      	;abs 0x4b8a
    4b86:	79 d0 80 ff 	bis.b	#-128,	r9	;#0xff80
    4b8a:	78 53       	add.b	#-1,	r8	;r3 As==11
    4b8c:	e5 23       	jnz	$-52     	;abs 0x4b58
    4b8e:	ca 49 00 00 	mov.b	r9,	0(r10)	;0x0000(r10)
    4b92:	1a 53       	inc	r10		
    4b94:	3a 90 4e 1c 	cmp	#7246,	r10	;#0x1c4e
    4b98:	dd 23       	jnz	$-68     	;abs 0x4b54
    4b9a:	4f 48       	mov.b	r8,	r15	
    4b9c:	6f eb       	xor.b	@r11,	r15	
    4b9e:	7e 42       	mov.b	#8,	r14	;r2 As==11
    4ba0:	0d 4f       	mov	r15,	r13	
    4ba2:	1d f3       	and	#1,	r13	;r3 As==01
    4ba4:	12 c3       	clrc			
    4ba6:	4f 10       	rrc.b	r15		
    4ba8:	0d 93       	tst	r13		
    4baa:	02 24       	jz	$+6      	;abs 0x4bb0
    4bac:	7f e0 8c ff 	xor.b	#-116,	r15	;#0xff8c
    4bb0:	7e 53       	add.b	#-1,	r14	;r3 As==11
    4bb2:	f6 23       	jnz	$-18     	;abs 0x4ba0
    4bb4:	1b 53       	inc	r11		
    4bb6:	3b 90 4e 1c 	cmp	#7246,	r11	;#0x1c4e
    4bba:	f0 23       	jnz	$-30     	;abs 0x4b9c
    4bbc:	4f 93       	tst.b	r15		
    4bbe:	08 20       	jnz	$+18     	;abs 0x4bd0
    4bc0:	d2 43 fc 18 	mov.b	#1,	&0x18fc	;r3 As==01
    4bc4:	07 3c       	jmp	$+16     	;abs 0x4bd4
    4bc6:	5f 42 fa 18 	mov.b	&0x18fa,r15	
    4bca:	04 3c       	jmp	$+10     	;abs 0x4bd4
    4bcc:	6f 42       	mov.b	#4,	r15	;r2 As==10
    4bce:	02 3c       	jmp	$+6      	;abs 0x4bd4
    4bd0:	7f 40 06 00 	mov.b	#6,	r15	;#0x0006
    4bd4:	c2 93 fc 18 	tst.b	&0x18fc	
    4bd8:	07 24       	jz	$+16     	;abs 0x4be8
    4bda:	5d 42 47 1c 	mov.b	&0x1c47,r13	
    4bde:	5c 42 48 1c 	mov.b	&0x1c48,r12	
    4be2:	5e 42 49 1c 	mov.b	&0x1c49,r14	
    4be6:	04 3c       	jmp	$+10     	;abs 0x4bf0
    4be8:	5e 42 fc 18 	mov.b	&0x18fc,r14	
    4bec:	4c 4e       	mov.b	r14,	r12	
    4bee:	4d 4e       	mov.b	r14,	r13	
    4bf0:	4f 93       	tst.b	r15		
    4bf2:	16 20       	jnz	$+46     	;abs 0x4c20
    4bf4:	c2 4f f2 18 	mov.b	r15,	&0x18f2	
    4bf8:	f2 40 12 00 f3 18 	mov.b	#18,	&0x18f3	;#0x0012
    4bfe:	f2 40 6d 00 f4 18 	mov.b	#109,	&0x18f4	;#0x006d
    4c04:	f2 40 45 00 f5 18 	mov.b	#69,	&0x18f5	;#0x0045
    4c0a:	f2 40 50 00 f6 18 	mov.b	#80,	&0x18f6	;#0x0050
    4c10:	c2 4e f7 18 	mov.b	r14,	&0x18f7	
    4c14:	c2 4c f8 18 	mov.b	r12,	&0x18f8	
    4c18:	c2 4d f9 18 	mov.b	r13,	&0x18f9	
    4c1c:	d2 43 fa 18 	mov.b	#1,	&0x18fa	;r3 As==01
    4c20:	1c 42 f2 18 	mov	&0x18f2,r12	
    4c24:	1d 42 f4 18 	mov	&0x18f4,r13	
    4c28:	1e 42 f6 18 	mov	&0x18f6,r14	
    4c2c:	1f 42 f8 18 	mov	&0x18f8,r15	
    4c30:	37 41       	pop	r7		
    4c32:	38 41       	pop	r8		
    4c34:	39 41       	pop	r9		
    4c36:	3a 41       	pop	r10		
    4c38:	3b 41       	pop	r11		
    4c3a:	30 41       	ret			

00004c3c <ArbiterP__0__ResourceConfigure__unconfigure.clone.121>:
    4c3c:	5f 43       	mov.b	#1,	r15	;r3 As==01
    4c3e:	b0 12 b4 45 	call	#0x45b4	
    4c42:	f2 f0 bf ff 04 00 	and.b	#-65,	&0x0004	;#0xffbf
    4c48:	3f 40 1b 00 	mov	#27,	r15	;#0x001b
    4c4c:	ff f0 fd ff 00 00 	and.b	#-3,	0(r15)	;#0xfffd, 0x0000(r15)
    4c52:	ff f0 fb ff 00 00 	and.b	#-5,	0(r15)	;#0xfffb, 0x0000(r15)
    4c58:	ff f0 f7 ff 00 00 	and.b	#-9,	0(r15)	;#0xfff7, 0x0000(r15)
    4c5e:	4f 43       	clr.b	r15		
    4c60:	b0 12 b4 45 	call	#0x45b4	
    4c64:	30 41       	ret			

00004c66 <__nesc_atomic_start>:
    4c66:	0e 42       	mov	r2,	r14	
    4c68:	32 c2       	dint			
    4c6a:	03 43       	nop			
    4c6c:	03 43       	nop			
    4c6e:	3e f2       	and	#8,	r14	;r2 As==11
    4c70:	5f 43       	mov.b	#1,	r15	;r3 As==01
    4c72:	0e 93       	tst	r14		
    4c74:	01 20       	jnz	$+4      	;abs 0x4c78
    4c76:	4f 4e       	mov.b	r14,	r15	
    4c78:	30 41       	ret			

00004c7a <__nesc_atomic_end>:
    4c7a:	4f 93       	tst.b	r15		
    4c7c:	01 24       	jz	$+4      	;abs 0x4c80
    4c7e:	32 d2       	eint			
    4c80:	30 41       	ret			

00004c82 <Msp430SpiNoDmaP__0__continueOp>:
    4c82:	0b 12       	push	r11		
    4c84:	b0 12 66 4c 	call	#0x4c66	
    4c88:	1e 42 02 1c 	mov	&0x1c02,r14	
    4c8c:	0e 93       	tst	r14		
    4c8e:	03 24       	jz	$+8      	;abs 0x4c96
    4c90:	1e 52 12 1f 	add	&0x1f12,r14	
    4c94:	6e 4e       	mov.b	@r14,	r14	
    4c96:	c2 4e 77 00 	mov.b	r14,	&0x0077	
    4c9a:	5e 42 12 1f 	mov.b	&0x1f12,r14	
    4c9e:	6e 53       	incd.b	r14		
    4ca0:	1d 42 16 1f 	mov	&0x1f16,r13	
    4ca4:	4c 4e       	mov.b	r14,	r12	
    4ca6:	0d 9c       	cmp	r12,	r13	
    4ca8:	1a 2c       	jc	$+54     	;abs 0x4cde
    4caa:	4e 4d       	mov.b	r13,	r14	
    4cac:	18 3c       	jmp	$+50     	;abs 0x4cde
    4cae:	5e 42 02 00 	mov.b	&0x0002,r14	
    4cb2:	3e f0 40 00 	and	#64,	r14	;#0x0040
    4cb6:	fb 27       	jz	$-8      	;abs 0x4cae
    4cb8:	5b 42 76 00 	mov.b	&0x0076,r11	
    4cbc:	1e 42 3a 1c 	mov	&0x1c3a,r14	
    4cc0:	0e 93       	tst	r14		
    4cc2:	03 24       	jz	$+8      	;abs 0x4cca
    4cc4:	0d 5e       	add	r14,	r13	
    4cc6:	cd 4b 00 00 	mov.b	r11,	0(r13)	;0x0000(r13)
    4cca:	1d 42 02 1c 	mov	&0x1c02,r13	
    4cce:	0d 93       	tst	r13		
    4cd0:	03 24       	jz	$+8      	;abs 0x4cd8
    4cd2:	1d 52 12 1f 	add	&0x1f12,r13	
    4cd6:	6d 4d       	mov.b	@r13,	r13	
    4cd8:	c2 4d 77 00 	mov.b	r13,	&0x0077	
    4cdc:	01 3c       	jmp	$+4      	;abs 0x4ce0
    4cde:	4c 4e       	mov.b	r14,	r12	
    4ce0:	1d 42 12 1f 	mov	&0x1f12,r13	
    4ce4:	0e 4d       	mov	r13,	r14	
    4ce6:	1e 53       	inc	r14		
    4ce8:	82 4e 12 1f 	mov	r14,	&0x1f12	
    4cec:	0e 9c       	cmp	r12,	r14	
    4cee:	df 2b       	jnc	$-64     	;abs 0x4cae
    4cf0:	b0 12 7a 4c 	call	#0x4c7a	
    4cf4:	3b 41       	pop	r11		
    4cf6:	30 41       	ret			

00004cf8 <CC2420SpiP__WorkingState__isIdle>:
    4cf8:	0b 12       	push	r11		
    4cfa:	b0 12 66 4c 	call	#0x4c66	
    4cfe:	5b 43       	mov.b	#1,	r11	;r3 As==01
    4d00:	c2 93 40 1c 	tst.b	&0x1c40	
    4d04:	01 24       	jz	$+4      	;abs 0x4d08
    4d06:	4b 43       	clr.b	r11		
    4d08:	b0 12 7a 4c 	call	#0x4c7a	
    4d0c:	4f 4b       	mov.b	r11,	r15	
    4d0e:	3b 41       	pop	r11		
    4d10:	30 41       	ret			

00004d12 <CC2420SpiP__Strobe__strobe>:
    4d12:	0b 12       	push	r11		
    4d14:	0a 12       	push	r10		
    4d16:	4a 4f       	mov.b	r15,	r10	
    4d18:	b0 12 66 4c 	call	#0x4c66	
    4d1c:	4b 4f       	mov.b	r15,	r11	
    4d1e:	b0 12 f8 4c 	call	#0x4cf8	
    4d22:	4f 93       	tst.b	r15		
    4d24:	05 24       	jz	$+12     	;abs 0x4d30
    4d26:	4f 4b       	mov.b	r11,	r15	
    4d28:	b0 12 7a 4c 	call	#0x4c7a	
    4d2c:	4f 43       	clr.b	r15		
    4d2e:	06 3c       	jmp	$+14     	;abs 0x4d3c
    4d30:	4f 4b       	mov.b	r11,	r15	
    4d32:	b0 12 7a 4c 	call	#0x4c7a	
    4d36:	4f 4a       	mov.b	r10,	r15	
    4d38:	b0 12 88 46 	call	#0x4688	
    4d3c:	3a 41       	pop	r10		
    4d3e:	3b 41       	pop	r11		
    4d40:	30 41       	ret			

00004d42 <CC2420TransmitP__SFLUSHTX__strobe>:
    4d42:	7f 40 09 00 	mov.b	#9,	r15	;#0x0009
    4d46:	b0 12 12 4d 	call	#0x4d12	
    4d4a:	30 41       	ret			

00004d4c <CC2420CsmaP__SplitControlState__isState>:
    4d4c:	0b 12       	push	r11		
    4d4e:	0a 12       	push	r10		
    4d50:	4a 4f       	mov.b	r15,	r10	
    4d52:	b0 12 66 4c 	call	#0x4c66	
    4d56:	5b 43       	mov.b	#1,	r11	;r3 As==01
    4d58:	c2 9a 41 1c 	cmp.b	r10,	&0x1c41	
    4d5c:	01 24       	jz	$+4      	;abs 0x4d60
    4d5e:	4b 43       	clr.b	r11		
    4d60:	b0 12 7a 4c 	call	#0x4c7a	
    4d64:	4f 4b       	mov.b	r11,	r15	
    4d66:	3a 41       	pop	r10		
    4d68:	3b 41       	pop	r11		
    4d6a:	30 41       	ret			

00004d6c <CC2420ReceiveP__CC2420Config__getShortAddr>:
    4d6c:	0b 12       	push	r11		
    4d6e:	b0 12 66 4c 	call	#0x4c66	
    4d72:	1b 42 0e 1c 	mov	&0x1c0e,r11	
    4d76:	b0 12 7a 4c 	call	#0x4c7a	
    4d7a:	0f 4b       	mov	r11,	r15	
    4d7c:	3b 41       	pop	r11		
    4d7e:	30 41       	ret			

00004d80 <Msp430GpioC__1__GeneralIO__clr>:
    4d80:	b0 12 66 4c 	call	#0x4c66	
    4d84:	f2 f0 fb ff 1d 00 	and.b	#-5,	&0x001d	;#0xfffb
    4d8a:	b0 12 7a 4c 	call	#0x4c7a	
    4d8e:	30 41       	ret			

00004d90 <SchedulerBasicP__TaskBasic__postTask>:
    4d90:	0b 12       	push	r11		
    4d92:	4b 4f       	mov.b	r15,	r11	
    4d94:	b0 12 66 4c 	call	#0x4c66	
    4d98:	4e 4b       	mov.b	r11,	r14	
    4d9a:	fe 93 9c 1b 	cmp.b	#-1,	7068(r14);r3 As==11, 0x1b9c(r14)
    4d9e:	11 20       	jnz	$+36     	;abs 0x4dc2
    4da0:	c2 9b 27 1f 	cmp.b	r11,	&0x1f27	
    4da4:	0e 24       	jz	$+30     	;abs 0x4dc2
    4da6:	f2 93 b6 1c 	cmp.b	#-1,	&0x1cb6	;r3 As==11
    4daa:	03 20       	jnz	$+8      	;abs 0x4db2
    4dac:	c2 4b b6 1c 	mov.b	r11,	&0x1cb6	
    4db0:	04 3c       	jmp	$+10     	;abs 0x4dba
    4db2:	5e 42 27 1f 	mov.b	&0x1f27,r14	
    4db6:	ce 4b 9c 1b 	mov.b	r11,	7068(r14);0x1b9c(r14)
    4dba:	c2 4b 27 1f 	mov.b	r11,	&0x1f27	
    4dbe:	4b 43       	clr.b	r11		
    4dc0:	02 3c       	jmp	$+6      	;abs 0x4dc6
    4dc2:	7b 40 05 00 	mov.b	#5,	r11	;#0x0005
    4dc6:	b0 12 7a 4c 	call	#0x4c7a	
    4dca:	4f 4b       	mov.b	r11,	r15	
    4dcc:	3b 41       	pop	r11		
    4dce:	30 41       	ret			

00004dd0 <CC2420SpiP__attemptRelease>:
    4dd0:	c2 93 ee 18 	tst.b	&0x18ee	
    4dd4:	39 20       	jnz	$+116    	;abs 0x4e48
    4dd6:	f2 93 d7 18 	cmp.b	#-1,	&0x18d7	;r3 As==11
    4dda:	36 20       	jnz	$+110    	;abs 0x4e48
    4ddc:	b0 12 f8 4c 	call	#0x4cf8	
    4de0:	4f 93       	tst.b	r15		
    4de2:	32 24       	jz	$+102    	;abs 0x4e48
    4de4:	d2 43 5a 1c 	mov.b	#1,	&0x1c5a	;r3 As==01
    4de8:	c2 93 9a 1b 	tst.b	&0x1b9a	
    4dec:	02 24       	jz	$+6      	;abs 0x4df2
    4dee:	c2 43 5a 1c 	mov.b	#0,	&0x1c5a	;r3 As==00
    4df2:	c2 93 5a 1c 	tst.b	&0x1c5a	
    4df6:	2a 24       	jz	$+86     	;abs 0x4e4c
    4df8:	f2 90 03 00 f0 18 	cmp.b	#3,	&0x18f0	;#0x0003
    4dfe:	29 20       	jnz	$+84     	;abs 0x4e52
    4e00:	c2 93 da 18 	tst.b	&0x18da	
    4e04:	28 20       	jnz	$+82     	;abs 0x4e56
    4e06:	5f 42 d8 18 	mov.b	&0x18d8,r15	
    4e0a:	7f 93       	cmp.b	#-1,	r15	;r3 As==11
    4e0c:	16 24       	jz	$+46     	;abs 0x4e3a
    4e0e:	4e 4f       	mov.b	r15,	r14	
    4e10:	5d 4e 08 1c 	mov.b	7176(r14),r13	;0x1c08(r14)
    4e14:	c2 4d d8 18 	mov.b	r13,	&0x18d8	
    4e18:	7d 93       	cmp.b	#-1,	r13	;r3 As==11
    4e1a:	02 20       	jnz	$+6      	;abs 0x4e20
    4e1c:	c2 4d d9 18 	mov.b	r13,	&0x18d9	
    4e20:	fe 43 08 1c 	mov.b	#-1,	7176(r14);r3 As==11, 0x1c08(r14)
    4e24:	c2 4f 58 1c 	mov.b	r15,	&0x1c58	
    4e28:	f2 43 da 18 	mov.b	#-1,	&0x18da	;r3 As==11
    4e2c:	d2 43 f0 18 	mov.b	#1,	&0x18f0	;r3 As==01
    4e30:	7f 40 07 00 	mov.b	#7,	r15	;#0x0007
    4e34:	b0 12 90 4d 	call	#0x4d90	
    4e38:	04 3c       	jmp	$+10     	;abs 0x4e42
    4e3a:	d2 43 da 18 	mov.b	#1,	&0x18da	;r3 As==01
    4e3e:	c2 43 f0 18 	mov.b	#0,	&0x18f0	;r3 As==00
    4e42:	b0 12 3c 4c 	call	#0x4c3c	
    4e46:	05 3c       	jmp	$+12     	;abs 0x4e52
    4e48:	5f 43       	mov.b	#1,	r15	;r3 As==01
    4e4a:	30 41       	ret			
    4e4c:	7f 40 05 00 	mov.b	#5,	r15	;#0x0005
    4e50:	30 41       	ret			
    4e52:	4f 43       	clr.b	r15		
    4e54:	30 41       	ret			
    4e56:	4f 43       	clr.b	r15		
    4e58:	30 41       	ret			

00004e5a <ArbiterP__0__ResourceDefaultOwner__release>:
    4e5a:	d2 93 da 18 	cmp.b	#1,	&0x18da	;r3 As==01
    4e5e:	13 20       	jnz	$+40     	;abs 0x4e86
    4e60:	5f 42 f0 18 	mov.b	&0x18f0,r15	
    4e64:	5f 93       	cmp.b	#1,	r15	;r3 As==01
    4e66:	05 20       	jnz	$+12     	;abs 0x4e72
    4e68:	7f 50 06 00 	add.b	#6,	r15	;#0x0006
    4e6c:	b0 12 90 4d 	call	#0x4d90	
    4e70:	08 3c       	jmp	$+18     	;abs 0x4e82
    4e72:	6f 93       	cmp.b	#2,	r15	;r3 As==10
    4e74:	0a 20       	jnz	$+22     	;abs 0x4e8a
    4e76:	d2 42 58 1c da 18 	mov.b	&0x1c58,&0x18da	
    4e7c:	f2 40 03 00 f0 18 	mov.b	#3,	&0x18f0	;#0x0003
    4e82:	4f 43       	clr.b	r15		
    4e84:	30 41       	ret			
    4e86:	5f 43       	mov.b	#1,	r15	;r3 As==01
    4e88:	30 41       	ret			
    4e8a:	5f 42 da 18 	mov.b	&0x18da,r15	
    4e8e:	30 41       	ret			

00004e90 <CC2420SpiP__SpiPacket__send>:
    4e90:	c2 43 10 1c 	mov.b	#0,	&0x1c10	;r3 As==00
    4e94:	82 4f 02 1c 	mov	r15,	&0x1c02	
    4e98:	82 4e 3a 1c 	mov	r14,	&0x1c3a	
    4e9c:	82 4d 16 1f 	mov	r13,	&0x1f16	
    4ea0:	82 43 12 1f 	mov	#0,	&0x1f12	;r3 As==00
    4ea4:	0d 93       	tst	r13		
    4ea6:	0d 24       	jz	$+28     	;abs 0x4ec2
    4ea8:	b0 12 66 4c 	call	#0x4c66	
    4eac:	f2 f0 bf ff 02 00 	and.b	#-65,	&0x0002	;#0xffbf
    4eb2:	f2 d0 40 00 00 00 	bis.b	#64,	&0x0000	;#0x0040
    4eb8:	b0 12 7a 4c 	call	#0x4c7a	
    4ebc:	b0 12 82 4c 	call	#0x4c82	
    4ec0:	04 3c       	jmp	$+10     	;abs 0x4eca
    4ec2:	7f 40 06 00 	mov.b	#6,	r15	;#0x0006
    4ec6:	b0 12 90 4d 	call	#0x4d90	
    4eca:	4f 43       	clr.b	r15		
    4ecc:	30 41       	ret			

00004ece <CC2420ReceiveP__RXFIFO__beginRead>:
    4ece:	0b 12       	push	r11		
    4ed0:	0a 12       	push	r10		
    4ed2:	09 12       	push	r9		
    4ed4:	0a 4f       	mov	r15,	r10	
    4ed6:	49 4e       	mov.b	r14,	r9	
    4ed8:	b0 12 66 4c 	call	#0x4c66	
    4edc:	4b 4f       	mov.b	r15,	r11	
    4ede:	b0 12 f8 4c 	call	#0x4cf8	
    4ee2:	4f 93       	tst.b	r15		
    4ee4:	05 24       	jz	$+12     	;abs 0x4ef0
    4ee6:	4f 4b       	mov.b	r11,	r15	
    4ee8:	b0 12 7a 4c 	call	#0x4c7a	
    4eec:	4b 43       	clr.b	r11		
    4eee:	10 3c       	jmp	$+34     	;abs 0x4f10
    4ef0:	4f 4b       	mov.b	r11,	r15	
    4ef2:	b0 12 7a 4c 	call	#0x4c7a	
    4ef6:	b2 40 7f 00 12 1c 	mov	#127,	&0x1c12	;#0x007f
    4efc:	7f 40 7f 00 	mov.b	#127,	r15	;#0x007f
    4f00:	b0 12 88 46 	call	#0x4688	
    4f04:	4b 4f       	mov.b	r15,	r11	
    4f06:	4d 49       	mov.b	r9,	r13	
    4f08:	0e 4a       	mov	r10,	r14	
    4f0a:	0f 43       	clr	r15		
    4f0c:	b0 12 90 4e 	call	#0x4e90	
    4f10:	4f 4b       	mov.b	r11,	r15	
    4f12:	39 41       	pop	r9		
    4f14:	3a 41       	pop	r10		
    4f16:	3b 41       	pop	r11		
    4f18:	30 41       	ret			

00004f1a <CC2420ReceiveP__receive>:
    4f1a:	b0 12 80 4d 	call	#0x4d80	
    4f1e:	5e 43       	mov.b	#1,	r14	;r3 As==01
    4f20:	1f 42 06 19 	mov	&0x1906,r15	
    4f24:	b0 12 ce 4e 	call	#0x4ece	
    4f28:	30 41       	ret			

00004f2a <CC2420TransmitP__Send__sendDone.clone.90>:
    4f2a:	0b 12       	push	r11		
    4f2c:	4b 4f       	mov.b	r15,	r11	
    4f2e:	b0 12 66 4c 	call	#0x4c66	
    4f32:	c2 4b e8 18 	mov.b	r11,	&0x18e8	
    4f36:	b0 12 7a 4c 	call	#0x4c7a	
    4f3a:	6f 43       	mov.b	#2,	r15	;r3 As==10
    4f3c:	b0 12 90 4d 	call	#0x4d90	
    4f40:	3b 41       	pop	r11		
    4f42:	30 41       	ret			

00004f44 <CC2420TransmitP__signalDone>:
    4f44:	0b 12       	push	r11		
    4f46:	4b 4f       	mov.b	r15,	r11	
    4f48:	92 43 fe 18 	mov	#1,	&0x18fe	;r3 As==01
    4f4c:	c2 43 9a 1b 	mov.b	#0,	&0x1b9a	;r3 As==00
    4f50:	b0 12 d0 4d 	call	#0x4dd0	
    4f54:	4f 4b       	mov.b	r11,	r15	
    4f56:	b0 12 2a 4f 	call	#0x4f2a	
    4f5a:	3b 41       	pop	r11		
    4f5c:	30 41       	ret			

00004f5e <StateImplP__State__toIdle>:
    4f5e:	0b 12       	push	r11		
    4f60:	4b 4f       	mov.b	r15,	r11	
    4f62:	b0 12 66 4c 	call	#0x4c66	
    4f66:	4e 4b       	mov.b	r11,	r14	
    4f68:	ce 43 40 1c 	mov.b	#0,	7232(r14);r3 As==00, 0x1c40(r14)
    4f6c:	b0 12 7a 4c 	call	#0x4c7a	
    4f70:	3b 41       	pop	r11		
    4f72:	30 41       	ret			

00004f74 <Msp430GpioC__1__GeneralIO__set>:
    4f74:	b0 12 66 4c 	call	#0x4c66	
    4f78:	e2 d2 1d 00 	bis.b	#4,	&0x001d	;r2 As==10
    4f7c:	b0 12 7a 4c 	call	#0x4c7a	
    4f80:	30 41       	ret			

00004f82 <CC2420SpiP__Resource__release>:
    4f82:	0b 12       	push	r11		
    4f84:	0a 12       	push	r10		
    4f86:	09 12       	push	r9		
    4f88:	08 12       	push	r8		
    4f8a:	07 12       	push	r7		
    4f8c:	49 4f       	mov.b	r15,	r9	
    4f8e:	b0 12 66 4c 	call	#0x4c66	
    4f92:	47 4f       	mov.b	r15,	r7	
    4f94:	c2 99 d7 18 	cmp.b	r9,	&0x18d7	
    4f98:	04 24       	jz	$+10     	;abs 0x4fa2
    4f9a:	b0 12 7a 4c 	call	#0x4c7a	
    4f9e:	5f 43       	mov.b	#1,	r15	;r3 As==01
    4fa0:	38 3c       	jmp	$+114    	;abs 0x5012
    4fa2:	f2 43 d7 18 	mov.b	#-1,	&0x18d7	;r3 As==11
    4fa6:	59 42 ee 18 	mov.b	&0x18ee,r9	
    4faa:	49 93       	tst.b	r9		
    4fac:	03 24       	jz	$+8      	;abs 0x4fb4
    4fae:	4c 43       	clr.b	r12		
    4fb0:	48 49       	mov.b	r9,	r8	
    4fb2:	0a 3c       	jmp	$+22     	;abs 0x4fc8
    4fb4:	4f 49       	mov.b	r9,	r15	
    4fb6:	b0 12 5e 4f 	call	#0x4f5e	
    4fba:	b0 12 d0 4d 	call	#0x4dd0	
    4fbe:	4f 47       	mov.b	r7,	r15	
    4fc0:	b0 12 7a 4c 	call	#0x4c7a	
    4fc4:	4f 49       	mov.b	r9,	r15	
    4fc6:	25 3c       	jmp	$+76     	;abs 0x5012
    4fc8:	7a 40 05 00 	mov.b	#5,	r10	;#0x0005
    4fcc:	b0 12 24 75 	call	#0x7524	
    4fd0:	4c 4e       	mov.b	r14,	r12	
    4fd2:	0f 4c       	mov	r12,	r15	
    4fd4:	0d 48       	mov	r8,	r13	
    4fd6:	0f 93       	tst	r15		
    4fd8:	03 24       	jz	$+8      	;abs 0x4fe0
    4fda:	0d 11       	rra	r13		
    4fdc:	1f 83       	dec	r15		
    4fde:	fd 23       	jnz	$-4      	;abs 0x4fda
    4fe0:	1d f3       	and	#1,	r13	;r3 As==01
    4fe2:	14 24       	jz	$+42     	;abs 0x500c
    4fe4:	c2 4e d7 18 	mov.b	r14,	&0x18d7	
    4fe8:	1e 43       	mov	#1,	r14	;r3 As==01
    4fea:	0c 93       	tst	r12		
    4fec:	03 24       	jz	$+8      	;abs 0x4ff4
    4fee:	0e 5e       	rla	r14		
    4ff0:	1c 83       	dec	r12		
    4ff2:	fd 23       	jnz	$-4      	;abs 0x4fee
    4ff4:	49 ce       	bic.b	r14,	r9	
    4ff6:	c2 49 ee 18 	mov.b	r9,	&0x18ee	
    4ffa:	7f 40 05 00 	mov.b	#5,	r15	;#0x0005
    4ffe:	b0 12 90 4d 	call	#0x4d90	
    5002:	4f 47       	mov.b	r7,	r15	
    5004:	b0 12 7a 4c 	call	#0x4c7a	
    5008:	4f 43       	clr.b	r15		
    500a:	03 3c       	jmp	$+8      	;abs 0x5012
    500c:	4c 4e       	mov.b	r14,	r12	
    500e:	5c 53       	inc.b	r12		
    5010:	db 3f       	jmp	$-72     	;abs 0x4fc8
    5012:	37 41       	pop	r7		
    5014:	38 41       	pop	r8		
    5016:	39 41       	pop	r9		
    5018:	3a 41       	pop	r10		
    501a:	3b 41       	pop	r11		
    501c:	30 41       	ret			

0000501e <CC2420ReceiveP__SpiResource__release>:
    501e:	6f 42       	mov.b	#4,	r15	;r2 As==10
    5020:	b0 12 82 4f 	call	#0x4f82	
    5024:	30 41       	ret			

00005026 <CC2420TransmitP__releaseSpiResource>:
    5026:	7f 40 03 00 	mov.b	#3,	r15	;#0x0003
    502a:	b0 12 82 4f 	call	#0x4f82	
    502e:	4f 43       	clr.b	r15		
    5030:	30 41       	ret			

00005032 <TransformAlarmC__0__Counter__get>:
    5032:	0b 12       	push	r11		
    5034:	0a 12       	push	r10		
    5036:	09 12       	push	r9		
    5038:	b0 12 66 4c 	call	#0x4c66	
    503c:	49 4f       	mov.b	r15,	r9	
    503e:	1b 42 22 1c 	mov	&0x1c22,r11	
    5042:	b0 12 1e 47 	call	#0x471e	
    5046:	0a 4f       	mov	r15,	r10	
    5048:	1f 42 80 01 	mov	&0x0180,r15	
    504c:	5f f3       	and.b	#1,	r15	;r3 As==01
    504e:	04 24       	jz	$+10     	;abs 0x5058
    5050:	1b 53       	inc	r11		
    5052:	b0 12 1e 47 	call	#0x471e	
    5056:	0a 4f       	mov	r15,	r10	
    5058:	4f 49       	mov.b	r9,	r15	
    505a:	b0 12 7a 4c 	call	#0x4c7a	
    505e:	0f 4b       	mov	r11,	r15	
    5060:	0e 43       	clr	r14		
    5062:	0c 4a       	mov	r10,	r12	
    5064:	0d 4e       	mov	r14,	r13	
    5066:	0e dc       	bis	r12,	r14	
    5068:	0f dd       	bis	r13,	r15	
    506a:	39 41       	pop	r9		
    506c:	3a 41       	pop	r10		
    506e:	3b 41       	pop	r11		
    5070:	30 41       	ret			

00005072 <TransformAlarmC__0__set_alarm>:
    5072:	0b 12       	push	r11		
    5074:	0a 12       	push	r10		
    5076:	09 12       	push	r9		
    5078:	b0 12 32 50 	call	#0x5032	
    507c:	09 4e       	mov	r14,	r9	
    507e:	0a 4f       	mov	r15,	r10	
    5080:	1b 42 0a 1c 	mov	&0x1c0a,r11	
    5084:	1c 42 0c 1c 	mov	&0x1c0c,r12	
    5088:	0d 4b       	mov	r11,	r13	
    508a:	0e 4c       	mov	r12,	r14	
    508c:	1d 52 04 1c 	add	&0x1c04,r13	
    5090:	1e 62 06 1c 	addc	&0x1c06,r14	
    5094:	0a 9c       	cmp	r12,	r10	
    5096:	0b 28       	jnc	$+24     	;abs 0x50ae
    5098:	0a 9c       	cmp	r12,	r10	
    509a:	02 20       	jnz	$+6      	;abs 0x50a0
    509c:	09 9b       	cmp	r11,	r9	
    509e:	07 28       	jnc	$+16     	;abs 0x50ae
    50a0:	0e 9c       	cmp	r12,	r14	
    50a2:	11 28       	jnc	$+36     	;abs 0x50c6
    50a4:	0e 9c       	cmp	r12,	r14	
    50a6:	09 20       	jnz	$+20     	;abs 0x50ba
    50a8:	0d 9b       	cmp	r11,	r13	
    50aa:	0d 28       	jnc	$+28     	;abs 0x50c6
    50ac:	06 3c       	jmp	$+14     	;abs 0x50ba
    50ae:	0e 9c       	cmp	r12,	r14	
    50b0:	04 28       	jnc	$+10     	;abs 0x50ba
    50b2:	0c 9e       	cmp	r14,	r12	
    50b4:	27 28       	jnc	$+80     	;abs 0x5104
    50b6:	0d 9b       	cmp	r11,	r13	
    50b8:	25 2c       	jc	$+76     	;abs 0x5104
    50ba:	0a 9e       	cmp	r14,	r10	
    50bc:	04 28       	jnc	$+10     	;abs 0x50c6
    50be:	0e 9a       	cmp	r10,	r14	
    50c0:	21 28       	jnc	$+68     	;abs 0x5104
    50c2:	09 9d       	cmp	r13,	r9	
    50c4:	1f 2c       	jc	$+64     	;abs 0x5104
    50c6:	0b 4d       	mov	r13,	r11	
    50c8:	0c 4e       	mov	r14,	r12	
    50ca:	0b 89       	sub	r9,	r11	
    50cc:	0c 7a       	subc	r10,	r12	
    50ce:	0c 93       	tst	r12		
    50d0:	03 20       	jnz	$+8      	;abs 0x50d8
    50d2:	3b 90 01 80 	cmp	#-32767,r11	;#0x8001
    50d6:	18 28       	jnc	$+50     	;abs 0x5108
    50d8:	0e 49       	mov	r9,	r14	
    50da:	0f 4a       	mov	r10,	r15	
    50dc:	3e 50 00 80 	add	#-32768,r14	;#0x8000
    50e0:	0f 63       	adc	r15		
    50e2:	82 4e 0a 1c 	mov	r14,	&0x1c0a	
    50e6:	82 4f 0c 1c 	mov	r15,	&0x1c0c	
    50ea:	0e 4b       	mov	r11,	r14	
    50ec:	0f 4c       	mov	r12,	r15	
    50ee:	3e 50 00 80 	add	#-32768,r14	;#0x8000
    50f2:	3f 63       	addc	#-1,	r15	;r3 As==11
    50f4:	82 4e 04 1c 	mov	r14,	&0x1c04	
    50f8:	82 4f 06 1c 	mov	r15,	&0x1c06	
    50fc:	3b 40 00 80 	mov	#-32768,r11	;#0x8000
    5100:	0c 43       	clr	r12		
    5102:	0a 3c       	jmp	$+22     	;abs 0x5118
    5104:	0b 43       	clr	r11		
    5106:	0c 43       	clr	r12		
    5108:	82 4d 0a 1c 	mov	r13,	&0x1c0a	
    510c:	82 4e 0c 1c 	mov	r14,	&0x1c0c	
    5110:	82 43 04 1c 	mov	#0,	&0x1c04	;r3 As==00
    5114:	82 43 06 1c 	mov	#0,	&0x1c06	;r3 As==00
    5118:	b0 12 1e 47 	call	#0x471e	
    511c:	0e 4f       	mov	r15,	r14	
    511e:	0e 89       	sub	r9,	r14	
    5120:	0e 9b       	cmp	r11,	r14	
    5122:	04 2c       	jc	$+10     	;abs 0x512c
    5124:	0b 8e       	sub	r14,	r11	
    5126:	3b 90 03 00 	cmp	#3,	r11	;#0x0003
    512a:	06 2c       	jc	$+14     	;abs 0x5138
    512c:	b0 12 1e 47 	call	#0x471e	
    5130:	2f 53       	incd	r15		
    5132:	82 4f 92 01 	mov	r15,	&0x0192	
    5136:	03 3c       	jmp	$+8      	;abs 0x513e
    5138:	0b 5f       	add	r15,	r11	
    513a:	82 4b 92 01 	mov	r11,	&0x0192	
    513e:	b2 f0 fe ff 82 01 	and	#-2,	&0x0182	;#0xfffe
    5144:	b2 d0 10 00 82 01 	bis	#16,	&0x0182	;#0x0010
    514a:	39 41       	pop	r9		
    514c:	3a 41       	pop	r10		
    514e:	3b 41       	pop	r11		
    5150:	30 41       	ret			

00005152 <TransformAlarmC__0__Alarm__start>:
    5152:	0b 12       	push	r11		
    5154:	0a 12       	push	r10		
    5156:	09 12       	push	r9		
    5158:	08 12       	push	r8		
    515a:	21 83       	decd	r1		
    515c:	0a 4e       	mov	r14,	r10	
    515e:	0b 4f       	mov	r15,	r11	
    5160:	b0 12 32 50 	call	#0x5032	
    5164:	08 4e       	mov	r14,	r8	
    5166:	09 4f       	mov	r15,	r9	
    5168:	b0 12 66 4c 	call	#0x4c66	
    516c:	82 48 0a 1c 	mov	r8,	&0x1c0a	
    5170:	82 49 0c 1c 	mov	r9,	&0x1c0c	
    5174:	82 4a 04 1c 	mov	r10,	&0x1c04	
    5178:	82 4b 06 1c 	mov	r11,	&0x1c06	
    517c:	81 4f 00 00 	mov	r15,	0(r1)	;0x0000(r1)
    5180:	b0 12 72 50 	call	#0x5072	
    5184:	2f 41       	mov	@r1,	r15	
    5186:	b0 12 7a 4c 	call	#0x4c7a	
    518a:	21 53       	incd	r1		
    518c:	38 41       	pop	r8		
    518e:	39 41       	pop	r9		
    5190:	3a 41       	pop	r10		
    5192:	3b 41       	pop	r11		
    5194:	30 41       	ret			

00005196 <CC2420TransmitP__congestionBackoff>:
    5196:	0b 12       	push	r11		
    5198:	0a 12       	push	r10		
    519a:	09 12       	push	r9		
    519c:	b0 12 66 4c 	call	#0x4c66	
    51a0:	49 4f       	mov.b	r15,	r9	
    51a2:	b0 12 38 45 	call	#0x4538	
    51a6:	0c 4f       	mov	r15,	r12	
    51a8:	3a 40 46 00 	mov	#70,	r10	;#0x0046
    51ac:	b0 12 40 75 	call	#0x7540	
    51b0:	3e 50 0b 00 	add	#11,	r14	;#0x000b
    51b4:	82 4e 24 1f 	mov	r14,	&0x1f24	
    51b8:	0f 43       	clr	r15		
    51ba:	b0 12 52 51 	call	#0x5152	
    51be:	4f 49       	mov.b	r9,	r15	
    51c0:	b0 12 7a 4c 	call	#0x4c7a	
    51c4:	39 41       	pop	r9		
    51c6:	3a 41       	pop	r10		
    51c8:	3b 41       	pop	r11		
    51ca:	30 41       	ret			

000051cc <CC2420TransmitP__attemptSend>:
    51cc:	0b 12       	push	r11		
    51ce:	0a 12       	push	r10		
    51d0:	b0 12 66 4c 	call	#0x4c66	
    51d4:	4a 4f       	mov.b	r15,	r10	
    51d6:	b2 92 fe 18 	cmp	#8,	&0x18fe	;r2 As==11
    51da:	10 20       	jnz	$+34     	;abs 0x51fc
    51dc:	b0 12 42 4d 	call	#0x4d42	
    51e0:	b0 12 26 50 	call	#0x5026	
    51e4:	b0 12 74 4f 	call	#0x4f74	
    51e8:	92 43 fe 18 	mov	#1,	&0x18fe	;r3 As==01
    51ec:	7f 40 03 00 	mov.b	#3,	r15	;#0x0003
    51f0:	b0 12 2a 4f 	call	#0x4f2a	
    51f4:	4f 4a       	mov.b	r10,	r15	
    51f6:	b0 12 7a 4c 	call	#0x4c7a	
    51fa:	2f 3c       	jmp	$+96     	;abs 0x525a
    51fc:	b0 12 80 4d 	call	#0x4d80	
    5200:	c2 93 5c 1f 	tst.b	&0x1f5c	
    5204:	03 24       	jz	$+8      	;abs 0x520c
    5206:	7f 40 05 00 	mov.b	#5,	r15	;#0x0005
    520a:	01 3c       	jmp	$+4      	;abs 0x520e
    520c:	6f 42       	mov.b	#4,	r15	;r2 As==10
    520e:	b0 12 12 4d 	call	#0x4d12	
    5212:	4b 4f       	mov.b	r15,	r11	
    5214:	3b f2       	and	#8,	r11	;r2 As==11
    5216:	06 20       	jnz	$+14     	;abs 0x5224
    5218:	4f 4b       	mov.b	r11,	r15	
    521a:	b0 12 12 4d 	call	#0x4d12	
    521e:	3f f2       	and	#8,	r15	;r2 As==11
    5220:	0f 9b       	cmp	r11,	r15	
    5222:	04 20       	jnz	$+10     	;abs 0x522c
    5224:	5b 43       	mov.b	#1,	r11	;r3 As==01
    5226:	3f 40 03 00 	mov	#3,	r15	;#0x0003
    522a:	02 3c       	jmp	$+6      	;abs 0x5230
    522c:	3f 40 05 00 	mov	#5,	r15	;#0x0005
    5230:	82 4f fe 18 	mov	r15,	&0x18fe	
    5234:	b0 12 74 4f 	call	#0x4f74	
    5238:	4f 4a       	mov.b	r10,	r15	
    523a:	b0 12 7a 4c 	call	#0x4c7a	
    523e:	4b 93       	tst.b	r11		
    5240:	07 24       	jz	$+16     	;abs 0x5250
    5242:	c2 43 0c 19 	mov.b	#0,	&0x190c	;r3 As==00
    5246:	b0 12 26 50 	call	#0x5026	
    524a:	b0 12 96 51 	call	#0x5196	
    524e:	05 3c       	jmp	$+12     	;abs 0x525a
    5250:	3e 40 40 01 	mov	#320,	r14	;#0x0140
    5254:	0f 43       	clr	r15		
    5256:	b0 12 52 51 	call	#0x5152	
    525a:	3a 41       	pop	r10		
    525c:	3b 41       	pop	r11		
    525e:	30 41       	ret			

00005260 <CC2420SpiP__Reg__write>:
    5260:	0b 12       	push	r11		
    5262:	0a 12       	push	r10		
    5264:	09 12       	push	r9		
    5266:	49 4f       	mov.b	r15,	r9	
    5268:	0a 4e       	mov	r14,	r10	
    526a:	b0 12 66 4c 	call	#0x4c66	
    526e:	4b 4f       	mov.b	r15,	r11	
    5270:	b0 12 f8 4c 	call	#0x4cf8	
    5274:	4f 93       	tst.b	r15		
    5276:	05 24       	jz	$+12     	;abs 0x5282
    5278:	4f 4b       	mov.b	r11,	r15	
    527a:	b0 12 7a 4c 	call	#0x4c7a	
    527e:	4f 43       	clr.b	r15		
    5280:	0d 3c       	jmp	$+28     	;abs 0x529c
    5282:	4f 4b       	mov.b	r11,	r15	
    5284:	b0 12 7a 4c 	call	#0x4c7a	
    5288:	4f 49       	mov.b	r9,	r15	
    528a:	b0 12 88 46 	call	#0x4688	
    528e:	0f 4a       	mov	r10,	r15	
    5290:	8f 10       	swpb	r15		
    5292:	b0 12 88 46 	call	#0x4688	
    5296:	4f 4a       	mov.b	r10,	r15	
    5298:	b0 12 88 46 	call	#0x4688	
    529c:	39 41       	pop	r9		
    529e:	3a 41       	pop	r10		
    52a0:	3b 41       	pop	r11		
    52a2:	30 41       	ret			

000052a4 <CC2420SpiP__Ram__write>:
    52a4:	0b 12       	push	r11		
    52a6:	0a 12       	push	r10		
    52a8:	09 12       	push	r9		
    52aa:	08 12       	push	r8		
    52ac:	07 12       	push	r7		
    52ae:	09 4f       	mov	r15,	r9	
    52b0:	4b 4e       	mov.b	r14,	r11	
    52b2:	07 4d       	mov	r13,	r7	
    52b4:	48 4c       	mov.b	r12,	r8	
    52b6:	b0 12 66 4c 	call	#0x4c66	
    52ba:	4a 4f       	mov.b	r15,	r10	
    52bc:	b0 12 f8 4c 	call	#0x4cf8	
    52c0:	4f 93       	tst.b	r15		
    52c2:	05 24       	jz	$+12     	;abs 0x52ce
    52c4:	4f 4a       	mov.b	r10,	r15	
    52c6:	b0 12 7a 4c 	call	#0x4c7a	
    52ca:	4f 43       	clr.b	r15		
    52cc:	22 3c       	jmp	$+70     	;abs 0x5312
    52ce:	4f 4a       	mov.b	r10,	r15	
    52d0:	b0 12 7a 4c 	call	#0x4c7a	
    52d4:	4b 4b       	mov.b	r11,	r11	
    52d6:	0b 59       	add	r9,	r11	
    52d8:	4f 4b       	mov.b	r11,	r15	
    52da:	7f d0 80 ff 	bis.b	#-128,	r15	;#0xff80
    52de:	b0 12 88 46 	call	#0x4688	
    52e2:	49 4f       	mov.b	r15,	r9	
    52e4:	0e 4b       	mov	r11,	r14	
    52e6:	12 c3       	clrc			
    52e8:	0e 10       	rrc	r14		
    52ea:	4f 4e       	mov.b	r14,	r15	
    52ec:	7f f0 c0 ff 	and.b	#-64,	r15	;#0xffc0
    52f0:	b0 12 88 46 	call	#0x4688	
    52f4:	4b 48       	mov.b	r8,	r11	
    52f6:	4a 48       	mov.b	r8,	r10	
    52f8:	09 3c       	jmp	$+20     	;abs 0x530c
    52fa:	4e 4b       	mov.b	r11,	r14	
    52fc:	0f 4a       	mov	r10,	r15	
    52fe:	0f 8e       	sub	r14,	r15	
    5300:	0e 4f       	mov	r15,	r14	
    5302:	0e 57       	add	r7,	r14	
    5304:	6f 4e       	mov.b	@r14,	r15	
    5306:	b0 12 88 46 	call	#0x4688	
    530a:	7b 53       	add.b	#-1,	r11	;r3 As==11
    530c:	4b 93       	tst.b	r11		
    530e:	f5 23       	jnz	$-20     	;abs 0x52fa
    5310:	4f 49       	mov.b	r9,	r15	
    5312:	37 41       	pop	r7		
    5314:	38 41       	pop	r8		
    5316:	39 41       	pop	r9		
    5318:	3a 41       	pop	r10		
    531a:	3b 41       	pop	r11		
    531c:	30 41       	ret			

0000531e <CC2420ControlP__writeId>:
    531e:	0b 12       	push	r11		
    5320:	31 50 f4 ff 	add	#-12,	r1	;#0xfff4
    5324:	b0 12 66 4c 	call	#0x4c66	
    5328:	4b 4f       	mov.b	r15,	r11	
    532a:	3d 42       	mov	#8,	r13	;r2 As==11
    532c:	3e 40 50 1c 	mov	#7248,	r14	;#0x1c50
    5330:	0f 41       	mov	r1,	r15	
    5332:	b0 12 7a 72 	call	#0x727a	
    5336:	1f 42 f2 1b 	mov	&0x1bf2,r15	
    533a:	0e 41       	mov	r1,	r14	
    533c:	3e 52       	add	#8,	r14	;r2 As==11
    533e:	ce 4f 00 00 	mov.b	r15,	0(r14)	;0x0000(r14)
    5342:	8f 10       	swpb	r15		
    5344:	ce 4f 01 00 	mov.b	r15,	1(r14)	;0x0001(r14)
    5348:	1f 42 0e 1c 	mov	&0x1c0e,r15	
    534c:	2e 53       	incd	r14		
    534e:	ce 4f 00 00 	mov.b	r15,	0(r14)	;0x0000(r14)
    5352:	8f 10       	swpb	r15		
    5354:	ce 4f 01 00 	mov.b	r15,	1(r14)	;0x0001(r14)
    5358:	4f 4b       	mov.b	r11,	r15	
    535a:	b0 12 7a 4c 	call	#0x4c7a	
    535e:	7c 40 0c 00 	mov.b	#12,	r12	;#0x000c
    5362:	0d 41       	mov	r1,	r13	
    5364:	4e 43       	clr.b	r14		
    5366:	3f 40 60 01 	mov	#352,	r15	;#0x0160
    536a:	b0 12 a4 52 	call	#0x52a4	
    536e:	31 50 0c 00 	add	#12,	r1	;#0x000c
    5372:	3b 41       	pop	r11		
    5374:	30 41       	ret			

00005376 <ActiveMessageAddressC__ActiveMessageAddress__amAddress>:
    5376:	0b 12       	push	r11		
    5378:	b0 12 66 4c 	call	#0x4c66	
    537c:	1b 42 dc 18 	mov	&0x18dc,r11	
    5380:	b0 12 7a 4c 	call	#0x4c7a	
    5384:	0f 4b       	mov	r11,	r15	
    5386:	3b 41       	pop	r11		
    5388:	30 41       	ret			

0000538a <CC2420CsmaP__SplitControlState__forceState>:
    538a:	0b 12       	push	r11		
    538c:	4b 4f       	mov.b	r15,	r11	
    538e:	b0 12 66 4c 	call	#0x4c66	
    5392:	c2 4b 41 1c 	mov.b	r11,	&0x1c41	
    5396:	b0 12 7a 4c 	call	#0x4c7a	
    539a:	3b 41       	pop	r11		
    539c:	30 41       	ret			

0000539e <TransformAlarmC__1__Counter__get>:
    539e:	0b 12       	push	r11		
    53a0:	0a 12       	push	r10		
    53a2:	09 12       	push	r9		
    53a4:	08 12       	push	r8		
    53a6:	b0 12 66 4c 	call	#0x4c66	
    53aa:	48 4f       	mov.b	r15,	r8	
    53ac:	1a 42 fe 1b 	mov	&0x1bfe,r10	
    53b0:	1b 42 00 1c 	mov	&0x1c00,r11	
    53b4:	b0 12 1e 47 	call	#0x471e	
    53b8:	09 4f       	mov	r15,	r9	
    53ba:	1f 42 80 01 	mov	&0x0180,r15	
    53be:	5f f3       	and.b	#1,	r15	;r3 As==01
    53c0:	05 24       	jz	$+12     	;abs 0x53cc
    53c2:	1a 53       	inc	r10		
    53c4:	0b 63       	adc	r11		
    53c6:	b0 12 1e 47 	call	#0x471e	
    53ca:	09 4f       	mov	r15,	r9	
    53cc:	4f 48       	mov.b	r8,	r15	
    53ce:	b0 12 7a 4c 	call	#0x4c7a	
    53d2:	0f 49       	mov	r9,	r15	
    53d4:	12 c3       	clrc			
    53d6:	0f 10       	rrc	r15		
    53d8:	0f 11       	rra	r15		
    53da:	0f 11       	rra	r15		
    53dc:	0f 11       	rra	r15		
    53de:	0c 4f       	mov	r15,	r12	
    53e0:	12 c3       	clrc			
    53e2:	0c 10       	rrc	r12		
    53e4:	0d 43       	clr	r13		
    53e6:	0e 4a       	mov	r10,	r14	
    53e8:	0f 4b       	mov	r11,	r15	
    53ea:	4f ee       	xor.b	r14,	r15	
    53ec:	0f ee       	xor	r14,	r15	
    53ee:	8f 10       	swpb	r15		
    53f0:	7e f3       	and.b	#-1,	r14	;r3 As==11
    53f2:	8e 10       	swpb	r14		
    53f4:	0e 5e       	rla	r14		
    53f6:	0f 6f       	rlc	r15		
    53f8:	0e 5e       	rla	r14		
    53fa:	0f 6f       	rlc	r15		
    53fc:	0e 5e       	rla	r14		
    53fe:	0f 6f       	rlc	r15		
    5400:	0e dc       	bis	r12,	r14	
    5402:	0f dd       	bis	r13,	r15	
    5404:	38 41       	pop	r8		
    5406:	39 41       	pop	r9		
    5408:	3a 41       	pop	r10		
    540a:	3b 41       	pop	r11		
    540c:	30 41       	ret			

0000540e <TransformAlarmC__1__set_alarm>:
    540e:	0b 12       	push	r11		
    5410:	0a 12       	push	r10		
    5412:	09 12       	push	r9		
    5414:	b0 12 9e 53 	call	#0x539e	
    5418:	09 4e       	mov	r14,	r9	
    541a:	0a 4f       	mov	r15,	r10	
    541c:	1b 42 08 19 	mov	&0x1908,r11	
    5420:	1c 42 0a 19 	mov	&0x190a,r12	
    5424:	0d 4b       	mov	r11,	r13	
    5426:	0e 4c       	mov	r12,	r14	
    5428:	1d 52 e6 1b 	add	&0x1be6,r13	
    542c:	1e 62 e8 1b 	addc	&0x1be8,r14	
    5430:	0a 9c       	cmp	r12,	r10	
    5432:	0b 28       	jnc	$+24     	;abs 0x544a
    5434:	0a 9c       	cmp	r12,	r10	
    5436:	02 20       	jnz	$+6      	;abs 0x543c
    5438:	09 9b       	cmp	r11,	r9	
    543a:	07 28       	jnc	$+16     	;abs 0x544a
    543c:	0e 9c       	cmp	r12,	r14	
    543e:	11 28       	jnc	$+36     	;abs 0x5462
    5440:	0e 9c       	cmp	r12,	r14	
    5442:	09 20       	jnz	$+20     	;abs 0x5456
    5444:	0d 9b       	cmp	r11,	r13	
    5446:	0d 28       	jnc	$+28     	;abs 0x5462
    5448:	06 3c       	jmp	$+14     	;abs 0x5456
    544a:	0e 9c       	cmp	r12,	r14	
    544c:	04 28       	jnc	$+10     	;abs 0x5456
    544e:	0c 9e       	cmp	r14,	r12	
    5450:	27 28       	jnc	$+80     	;abs 0x54a0
    5452:	0d 9b       	cmp	r11,	r13	
    5454:	25 2c       	jc	$+76     	;abs 0x54a0
    5456:	0a 9e       	cmp	r14,	r10	
    5458:	04 28       	jnc	$+10     	;abs 0x5462
    545a:	0e 9a       	cmp	r10,	r14	
    545c:	21 28       	jnc	$+68     	;abs 0x54a0
    545e:	09 9d       	cmp	r13,	r9	
    5460:	1f 2c       	jc	$+64     	;abs 0x54a0
    5462:	0b 4d       	mov	r13,	r11	
    5464:	0c 4e       	mov	r14,	r12	
    5466:	0b 89       	sub	r9,	r11	
    5468:	0c 7a       	subc	r10,	r12	
    546a:	0c 93       	tst	r12		
    546c:	03 20       	jnz	$+8      	;abs 0x5474
    546e:	3b 90 01 04 	cmp	#1025,	r11	;#0x0401
    5472:	18 28       	jnc	$+50     	;abs 0x54a4
    5474:	0e 49       	mov	r9,	r14	
    5476:	0f 4a       	mov	r10,	r15	
    5478:	3e 50 00 04 	add	#1024,	r14	;#0x0400
    547c:	0f 63       	adc	r15		
    547e:	82 4e 08 19 	mov	r14,	&0x1908	
    5482:	82 4f 0a 19 	mov	r15,	&0x190a	
    5486:	0e 4b       	mov	r11,	r14	
    5488:	0f 4c       	mov	r12,	r15	
    548a:	3e 50 00 fc 	add	#-1024,	r14	;#0xfc00
    548e:	3f 63       	addc	#-1,	r15	;r3 As==11
    5490:	82 4e e6 1b 	mov	r14,	&0x1be6	
    5494:	82 4f e8 1b 	mov	r15,	&0x1be8	
    5498:	3b 40 00 04 	mov	#1024,	r11	;#0x0400
    549c:	0c 43       	clr	r12		
    549e:	0a 3c       	jmp	$+22     	;abs 0x54b4
    54a0:	0b 43       	clr	r11		
    54a2:	0c 43       	clr	r12		
    54a4:	82 4d 08 19 	mov	r13,	&0x1908	
    54a8:	82 4e 0a 19 	mov	r14,	&0x190a	
    54ac:	82 43 e6 1b 	mov	#0,	&0x1be6	;r3 As==00
    54b0:	82 43 e8 1b 	mov	#0,	&0x1be8	;r3 As==00
    54b4:	0b 5b       	rla	r11		
    54b6:	0b 5b       	rla	r11		
    54b8:	0b 5b       	rla	r11		
    54ba:	0b 5b       	rla	r11		
    54bc:	0b 5b       	rla	r11		
    54be:	b0 12 1e 47 	call	#0x471e	
    54c2:	09 59       	rla	r9		
    54c4:	09 59       	rla	r9		
    54c6:	09 59       	rla	r9		
    54c8:	09 59       	rla	r9		
    54ca:	09 59       	rla	r9		
    54cc:	0e 4f       	mov	r15,	r14	
    54ce:	0e 89       	sub	r9,	r14	
    54d0:	0e 9b       	cmp	r11,	r14	
    54d2:	04 2c       	jc	$+10     	;abs 0x54dc
    54d4:	0b 8e       	sub	r14,	r11	
    54d6:	3b 90 03 00 	cmp	#3,	r11	;#0x0003
    54da:	06 2c       	jc	$+14     	;abs 0x54e8
    54dc:	b0 12 1e 47 	call	#0x471e	
    54e0:	2f 53       	incd	r15		
    54e2:	82 4f 96 01 	mov	r15,	&0x0196	
    54e6:	03 3c       	jmp	$+8      	;abs 0x54ee
    54e8:	0b 5f       	add	r15,	r11	
    54ea:	82 4b 96 01 	mov	r11,	&0x0196	
    54ee:	b2 f0 fe ff 86 01 	and	#-2,	&0x0186	;#0xfffe
    54f4:	b2 d0 10 00 86 01 	bis	#16,	&0x0186	;#0x0010
    54fa:	39 41       	pop	r9		
    54fc:	3a 41       	pop	r10		
    54fe:	3b 41       	pop	r11		
    5500:	30 41       	ret			

00005502 <CC2420ControlP__RSTN__clr>:
    5502:	b0 12 66 4c 	call	#0x4c66	
    5506:	f2 f0 bf ff 1d 00 	and.b	#-65,	&0x001d	;#0xffbf
    550c:	b0 12 7a 4c 	call	#0x4c7a	
    5510:	30 41       	ret			

00005512 <CC2420ControlP__RSTN__set>:
    5512:	b0 12 66 4c 	call	#0x4c66	
    5516:	f2 d0 40 00 1d 00 	bis.b	#64,	&0x001d	;#0x0040
    551c:	b0 12 7a 4c 	call	#0x4c7a	
    5520:	30 41       	ret			

00005522 <CC2420TransmitP__loadTXFIFO>:
    5522:	0b 12       	push	r11		
    5524:	0a 12       	push	r10		
    5526:	09 12       	push	r9		
    5528:	1b 42 f6 1b 	mov	&0x1bf6,r11	
    552c:	5a 4b 2a 00 	mov.b	42(r11),r10	;0x002a(r11)
    5530:	4a 93       	tst.b	r10		
    5532:	02 20       	jnz	$+6      	;abs 0x5538
    5534:	7a 50 1f 00 	add.b	#31,	r10	;#0x001f
    5538:	b0 12 80 4d 	call	#0x4d80	
    553c:	c2 9a e3 1b 	cmp.b	r10,	&0x1be3	
    5540:	07 24       	jz	$+16     	;abs 0x5550
    5542:	4e 4a       	mov.b	r10,	r14	
    5544:	3e d0 e0 80 	bis	#-32544,r14	;#0x80e0
    5548:	7f 40 15 00 	mov.b	#21,	r15	;#0x0015
    554c:	b0 12 60 52 	call	#0x5260	
    5550:	c2 4a e3 1b 	mov.b	r10,	&0x1be3	
    5554:	69 4b       	mov.b	@r11,	r9	
    5556:	b0 12 66 4c 	call	#0x4c66	
    555a:	4a 4f       	mov.b	r15,	r10	
    555c:	b0 12 f8 4c 	call	#0x4cf8	
    5560:	4f 93       	tst.b	r15		
    5562:	04 24       	jz	$+10     	;abs 0x556c
    5564:	4f 4a       	mov.b	r10,	r15	
    5566:	b0 12 7a 4c 	call	#0x4c7a	
    556a:	11 3c       	jmp	$+36     	;abs 0x558e
    556c:	4f 4a       	mov.b	r10,	r15	
    556e:	b0 12 7a 4c 	call	#0x4c7a	
    5572:	b2 40 3e 00 12 1c 	mov	#62,	&0x1c12	;#0x003e
    5578:	7f 40 3e 00 	mov.b	#62,	r15	;#0x003e
    557c:	b0 12 88 46 	call	#0x4688	
    5580:	4d 49       	mov.b	r9,	r13	
    5582:	7d 53       	add.b	#-1,	r13	;r3 As==11
    5584:	4d 4d       	mov.b	r13,	r13	
    5586:	0e 43       	clr	r14		
    5588:	0f 4b       	mov	r11,	r15	
    558a:	b0 12 90 4e 	call	#0x4e90	
    558e:	39 41       	pop	r9		
    5590:	3a 41       	pop	r10		
    5592:	3b 41       	pop	r11		
    5594:	30 41       	ret			

00005596 <SenderC__Leds__led2Toggle>:
    5596:	b0 12 66 4c 	call	#0x4c66	
    559a:	f2 e0 40 00 31 00 	xor.b	#64,	&0x0031	;#0x0040
    55a0:	b0 12 7a 4c 	call	#0x4c7a	
    55a4:	30 41       	ret			

000055a6 <SenderC__Leds__led1Toggle>:
    55a6:	b0 12 66 4c 	call	#0x4c66	
    55aa:	f2 e0 20 00 31 00 	xor.b	#32,	&0x0031	;#0x0020
    55b0:	b0 12 7a 4c 	call	#0x4c7a	
    55b4:	30 41       	ret			

000055b6 <AMQueueImplP__0__Send__sendDone.clone.110>:
    55b6:	4f 93       	tst.b	r15		
    55b8:	03 24       	jz	$+8      	;abs 0x55c0
    55ba:	5f 93       	cmp.b	#1,	r15	;r3 As==01
    55bc:	10 20       	jnz	$+34     	;abs 0x55de
    55be:	08 3c       	jmp	$+18     	;abs 0x55d0
    55c0:	3e 90 ae 1b 	cmp	#7086,	r14	;#0x1bae
    55c4:	0c 20       	jnz	$+26     	;abs 0x55de
    55c6:	c2 4f f0 1b 	mov.b	r15,	&0x1bf0	
    55ca:	b0 12 96 55 	call	#0x5596	
    55ce:	30 41       	ret			
    55d0:	3e 90 28 1f 	cmp	#7976,	r14	;#0x1f28
    55d4:	04 20       	jnz	$+10     	;abs 0x55de
    55d6:	c2 43 f0 1b 	mov.b	#0,	&0x1bf0	;r3 As==00
    55da:	b0 12 a6 55 	call	#0x55a6	
    55de:	30 41       	ret			

000055e0 <CC2420ControlP__writeFsctrl>:
    55e0:	0b 12       	push	r11		
    55e2:	b0 12 66 4c 	call	#0x4c66	
    55e6:	5b 42 59 1c 	mov.b	&0x1c59,r11	
    55ea:	b0 12 7a 4c 	call	#0x4c7a	
    55ee:	0e 4b       	mov	r11,	r14	
    55f0:	0e 5e       	rla	r14		
    55f2:	0e 5b       	add	r11,	r14	
    55f4:	0e 5b       	add	r11,	r14	
    55f6:	0e 5b       	add	r11,	r14	
    55f8:	3e 50 2e 01 	add	#302,	r14	;#0x012e
    55fc:	3e d0 00 40 	bis	#16384,	r14	;#0x4000
    5600:	7f 40 18 00 	mov.b	#24,	r15	;#0x0018
    5604:	b0 12 60 52 	call	#0x5260	
    5608:	3b 41       	pop	r11		
    560a:	30 41       	ret			

0000560c <CC2420ControlP__writeMdmctrl0>:
    560c:	0b 12       	push	r11		
    560e:	b0 12 66 4c 	call	#0x4c66	
    5612:	4b 4f       	mov.b	r15,	r11	
    5614:	c2 93 e4 1b 	tst.b	&0x1be4	
    5618:	04 24       	jz	$+10     	;abs 0x5622
    561a:	1e 43       	mov	#1,	r14	;r3 As==01
    561c:	c2 93 20 1f 	tst.b	&0x1f20	
    5620:	01 20       	jnz	$+4      	;abs 0x5624
    5622:	0e 43       	clr	r14		
    5624:	3e f0 ff 00 	and	#255,	r14	;#0x00ff
    5628:	8e 10       	swpb	r14		
    562a:	0e 5e       	rla	r14		
    562c:	0e 5e       	rla	r14		
    562e:	0e 5e       	rla	r14		
    5630:	c2 93 f4 1b 	tst.b	&0x1bf4	
    5634:	04 24       	jz	$+10     	;abs 0x563e
    5636:	1d 43       	mov	#1,	r13	;r3 As==01
    5638:	c2 93 4e 1c 	tst.b	&0x1c4e	
    563c:	01 20       	jnz	$+4      	;abs 0x5640
    563e:	0d 43       	clr	r13		
    5640:	3e d0 e2 22 	bis	#8930,	r14	;#0x22e2
    5644:	0d 5d       	rla	r13		
    5646:	0d 5d       	rla	r13		
    5648:	0d 5d       	rla	r13		
    564a:	0d 5d       	rla	r13		
    564c:	0e dd       	bis	r13,	r14	
    564e:	7f 40 11 00 	mov.b	#17,	r15	;#0x0011
    5652:	b0 12 60 52 	call	#0x5260	
    5656:	4f 4b       	mov.b	r11,	r15	
    5658:	b0 12 7a 4c 	call	#0x4c7a	
    565c:	3b 41       	pop	r11		
    565e:	30 41       	ret			

00005660 <ArbiterP__0__ResourceConfigure__configure>:
    5660:	0b 12       	push	r11		
    5662:	0a 12       	push	r10		
    5664:	4b 4f       	mov.b	r15,	r11	
    5666:	4f 93       	tst.b	r15		
    5668:	3c 20       	jnz	$+122    	;abs 0x56e2
    566a:	b0 12 66 4c 	call	#0x4c66	
    566e:	4a 4f       	mov.b	r15,	r10	
    5670:	5f 43       	mov.b	#1,	r15	;r3 As==01
    5672:	b0 12 b4 45 	call	#0x45b4	
    5676:	f2 f0 da ff 70 00 	and.b	#-38,	&0x0070	;#0xffda
    567c:	5f 43       	mov.b	#1,	r15	;r3 As==01
    567e:	b0 12 b4 45 	call	#0x45b4	
    5682:	f2 f0 3f 00 04 00 	and.b	#63,	&0x0004	;#0x003f
    5688:	f2 f0 ef ff 1b 00 	and.b	#-17,	&0x001b	;#0xffef
    568e:	f2 f0 df ff 1b 00 	and.b	#-33,	&0x001b	;#0xffdf
    5694:	5f 42 04 11 	mov.b	&0x1104,r15	
    5698:	7f d0 05 00 	bis.b	#5,	r15	;#0x0005
    569c:	c2 4f 70 00 	mov.b	r15,	&0x0070	
    56a0:	d2 42 05 11 71 00 	mov.b	&0x1105,&0x0071	
    56a6:	1f 42 02 11 	mov	&0x1102,r15	
    56aa:	c2 4f 74 00 	mov.b	r15,	&0x0074	
    56ae:	8f 10       	swpb	r15		
    56b0:	c2 4f 75 00 	mov.b	r15,	&0x0075	
    56b4:	c2 4b 73 00 	mov.b	r11,	&0x0073	
    56b8:	e2 d3 1b 00 	bis.b	#2,	&0x001b	;r3 As==10
    56bc:	e2 d2 1b 00 	bis.b	#4,	&0x001b	;r2 As==10
    56c0:	f2 d2 1b 00 	bis.b	#8,	&0x001b	;r2 As==11
    56c4:	f2 d0 40 00 04 00 	bis.b	#64,	&0x0004	;#0x0040
    56ca:	4f 4b       	mov.b	r11,	r15	
    56cc:	b0 12 b4 45 	call	#0x45b4	
    56d0:	f2 f0 3f 00 02 00 	and.b	#63,	&0x0002	;#0x003f
    56d6:	f2 f0 3f 00 00 00 	and.b	#63,	&0x0000	;#0x003f
    56dc:	4f 4a       	mov.b	r10,	r15	
    56de:	b0 12 7a 4c 	call	#0x4c7a	
    56e2:	3a 41       	pop	r10		
    56e4:	3b 41       	pop	r11		
    56e6:	30 41       	ret			

000056e8 <StateImplP__State__requestState.clone.122>:
    56e8:	0b 12       	push	r11		
    56ea:	4b 4f       	mov.b	r15,	r11	
    56ec:	b0 12 66 4c 	call	#0x4c66	
    56f0:	4e 4b       	mov.b	r11,	r14	
    56f2:	3e 50 40 1c 	add	#7232,	r14	;#0x1c40
    56f6:	ce 93 00 00 	tst.b	0(r14)		;0x0000(r14)
    56fa:	04 20       	jnz	$+10     	;abs 0x5704
    56fc:	de 43 00 00 	mov.b	#1,	0(r14)	;r3 As==01, 0x0000(r14)
    5700:	4b 43       	clr.b	r11		
    5702:	01 3c       	jmp	$+4      	;abs 0x5706
    5704:	5b 43       	mov.b	#1,	r11	;r3 As==01
    5706:	b0 12 7a 4c 	call	#0x4c7a	
    570a:	4f 4b       	mov.b	r11,	r15	
    570c:	3b 41       	pop	r11		
    570e:	30 41       	ret			

00005710 <CC2420SpiP__Resource__request>:
    5710:	0b 12       	push	r11		
    5712:	0a 12       	push	r10		
    5714:	09 12       	push	r9		
    5716:	4b 4f       	mov.b	r15,	r11	
    5718:	b0 12 66 4c 	call	#0x4c66	
    571c:	49 4f       	mov.b	r15,	r9	
    571e:	4f 43       	clr.b	r15		
    5720:	b0 12 e8 56 	call	#0x56e8	
    5724:	4a 4f       	mov.b	r15,	r10	
    5726:	4f 93       	tst.b	r15		
    5728:	2b 20       	jnz	$+88     	;abs 0x5780
    572a:	c2 4b d7 18 	mov.b	r11,	&0x18d7	
    572e:	b0 12 9a 45 	call	#0x459a	
    5732:	4f 9a       	cmp.b	r10,	r15	
    5734:	05 24       	jz	$+12     	;abs 0x5740
    5736:	7f 40 05 00 	mov.b	#5,	r15	;#0x0005
    573a:	b0 12 90 4d 	call	#0x4d90	
    573e:	29 3c       	jmp	$+84     	;abs 0x5792
    5740:	c2 9f f0 18 	cmp.b	r15,	&0x18f0	
    5744:	07 20       	jnz	$+16     	;abs 0x5754
    5746:	d2 43 f0 18 	mov.b	#1,	&0x18f0	;r3 As==01
    574a:	c2 4f 58 1c 	mov.b	r15,	&0x1c58	
    574e:	b0 12 5a 4e 	call	#0x4e5a	
    5752:	1f 3c       	jmp	$+64     	;abs 0x5792
    5754:	c2 9f 58 1c 	cmp.b	r15,	&0x1c58	
    5758:	1c 24       	jz	$+58     	;abs 0x5792
    575a:	f2 93 08 1c 	cmp.b	#-1,	&0x1c08	;r3 As==11
    575e:	19 20       	jnz	$+52     	;abs 0x5792
    5760:	c2 9f d9 18 	cmp.b	r15,	&0x18d9	
    5764:	16 24       	jz	$+46     	;abs 0x5792
    5766:	f2 93 d8 18 	cmp.b	#-1,	&0x18d8	;r3 As==11
    576a:	03 20       	jnz	$+8      	;abs 0x5772
    576c:	c2 4f d8 18 	mov.b	r15,	&0x18d8	
    5770:	04 3c       	jmp	$+10     	;abs 0x577a
    5772:	5d 42 d9 18 	mov.b	&0x18d9,r13	
    5776:	cd 4f 08 1c 	mov.b	r15,	7176(r13);0x1c08(r13)
    577a:	c2 43 d9 18 	mov.b	#0,	&0x18d9	;r3 As==00
    577e:	09 3c       	jmp	$+20     	;abs 0x5792
    5780:	1e 43       	mov	#1,	r14	;r3 As==01
    5782:	4d 4b       	mov.b	r11,	r13	
    5784:	0d 93       	tst	r13		
    5786:	03 24       	jz	$+8      	;abs 0x578e
    5788:	0e 5e       	rla	r14		
    578a:	1d 83       	dec	r13		
    578c:	fd 23       	jnz	$-4      	;abs 0x5788
    578e:	c2 de ee 18 	bis.b	r14,	&0x18ee	
    5792:	4f 49       	mov.b	r9,	r15	
    5794:	b0 12 7a 4c 	call	#0x4c7a	
    5798:	4f 43       	clr.b	r15		
    579a:	39 41       	pop	r9		
    579c:	3a 41       	pop	r10		
    579e:	3b 41       	pop	r11		
    57a0:	30 41       	ret			

000057a2 <CC2420SpiP__Resource__immediateRequest>:
    57a2:	0b 12       	push	r11		
    57a4:	0a 12       	push	r10		
    57a6:	09 12       	push	r9		
    57a8:	08 12       	push	r8		
    57aa:	48 4f       	mov.b	r15,	r8	
    57ac:	b0 12 66 4c 	call	#0x4c66	
    57b0:	49 4f       	mov.b	r15,	r9	
    57b2:	4f 43       	clr.b	r15		
    57b4:	b0 12 e8 56 	call	#0x56e8	
    57b8:	4a 4f       	mov.b	r15,	r10	
    57ba:	4f 93       	tst.b	r15		
    57bc:	06 24       	jz	$+14     	;abs 0x57ca
    57be:	4f 49       	mov.b	r9,	r15	
    57c0:	b0 12 7a 4c 	call	#0x4c7a	
    57c4:	7f 40 05 00 	mov.b	#5,	r15	;#0x0005
    57c8:	25 3c       	jmp	$+76     	;abs 0x5814
    57ca:	b0 12 9a 45 	call	#0x459a	
    57ce:	4b 4f       	mov.b	r15,	r11	
    57d0:	4f 9a       	cmp.b	r10,	r15	
    57d2:	04 24       	jz	$+10     	;abs 0x57dc
    57d4:	c2 48 d7 18 	mov.b	r8,	&0x18d7	
    57d8:	4b 4a       	mov.b	r10,	r11	
    57da:	18 3c       	jmp	$+50     	;abs 0x580c
    57dc:	c2 9f f0 18 	cmp.b	r15,	&0x18f0	
    57e0:	11 20       	jnz	$+36     	;abs 0x5804
    57e2:	e2 43 f0 18 	mov.b	#2,	&0x18f0	;r3 As==10
    57e6:	c2 4f 58 1c 	mov.b	r15,	&0x1c58	
    57ea:	b0 12 5a 4e 	call	#0x4e5a	
    57ee:	c2 9b da 18 	cmp.b	r11,	&0x18da	
    57f2:	06 20       	jnz	$+14     	;abs 0x5800
    57f4:	4f 4b       	mov.b	r11,	r15	
    57f6:	b0 12 60 56 	call	#0x5660	
    57fa:	c2 48 d7 18 	mov.b	r8,	&0x18d7	
    57fe:	06 3c       	jmp	$+14     	;abs 0x580c
    5800:	c2 4b f0 18 	mov.b	r11,	&0x18f0	
    5804:	4f 43       	clr.b	r15		
    5806:	b0 12 5e 4f 	call	#0x4f5e	
    580a:	5b 43       	mov.b	#1,	r11	;r3 As==01
    580c:	4f 49       	mov.b	r9,	r15	
    580e:	b0 12 7a 4c 	call	#0x4c7a	
    5812:	4f 4b       	mov.b	r11,	r15	
    5814:	38 41       	pop	r8		
    5816:	39 41       	pop	r9		
    5818:	3a 41       	pop	r10		
    581a:	3b 41       	pop	r11		
    581c:	30 41       	ret			

0000581e <CC2420ReceiveP__beginReceive>:
    581e:	a2 43 aa 1b 	mov	#2,	&0x1baa	;r3 As==10
    5822:	d2 43 ec 1b 	mov.b	#1,	&0x1bec	;r3 As==01
    5826:	e2 92 d7 18 	cmp.b	#4,	&0x18d7	;r2 As==10
    582a:	05 24       	jz	$+12     	;abs 0x5836
    582c:	6f 42       	mov.b	#4,	r15	;r2 As==10
    582e:	b0 12 a2 57 	call	#0x57a2	
    5832:	4f 93       	tst.b	r15		
    5834:	03 20       	jnz	$+8      	;abs 0x583c
    5836:	b0 12 1a 4f 	call	#0x4f1a	
    583a:	30 41       	ret			
    583c:	6f 42       	mov.b	#4,	r15	;r2 As==10
    583e:	b0 12 10 57 	call	#0x5710	
    5842:	30 41       	ret			

00005844 <CC2420ReceiveP__waitForNextPacket>:
    5844:	0b 12       	push	r11		
    5846:	b0 12 66 4c 	call	#0x4c66	
    584a:	4b 4f       	mov.b	r15,	r11	
    584c:	82 93 aa 1b 	tst	&0x1baa	
    5850:	19 24       	jz	$+52     	;abs 0x5884
    5852:	c2 43 ec 1b 	mov.b	#0,	&0x1bec	;r3 As==00
    5856:	5e 42 e5 1b 	mov.b	&0x1be5,r14	
    585a:	4e 93       	tst.b	r14		
    585c:	03 24       	jz	$+8      	;abs 0x5864
    585e:	f2 b2 20 00 	bit.b	#8,	&0x0020	;r2 As==11
    5862:	06 20       	jnz	$+14     	;abs 0x5870
    5864:	5f 42 20 00 	mov.b	&0x0020,r15	
    5868:	5f f3       	and.b	#1,	r15	;r3 As==01
    586a:	08 20       	jnz	$+18     	;abs 0x587c
    586c:	4e 9f       	cmp.b	r15,	r14	
    586e:	03 24       	jz	$+8      	;abs 0x5876
    5870:	7e 53       	add.b	#-1,	r14	;r3 As==11
    5872:	c2 4e e5 1b 	mov.b	r14,	&0x1be5	
    5876:	b0 12 1e 58 	call	#0x581e	
    587a:	06 3c       	jmp	$+14     	;abs 0x5888
    587c:	92 43 aa 1b 	mov	#1,	&0x1baa	;r3 As==01
    5880:	c2 43 e5 1b 	mov.b	#0,	&0x1be5	;r3 As==00
    5884:	b0 12 1e 50 	call	#0x501e	
    5888:	4f 4b       	mov.b	r11,	r15	
    588a:	b0 12 7a 4c 	call	#0x4c7a	
    588e:	3b 41       	pop	r11		
    5890:	30 41       	ret			

00005892 <CC2420ReceiveP__flush>:
    5892:	b0 12 92 4a 	call	#0x4a92	
    5896:	b0 12 74 4f 	call	#0x4f74	
    589a:	b0 12 80 4d 	call	#0x4d80	
    589e:	7f 42       	mov.b	#8,	r15	;r2 As==11
    58a0:	b0 12 12 4d 	call	#0x4d12	
    58a4:	7f 42       	mov.b	#8,	r15	;r2 As==11
    58a6:	b0 12 12 4d 	call	#0x4d12	
    58aa:	b0 12 74 4f 	call	#0x4f74	
    58ae:	b0 12 1e 50 	call	#0x501e	
    58b2:	b0 12 44 58 	call	#0x5844	
    58b6:	30 41       	ret			

000058b8 <Msp430SpiNoDmaP__0__signalDone>:
    58b8:	0b 12       	push	r11		
    58ba:	0a 12       	push	r10		
    58bc:	09 12       	push	r9		
    58be:	08 12       	push	r8		
    58c0:	1a 42 3a 1c 	mov	&0x1c3a,r10	
    58c4:	5c 42 10 1c 	mov.b	&0x1c10,r12	
    58c8:	4c 93       	tst.b	r12		
    58ca:	02 24       	jz	$+6      	;abs 0x58d0
    58cc:	30 40 78 5b 	br	#0x5b78	
    58d0:	1e 42 12 1c 	mov	&0x1c12,r14	
    58d4:	09 4e       	mov	r14,	r9	
    58d6:	39 f0 40 00 	and	#64,	r9	;#0x0040
    58da:	02 20       	jnz	$+6      	;abs 0x58e0
    58dc:	30 40 14 5b 	br	#0x5b14	
    58e0:	7e f0 bf ff 	and.b	#-65,	r14	;#0xffbf
    58e4:	7e 90 3f 00 	cmp.b	#63,	r14	;#0x003f
    58e8:	02 24       	jz	$+6      	;abs 0x58ee
    58ea:	30 40 78 5b 	br	#0x5b78	
    58ee:	1b 42 06 19 	mov	&0x1906,r11	
    58f2:	6d 4b       	mov.b	@r11,	r13	
    58f4:	c2 4d ac 1b 	mov.b	r13,	&0x1bac	
    58f8:	1f 42 aa 1b 	mov	&0x1baa,r15	
    58fc:	3f 90 05 00 	cmp	#5,	r15	;#0x0005
    5900:	3e 24       	jz	$+126    	;abs 0x597e
    5902:	3f 90 06 00 	cmp	#6,	r15	;#0x0006
    5906:	80 24       	jz	$+258    	;abs 0x5a08
    5908:	2f 93       	cmp	#2,	r15	;r3 As==10
    590a:	02 24       	jz	$+6      	;abs 0x5910
    590c:	30 40 06 5b 	br	#0x5b06	
    5910:	b2 40 05 00 aa 1b 	mov	#5,	&0x1baa	;#0x0005
    5916:	5f 42 5e 1a 	mov.b	&0x1a5e,r15	
    591a:	4c 4d       	mov.b	r13,	r12	
    591c:	4e 4f       	mov.b	r15,	r14	
    591e:	0c 9e       	cmp	r14,	r12	
    5920:	2a 34       	jge	$+86     	;abs 0x5976
    5922:	5e 42 20 00 	mov.b	&0x0020,r14	
    5926:	7e f2       	and.b	#8,	r14	;r2 As==11
    5928:	0a 20       	jnz	$+22     	;abs 0x593e
    592a:	5c 42 20 00 	mov.b	&0x0020,r12	
    592e:	5c f3       	and.b	#1,	r12	;r3 As==01
    5930:	4c 9e       	cmp.b	r14,	r12	
    5932:	05 20       	jnz	$+12     	;abs 0x593e
    5934:	4e 4d       	mov.b	r13,	r14	
    5936:	7e e3       	xor.b	#-1,	r14	;r3 As==11
    5938:	4e 5f       	add.b	r15,	r14	
    593a:	c2 4e 5e 1a 	mov.b	r14,	&0x1a5e	
    593e:	7d 90 2a 00 	cmp.b	#42,	r13	;#0x002a
    5942:	19 2c       	jc	$+52     	;abs 0x5976
    5944:	4d 93       	tst.b	r13		
    5946:	10 24       	jz	$+34     	;abs 0x5968
    5948:	0e 4b       	mov	r11,	r14	
    594a:	1e 53       	inc	r14		
    594c:	7d 92       	cmp.b	#8,	r13	;r2 As==11
    594e:	03 28       	jnc	$+8      	;abs 0x5956
    5950:	3d 40 07 00 	mov	#7,	r13	;#0x0007
    5954:	04 3c       	jmp	$+10     	;abs 0x595e
    5956:	b2 40 06 00 aa 1b 	mov	#6,	&0x1baa	;#0x0006
    595c:	4d 4d       	mov.b	r13,	r13	
    595e:	0f 43       	clr	r15		
    5960:	b0 12 90 4e 	call	#0x4e90	
    5964:	30 40 78 5b 	br	#0x5b78	
    5968:	c2 4d ec 1b 	mov.b	r13,	&0x1bec	
    596c:	b0 12 74 4f 	call	#0x4f74	
    5970:	b0 12 1e 50 	call	#0x501e	
    5974:	c5 3c       	jmp	$+396    	;abs 0x5b00
    5976:	b0 12 92 58 	call	#0x5892	
    597a:	30 40 78 5b 	br	#0x5b78	
    597e:	b2 40 06 00 aa 1b 	mov	#6,	&0x1baa	;#0x0006
    5984:	c2 93 f4 1b 	tst.b	&0x1bf4	
    5988:	37 24       	jz	$+112    	;abs 0x59f8
    598a:	c2 93 4e 1c 	tst.b	&0x1c4e	
    598e:	34 20       	jnz	$+106    	;abs 0x59f8
    5990:	09 4b       	mov	r11,	r9	
    5992:	19 53       	inc	r9		
    5994:	0f 49       	mov	r9,	r15	
    5996:	b0 12 c6 45 	call	#0x45c6	
    599a:	3f f0 20 00 	and	#32,	r15	;#0x0020
    599e:	2c 24       	jz	$+90     	;abs 0x59f8
    59a0:	0a 4b       	mov	r11,	r10	
    59a2:	3a 50 06 00 	add	#6,	r10	;#0x0006
    59a6:	0f 4a       	mov	r10,	r15	
    59a8:	b0 12 c6 45 	call	#0x45c6	
    59ac:	08 4f       	mov	r15,	r8	
    59ae:	b0 12 6c 4d 	call	#0x4d6c	
    59b2:	08 9f       	cmp	r15,	r8	
    59b4:	05 24       	jz	$+12     	;abs 0x59c0
    59b6:	0f 4a       	mov	r10,	r15	
    59b8:	b0 12 c6 45 	call	#0x45c6	
    59bc:	3f 93       	cmp	#-1,	r15	;r3 As==11
    59be:	1c 20       	jnz	$+58     	;abs 0x59f8
    59c0:	0f 49       	mov	r9,	r15	
    59c2:	b0 12 c6 45 	call	#0x45c6	
    59c6:	3f f0 07 00 	and	#7,	r15	;#0x0007
    59ca:	1f 93       	cmp	#1,	r15	;r3 As==01
    59cc:	15 20       	jnz	$+44     	;abs 0x59f8
    59ce:	b0 12 74 4f 	call	#0x4f74	
    59d2:	b0 12 80 4d 	call	#0x4d80	
    59d6:	7f 40 0a 00 	mov.b	#10,	r15	;#0x000a
    59da:	b0 12 12 4d 	call	#0x4d12	
    59de:	b0 12 74 4f 	call	#0x4f74	
    59e2:	b0 12 80 4d 	call	#0x4d80	
    59e6:	5e 42 ac 1b 	mov.b	&0x1bac,r14	
    59ea:	7e 50 f9 ff 	add.b	#-7,	r14	;#0xfff9
    59ee:	0f 4b       	mov	r11,	r15	
    59f0:	3f 52       	add	#8,	r15	;r2 As==11
    59f2:	b0 12 ce 4e 	call	#0x4ece	
    59f6:	c0 3c       	jmp	$+386    	;abs 0x5b78
    59f8:	5d 42 ac 1b 	mov.b	&0x1bac,r13	
    59fc:	7d 50 f9 ff 	add.b	#-7,	r13	;#0xfff9
    5a00:	4d 4d       	mov.b	r13,	r13	
    5a02:	0e 4b       	mov	r11,	r14	
    5a04:	3e 52       	add	#8,	r14	;r2 As==11
    5a06:	ab 3f       	jmp	$-168    	;abs 0x595e
    5a08:	b0 12 74 4f 	call	#0x4f74	
    5a0c:	c2 93 e5 1b 	tst.b	&0x1be5	
    5a10:	02 20       	jnz	$+6      	;abs 0x5a16
    5a12:	b0 12 1e 50 	call	#0x501e	
    5a16:	c2 93 e5 1b 	tst.b	&0x1be5	
    5a1a:	03 24       	jz	$+8      	;abs 0x5a22
    5a1c:	f2 b2 20 00 	bit.b	#8,	&0x0020	;r2 As==11
    5a20:	0b 20       	jnz	$+24     	;abs 0x5a38
    5a22:	d2 b3 20 00 	bit.b	#1,	&0x0020	;r3 As==01
    5a26:	08 24       	jz	$+18     	;abs 0x5a38
    5a28:	5f 42 b5 1c 	mov.b	&0x1cb5,r15	
    5a2c:	4f 93       	tst.b	r15		
    5a2e:	04 24       	jz	$+10     	;abs 0x5a38
    5a30:	f2 90 0b 00 ac 1b 	cmp.b	#11,	&0x1bac	;#0x000b
    5a36:	05 2c       	jc	$+12     	;abs 0x5a42
    5a38:	1f 42 06 19 	mov	&0x1906,r15	
    5a3c:	b0 12 8e 47 	call	#0x478e	
    5a40:	25 3c       	jmp	$+76     	;abs 0x5a8c
    5a42:	5f 93       	cmp.b	#1,	r15	;r3 As==01
    5a44:	0e 20       	jnz	$+30     	;abs 0x5a62
    5a46:	5f 42 14 1f 	mov.b	&0x1f14,r15	
    5a4a:	0f 5f       	rla	r15		
    5a4c:	0f 5f       	rla	r15		
    5a4e:	1d 4f 60 1c 	mov	7264(r15),r13	;0x1c60(r15)
    5a52:	1e 4f 62 1c 	mov	7266(r15),r14	;0x1c62(r15)
    5a56:	1f 42 06 19 	mov	&0x1906,r15	
    5a5a:	3f 50 2e 00 	add	#46,	r15	;#0x002e
    5a5e:	b0 12 d2 45 	call	#0x45d2	
    5a62:	5f 42 14 1f 	mov.b	&0x1f14,r15	
    5a66:	1f 53       	inc	r15		
    5a68:	7f f0 07 00 	and.b	#7,	r15	;#0x0007
    5a6c:	c2 4f 14 1f 	mov.b	r15,	&0x1f14	
    5a70:	5f 42 b5 1c 	mov.b	&0x1cb5,r15	
    5a74:	7f 53       	add.b	#-1,	r15	;r3 As==11
    5a76:	c2 4f b5 1c 	mov.b	r15,	&0x1cb5	
    5a7a:	08 24       	jz	$+18     	;abs 0x5a8c
    5a7c:	1f 42 06 19 	mov	&0x1906,r15	
    5a80:	b0 12 8e 47 	call	#0x478e	
    5a84:	c2 43 14 1f 	mov.b	#0,	&0x1f14	;r3 As==00
    5a88:	c2 43 b5 1c 	mov.b	#0,	&0x1cb5	;r3 As==00
    5a8c:	5f 42 ac 1b 	mov.b	&0x1bac,r15	
    5a90:	0f 5b       	add	r11,	r15	
    5a92:	cf 93 00 00 	tst.b	0(r15)		;0x0000(r15)
    5a96:	34 34       	jge	$+106    	;abs 0x5b00
    5a98:	0a 93       	tst	r10		
    5a9a:	32 24       	jz	$+102    	;abs 0x5b00
    5a9c:	0f 4b       	mov	r11,	r15	
    5a9e:	1f 53       	inc	r15		
    5aa0:	b0 12 c6 45 	call	#0x45c6	
    5aa4:	7f f0 07 00 	and.b	#7,	r15	;#0x0007
    5aa8:	1b 42 06 19 	mov	&0x1906,r11	
    5aac:	6f 93       	cmp.b	#2,	r15	;r3 As==10
    5aae:	22 20       	jnz	$+70     	;abs 0x5af4
    5ab0:	1f 42 f6 1b 	mov	&0x1bf6,r15	
    5ab4:	0f 93       	tst	r15		
    5ab6:	24 24       	jz	$+74     	;abs 0x5b00
    5ab8:	b2 90 07 00 fe 18 	cmp	#7,	&0x18fe	;#0x0007
    5abe:	20 20       	jnz	$+66     	;abs 0x5b00
    5ac0:	df 9b 03 00 03 00 	cmp.b	3(r11),	3(r15)	;0x0003(r11), 0x0003(r15)
    5ac6:	1c 20       	jnz	$+58     	;abs 0x5b00
    5ac8:	b0 12 30 45 	call	#0x4530	
    5acc:	1f 42 f6 1b 	mov	&0x1bf6,r15	
    5ad0:	3f 50 28 00 	add	#40,	r15	;#0x0028
    5ad4:	6e 4b       	mov.b	@r11,	r14	
    5ad6:	df 43 04 00 	mov.b	#1,	4(r15)	;r3 As==01, 0x0004(r15)
    5ada:	0e 5b       	add	r11,	r14	
    5adc:	df 4e ff ff 00 00 	mov.b	-1(r14),0(r15)	;0xffff(r14), 0x0000(r15)
    5ae2:	6e 4e       	mov.b	@r14,	r14	
    5ae4:	7e f0 7f 00 	and.b	#127,	r14	;#0x007f
    5ae8:	cf 4e 01 00 	mov.b	r14,	1(r15)	;0x0001(r15)
    5aec:	4f 43       	clr.b	r15		
    5aee:	b0 12 44 4f 	call	#0x4f44	
    5af2:	06 3c       	jmp	$+14     	;abs 0x5b00
    5af4:	5f 93       	cmp.b	#1,	r15	;r3 As==01
    5af6:	04 20       	jnz	$+10     	;abs 0x5b00
    5af8:	7f 42       	mov.b	#8,	r15	;r2 As==11
    5afa:	b0 12 90 4d 	call	#0x4d90	
    5afe:	3c 3c       	jmp	$+122    	;abs 0x5b78
    5b00:	b0 12 44 58 	call	#0x5844	
    5b04:	39 3c       	jmp	$+116    	;abs 0x5b78
    5b06:	c2 4c ec 1b 	mov.b	r12,	&0x1bec	
    5b0a:	b0 12 74 4f 	call	#0x4f74	
    5b0e:	b0 12 1e 50 	call	#0x501e	
    5b12:	32 3c       	jmp	$+102    	;abs 0x5b78
    5b14:	7e 90 3e 00 	cmp.b	#62,	r14	;#0x003e
    5b18:	2f 20       	jnz	$+96     	;abs 0x5b78
    5b1a:	b0 12 74 4f 	call	#0x4f74	
    5b1e:	b2 92 fe 18 	cmp	#8,	&0x18fe	;r2 As==11
    5b22:	0f 20       	jnz	$+32     	;abs 0x5b42
    5b24:	b0 12 80 4d 	call	#0x4d80	
    5b28:	b0 12 42 4d 	call	#0x4d42	
    5b2c:	b0 12 74 4f 	call	#0x4f74	
    5b30:	b0 12 26 50 	call	#0x5026	
    5b34:	92 43 fe 18 	mov	#1,	&0x18fe	;r3 As==01
    5b38:	7f 40 03 00 	mov.b	#3,	r15	;#0x0003
    5b3c:	b0 12 2a 4f 	call	#0x4f2a	
    5b40:	1b 3c       	jmp	$+56     	;abs 0x5b78
    5b42:	c2 93 5c 1f 	tst.b	&0x1f5c	
    5b46:	05 20       	jnz	$+12     	;abs 0x5b52
    5b48:	a2 42 fe 18 	mov	#4,	&0x18fe	;r2 As==10
    5b4c:	b0 12 cc 51 	call	#0x51cc	
    5b50:	13 3c       	jmp	$+40     	;abs 0x5b78
    5b52:	b0 12 26 50 	call	#0x5026	
    5b56:	b2 40 03 00 fe 18 	mov	#3,	&0x18fe	;#0x0003
    5b5c:	b0 12 38 45 	call	#0x4538	
    5b60:	0c 4f       	mov	r15,	r12	
    5b62:	3a 40 36 01 	mov	#310,	r10	;#0x0136
    5b66:	b0 12 40 75 	call	#0x7540	
    5b6a:	3e 50 0b 00 	add	#11,	r14	;#0x000b
    5b6e:	82 4e 52 1a 	mov	r14,	&0x1a52	
    5b72:	0f 49       	mov	r9,	r15	
    5b74:	b0 12 52 51 	call	#0x5152	
    5b78:	38 41       	pop	r8		
    5b7a:	39 41       	pop	r9		
    5b7c:	3a 41       	pop	r10		
    5b7e:	3b 41       	pop	r11		
    5b80:	30 41       	ret			

00005b82 <CC2420TransmitP__acquireSpiResource>:
    5b82:	0b 12       	push	r11		
    5b84:	7f 40 03 00 	mov.b	#3,	r15	;#0x0003
    5b88:	b0 12 a2 57 	call	#0x57a2	
    5b8c:	4b 4f       	mov.b	r15,	r11	
    5b8e:	4f 93       	tst.b	r15		
    5b90:	04 24       	jz	$+10     	;abs 0x5b9a
    5b92:	7f 40 03 00 	mov.b	#3,	r15	;#0x0003
    5b96:	b0 12 10 57 	call	#0x5710	
    5b9a:	4f 4b       	mov.b	r11,	r15	
    5b9c:	3b 41       	pop	r11		
    5b9e:	30 41       	ret			

00005ba0 <Msp430TimerP__1__Event__fired>:
    5ba0:	0b 12       	push	r11		
    5ba2:	0a 12       	push	r10		
    5ba4:	09 12       	push	r9		
    5ba6:	08 12       	push	r8		
    5ba8:	07 12       	push	r7		
    5baa:	7f 92       	cmp.b	#8,	r15	;r2 As==11
    5bac:	02 28       	jnc	$+6      	;abs 0x5bb2
    5bae:	30 40 96 5e 	br	#0x5e96	
    5bb2:	4f 4f       	mov.b	r15,	r15	
    5bb4:	0f 5f       	rla	r15		
    5bb6:	10 4f ba 5b 	br	23482(r15)	;0x5bba(r15)
    5bba:	ca 5b 78 5c 	add.b	r11,	23672(r10);0x5c78(r10)
    5bbe:	1a 5e 4a 5e 	add	24138(r14),r10	;0x5e4a(r14)
    5bc2:	5a 5e 6a 5e 	add.b	24170(r14),r10	;0x5e6a(r14)
    5bc6:	7a 5e       	add.b	@r14+,	r10	
    5bc8:	8a 5e 1f 42 	add	r14,	16927(r10);0x421f(r10)
    5bcc:	82 01       	.word	0x0182;	????	
    5bce:	8f 10       	swpb	r15		
    5bd0:	5f f3       	and.b	#1,	r15	;r3 As==01
    5bd2:	04 24       	jz	$+10     	;abs 0x5bdc
    5bd4:	1f 42 92 01 	mov	&0x0192,r15	
    5bd8:	30 40 96 5e 	br	#0x5e96	
    5bdc:	b0 12 30 45 	call	#0x4530	
    5be0:	82 93 04 1c 	tst	&0x1c04	
    5be4:	45 20       	jnz	$+140    	;abs 0x5c70
    5be6:	82 93 06 1c 	tst	&0x1c06	
    5bea:	42 20       	jnz	$+134    	;abs 0x5c70
    5bec:	1f 42 fe 18 	mov	&0x18fe,r15	
    5bf0:	3f 50 fd ff 	add	#-3,	r15	;#0xfffd
    5bf4:	3f 90 06 00 	cmp	#6,	r15	;#0x0006
    5bf8:	2b 2c       	jc	$+88     	;abs 0x5c50
    5bfa:	0f 5f       	rla	r15		
    5bfc:	10 4f 00 5c 	br	23552(r15)	;0x5c00(r15)
    5c00:	0c 5c       	rla	r12		
    5c02:	2a 5c       	add	@r12,	r10	
    5c04:	3c 5c       	add	@r12+,	r12	
    5c06:	50 5c 38 5c 	add.b	23608(r12),r0	;0x5c38(r12)
    5c0a:	2a 5c       	add	@r12,	r10	
    5c0c:	f2 b0 10 00 20 00 	bit.b	#16,	&0x0020	;#0x0010
    5c12:	08 24       	jz	$+18     	;abs 0x5c24
    5c14:	a2 42 fe 18 	mov	#4,	&0x18fe	;r2 As==10
    5c18:	3e 40 07 00 	mov	#7,	r14	;#0x0007
    5c1c:	0f 43       	clr	r15		
    5c1e:	b0 12 52 51 	call	#0x5152	
    5c22:	16 3c       	jmp	$+46     	;abs 0x5c50
    5c24:	b0 12 96 51 	call	#0x5196	
    5c28:	13 3c       	jmp	$+40     	;abs 0x5c50
    5c2a:	b0 12 82 5b 	call	#0x5b82	
    5c2e:	4f 93       	tst.b	r15		
    5c30:	0f 20       	jnz	$+32     	;abs 0x5c50
    5c32:	b0 12 cc 51 	call	#0x51cc	
    5c36:	0c 3c       	jmp	$+26     	;abs 0x5c50
    5c38:	4f 43       	clr.b	r15		
    5c3a:	08 3c       	jmp	$+18     	;abs 0x5c4c
    5c3c:	b0 12 42 4d 	call	#0x4d42	
    5c40:	b0 12 86 47 	call	#0x4786	
    5c44:	b0 12 26 50 	call	#0x5026	
    5c48:	7f 40 07 00 	mov.b	#7,	r15	;#0x0007
    5c4c:	b0 12 44 4f 	call	#0x4f44	
    5c50:	92 93 ea 18 	cmp	#1,	&0x18ea	;r3 As==01
    5c54:	02 24       	jz	$+6      	;abs 0x5c5a
    5c56:	30 40 96 5e 	br	#0x5e96	
    5c5a:	a2 43 ea 18 	mov	#2,	&0x18ea	;r3 As==10
    5c5e:	b0 12 02 55 	call	#0x5502	
    5c62:	b0 12 12 55 	call	#0x5512	
    5c66:	4f 43       	clr.b	r15		
    5c68:	b0 12 10 57 	call	#0x5710	
    5c6c:	30 40 96 5e 	br	#0x5e96	
    5c70:	b0 12 72 50 	call	#0x5072	
    5c74:	30 40 96 5e 	br	#0x5e96	
    5c78:	1f 42 84 01 	mov	&0x0184,r15	
    5c7c:	8f 10       	swpb	r15		
    5c7e:	5f f3       	and.b	#1,	r15	;r3 As==01
    5c80:	02 20       	jnz	$+6      	;abs 0x5c86
    5c82:	30 40 96 5e 	br	#0x5e96	
    5c86:	18 42 94 01 	mov	&0x0194,r8	
    5c8a:	b0 12 5c 46 	call	#0x465c	
    5c8e:	b0 12 54 46 	call	#0x4654	
    5c92:	b0 12 32 50 	call	#0x5032	
    5c96:	0a 4e       	mov	r14,	r10	
    5c98:	0b 4f       	mov	r15,	r11	
    5c9a:	0d 4e       	mov	r14,	r13	
    5c9c:	0d 88       	sub	r8,	r13	
    5c9e:	0e 43       	clr	r14		
    5ca0:	0a 8d       	sub	r13,	r10	
    5ca2:	0b 7e       	subc	r14,	r11	
    5ca4:	1f 42 fe 18 	mov	&0x18fe,r15	
    5ca8:	3f 90 05 00 	cmp	#5,	r15	;#0x0005
    5cac:	04 24       	jz	$+10     	;abs 0x5cb6
    5cae:	3f 90 06 00 	cmp	#6,	r15	;#0x0006
    5cb2:	68 20       	jnz	$+210    	;abs 0x5d84
    5cb4:	4c 3c       	jmp	$+154    	;abs 0x5d4e
    5cb6:	b2 40 06 00 fe 18 	mov	#6,	&0x18fe	;#0x0006
    5cbc:	d2 43 eb 1b 	mov.b	#1,	&0x1beb	;r3 As==01
    5cc0:	c2 43 00 19 	mov.b	#0,	&0x1900	;r3 As==00
    5cc4:	6f 43       	mov.b	#2,	r15	;r3 As==10
    5cc6:	b0 12 30 47 	call	#0x4730	
    5cca:	0d 4a       	mov	r10,	r13	
    5ccc:	0e 4b       	mov	r11,	r14	
    5cce:	1f 42 f6 1b 	mov	&0x1bf6,r15	
    5cd2:	3f 50 2e 00 	add	#46,	r15	;#0x002e
    5cd6:	b0 12 d2 45 	call	#0x45d2	
    5cda:	1f 42 f6 1b 	mov	&0x1bf6,r15	
    5cde:	cf 93 2d 00 	tst.b	45(r15)	;0x002d(r15)
    5ce2:	23 24       	jz	$+72     	;abs 0x5d2a
    5ce4:	67 4f       	mov.b	@r15,	r7	
    5ce6:	77 50 fb ff 	add.b	#-5,	r7	;#0xfffb
    5cea:	49 47       	mov.b	r7,	r9	
    5cec:	09 5f       	add	r15,	r9	
    5cee:	0f 49       	mov	r9,	r15	
    5cf0:	b0 12 04 46 	call	#0x4604	
    5cf4:	0d 4e       	mov	r14,	r13	
    5cf6:	0e 4f       	mov	r15,	r14	
    5cf8:	0d 8a       	sub	r10,	r13	
    5cfa:	0e 7b       	subc	r11,	r14	
    5cfc:	0f 49       	mov	r9,	r15	
    5cfe:	b0 12 d2 45 	call	#0x45d2	
    5d02:	b0 12 80 4d 	call	#0x4d80	
    5d06:	6c 42       	mov.b	#4,	r12	;r2 As==10
    5d08:	0d 49       	mov	r9,	r13	
    5d0a:	4e 47       	mov.b	r7,	r14	
    5d0c:	0f 43       	clr	r15		
    5d0e:	b0 12 a4 52 	call	#0x52a4	
    5d12:	b0 12 74 4f 	call	#0x4f74	
    5d16:	0f 49       	mov	r9,	r15	
    5d18:	b0 12 04 46 	call	#0x4604	
    5d1c:	0d 4e       	mov	r14,	r13	
    5d1e:	0e 4f       	mov	r15,	r14	
    5d20:	0d 5a       	add	r10,	r13	
    5d22:	0e 6b       	addc	r11,	r14	
    5d24:	0f 49       	mov	r9,	r15	
    5d26:	b0 12 d2 45 	call	#0x45d2	
    5d2a:	1f 42 f6 1b 	mov	&0x1bf6,r15	
    5d2e:	1f 53       	inc	r15		
    5d30:	b0 12 c6 45 	call	#0x45c6	
    5d34:	3f f0 20 00 	and	#32,	r15	;#0x0020
    5d38:	02 24       	jz	$+6      	;abs 0x5d3e
    5d3a:	d2 43 9a 1b 	mov.b	#1,	&0x1b9a	;r3 As==01
    5d3e:	b0 12 26 50 	call	#0x5026	
    5d42:	b0 12 30 45 	call	#0x4530	
    5d46:	b0 12 46 46 	call	#0x4646	
    5d4a:	4f 93       	tst.b	r15		
    5d4c:	a4 20       	jnz	$+330    	;abs 0x5e96
    5d4e:	c2 43 eb 1b 	mov.b	#0,	&0x1beb	;r3 As==00
    5d52:	b0 12 86 47 	call	#0x4786	
    5d56:	1f 42 f6 1b 	mov	&0x1bf6,r15	
    5d5a:	1f 53       	inc	r15		
    5d5c:	b0 12 c6 45 	call	#0x45c6	
    5d60:	3f f0 20 00 	and	#32,	r15	;#0x0020
    5d64:	09 24       	jz	$+20     	;abs 0x5d78
    5d66:	b2 40 07 00 fe 18 	mov	#7,	&0x18fe	;#0x0007
    5d6c:	3e 40 00 01 	mov	#256,	r14	;#0x0100
    5d70:	0f 43       	clr	r15		
    5d72:	b0 12 52 51 	call	#0x5152	
    5d76:	02 3c       	jmp	$+6      	;abs 0x5d7c
    5d78:	b0 12 44 4f 	call	#0x4f44	
    5d7c:	b0 12 46 46 	call	#0x4646	
    5d80:	4f 93       	tst.b	r15		
    5d82:	89 24       	jz	$+276    	;abs 0x5e96
    5d84:	c2 93 00 19 	tst.b	&0x1900	
    5d88:	26 20       	jnz	$+78     	;abs 0x5dd6
    5d8a:	c2 93 eb 1b 	tst.b	&0x1beb	
    5d8e:	25 20       	jnz	$+76     	;abs 0x5dda
    5d90:	d2 43 eb 1b 	mov.b	#1,	&0x1beb	;r3 As==01
    5d94:	6f 43       	mov.b	#2,	r15	;r3 As==10
    5d96:	b0 12 30 47 	call	#0x4730	
    5d9a:	b0 12 46 46 	call	#0x4646	
    5d9e:	49 4f       	mov.b	r15,	r9	
    5da0:	5f 42 b5 1c 	mov.b	&0x1cb5,r15	
    5da4:	7f 92       	cmp.b	#8,	r15	;r2 As==11
    5da6:	0e 2c       	jc	$+30     	;abs 0x5dc4
    5da8:	4e 4f       	mov.b	r15,	r14	
    5daa:	5e 52 14 1f 	add.b	&0x1f14,r14	
    5dae:	3e f0 07 00 	and	#7,	r14	;#0x0007
    5db2:	0e 5e       	rla	r14		
    5db4:	0e 5e       	rla	r14		
    5db6:	8e 4a 60 1c 	mov	r10,	7264(r14);0x1c60(r14)
    5dba:	8e 4b 62 1c 	mov	r11,	7266(r14);0x1c62(r14)
    5dbe:	5f 53       	inc.b	r15		
    5dc0:	c2 4f b5 1c 	mov.b	r15,	&0x1cb5	
    5dc4:	d2 43 00 19 	mov.b	#1,	&0x1900	;r3 As==01
    5dc8:	82 48 14 1c 	mov	r8,	&0x1c14	
    5dcc:	b0 12 46 46 	call	#0x4646	
    5dd0:	4f 93       	tst.b	r15		
    5dd2:	05 24       	jz	$+12     	;abs 0x5dde
    5dd4:	60 3c       	jmp	$+194    	;abs 0x5e96
    5dd6:	49 43       	clr.b	r9		
    5dd8:	02 3c       	jmp	$+6      	;abs 0x5dde
    5dda:	59 42 00 19 	mov.b	&0x1900,r9	
    5dde:	d2 93 eb 1b 	cmp.b	#1,	&0x1beb	;r3 As==01
    5de2:	59 20       	jnz	$+180    	;abs 0x5e96
    5de4:	c2 43 eb 1b 	mov.b	#0,	&0x1beb	;r3 As==00
    5de8:	b0 12 86 47 	call	#0x4786	
    5dec:	c2 43 00 19 	mov.b	#0,	&0x1900	;r3 As==00
    5df0:	49 93       	tst.b	r9		
    5df2:	51 20       	jnz	$+164    	;abs 0x5e96
    5df4:	18 82 14 1c 	sub	&0x1c14,r8	
    5df8:	38 90 0a 00 	cmp	#10,	r8	;#0x000a
    5dfc:	4c 2c       	jc	$+154    	;abs 0x5e96
    5dfe:	5f 42 b5 1c 	mov.b	&0x1cb5,r15	
    5e02:	4f 93       	tst.b	r15		
    5e04:	03 24       	jz	$+8      	;abs 0x5e0c
    5e06:	7f 53       	add.b	#-1,	r15	;r3 As==11
    5e08:	c2 4f b5 1c 	mov.b	r15,	&0x1cb5	
    5e0c:	1f 42 f6 1b 	mov	&0x1bf6,r15	
    5e10:	0f 93       	tst	r15		
    5e12:	41 24       	jz	$+132    	;abs 0x5e96
    5e14:	b0 12 8e 47 	call	#0x478e	
    5e18:	3e 3c       	jmp	$+126    	;abs 0x5e96
    5e1a:	1f 42 86 01 	mov	&0x0186,r15	
    5e1e:	8f 10       	swpb	r15		
    5e20:	5f f3       	and.b	#1,	r15	;r3 As==01
    5e22:	03 24       	jz	$+8      	;abs 0x5e2a
    5e24:	1f 42 96 01 	mov	&0x0196,r15	
    5e28:	36 3c       	jmp	$+110    	;abs 0x5e96
    5e2a:	b0 12 64 46 	call	#0x4664	
    5e2e:	82 93 e6 1b 	tst	&0x1be6	
    5e32:	08 20       	jnz	$+18     	;abs 0x5e44
    5e34:	82 93 e8 1b 	tst	&0x1be8	
    5e38:	05 20       	jnz	$+12     	;abs 0x5e44
    5e3a:	7f 40 09 00 	mov.b	#9,	r15	;#0x0009
    5e3e:	b0 12 90 4d 	call	#0x4d90	
    5e42:	29 3c       	jmp	$+84     	;abs 0x5e96
    5e44:	b0 12 0e 54 	call	#0x540e	
    5e48:	26 3c       	jmp	$+78     	;abs 0x5e96
    5e4a:	1f 42 88 01 	mov	&0x0188,r15	
    5e4e:	8f 10       	swpb	r15		
    5e50:	5f f3       	and.b	#1,	r15	;r3 As==01
    5e52:	21 24       	jz	$+68     	;abs 0x5e96
    5e54:	1f 42 98 01 	mov	&0x0198,r15	
    5e58:	1e 3c       	jmp	$+62     	;abs 0x5e96
    5e5a:	1f 42 8a 01 	mov	&0x018a,r15	
    5e5e:	8f 10       	swpb	r15		
    5e60:	5f f3       	and.b	#1,	r15	;r3 As==01
    5e62:	19 24       	jz	$+52     	;abs 0x5e96
    5e64:	1f 42 9a 01 	mov	&0x019a,r15	
    5e68:	16 3c       	jmp	$+46     	;abs 0x5e96
    5e6a:	1f 42 8c 01 	mov	&0x018c,r15	
    5e6e:	8f 10       	swpb	r15		
    5e70:	5f f3       	and.b	#1,	r15	;r3 As==01
    5e72:	11 24       	jz	$+36     	;abs 0x5e96
    5e74:	1f 42 9c 01 	mov	&0x019c,r15	
    5e78:	0e 3c       	jmp	$+30     	;abs 0x5e96
    5e7a:	1f 42 8e 01 	mov	&0x018e,r15	
    5e7e:	8f 10       	swpb	r15		
    5e80:	5f f3       	and.b	#1,	r15	;r3 As==01
    5e82:	09 24       	jz	$+20     	;abs 0x5e96
    5e84:	1f 42 9e 01 	mov	&0x019e,r15	
    5e88:	06 3c       	jmp	$+14     	;abs 0x5e96
    5e8a:	92 53 fe 1b 	inc	&0x1bfe	
    5e8e:	82 63 00 1c 	adc	&0x1c00	
    5e92:	92 53 22 1c 	inc	&0x1c22	
    5e96:	37 41       	pop	r7		
    5e98:	38 41       	pop	r8		
    5e9a:	39 41       	pop	r9		
    5e9c:	3a 41       	pop	r10		
    5e9e:	3b 41       	pop	r11		
    5ea0:	30 41       	ret			

00005ea2 <CC2420TinyosNetworkP__ActiveSend__send.clone.102>:
    5ea2:	0b 12       	push	r11		
    5ea4:	0a 12       	push	r10		
    5ea6:	09 12       	push	r9		
    5ea8:	08 12       	push	r8		
    5eaa:	0b 4f       	mov	r15,	r11	
    5eac:	b0 12 66 4c 	call	#0x4c66	
    5eb0:	4a 4f       	mov.b	r15,	r10	
    5eb2:	0f 4b       	mov	r11,	r15	
    5eb4:	b0 12 da 47 	call	#0x47da	
    5eb8:	ff 40 3f 00 00 00 	mov.b	#63,	0(r15)	;#0x003f, 0x0000(r15)
    5ebe:	4f 4a       	mov.b	r10,	r15	
    5ec0:	b0 12 7a 4c 	call	#0x4c7a	
    5ec4:	82 43 1a 1f 	mov	#0,	&0x1f1a	;r3 As==00
    5ec8:	6f 43       	mov.b	#2,	r15	;r3 As==10
    5eca:	b0 12 e8 56 	call	#0x56e8	
    5ece:	4a 4f       	mov.b	r15,	r10	
    5ed0:	4f 93       	tst.b	r15		
    5ed2:	6a 20       	jnz	$+214    	;abs 0x5fa8
    5ed4:	5f 42 5b 1c 	mov.b	&0x1c5b,r15	
    5ed8:	4e 4f       	mov.b	r15,	r14	
    5eda:	5e 53       	inc.b	r14		
    5edc:	c2 4e 5b 1c 	mov.b	r14,	&0x1c5b	
    5ee0:	cb 4f 03 00 	mov.b	r15,	3(r11)	;0x0003(r11)
    5ee4:	b0 12 66 4c 	call	#0x4c66	
    5ee8:	48 4f       	mov.b	r15,	r8	
    5eea:	6f 43       	mov.b	#2,	r15	;r3 As==10
    5eec:	b0 12 4c 4d 	call	#0x4d4c	
    5ef0:	4f 9a       	cmp.b	r10,	r15	
    5ef2:	08 20       	jnz	$+18     	;abs 0x5f04
    5ef4:	4f 48       	mov.b	r8,	r15	
    5ef6:	b0 12 7a 4c 	call	#0x4c7a	
    5efa:	6f 43       	mov.b	#2,	r15	;r3 As==10
    5efc:	b0 12 5e 4f 	call	#0x4f5e	
    5f00:	5a 43       	mov.b	#1,	r10	;r3 As==01
    5f02:	54 3c       	jmp	$+170    	;abs 0x5fac
    5f04:	09 4b       	mov	r11,	r9	
    5f06:	39 50 28 00 	add	#40,	r9	;#0x0028
    5f0a:	6f 42       	mov.b	#4,	r15	;r2 As==10
    5f0c:	b0 12 8a 53 	call	#0x538a	
    5f10:	82 4b 1a 1c 	mov	r11,	&0x1c1a	
    5f14:	4f 48       	mov.b	r8,	r15	
    5f16:	b0 12 7a 4c 	call	#0x4c7a	
    5f1a:	08 4b       	mov	r11,	r8	
    5f1c:	18 53       	inc	r8		
    5f1e:	0f 48       	mov	r8,	r15	
    5f20:	b0 12 c6 45 	call	#0x45c6	
    5f24:	0e 4f       	mov	r15,	r14	
    5f26:	3e f0 20 cc 	and	#-13280,r14	;#0xcc20
    5f2a:	cb 4e 01 00 	mov.b	r14,	1(r11)	;0x0001(r11)
    5f2e:	8e 10       	swpb	r14		
    5f30:	cb 4e 02 00 	mov.b	r14,	2(r11)	;0x0002(r11)
    5f34:	0f 48       	mov	r8,	r15	
    5f36:	b0 12 c6 45 	call	#0x45c6	
    5f3a:	3f d0 41 00 	bis	#65,	r15	;#0x0041
    5f3e:	cb 4f 01 00 	mov.b	r15,	1(r11)	;0x0001(r11)
    5f42:	8f 10       	swpb	r15		
    5f44:	cb 4f 02 00 	mov.b	r15,	2(r11)	;0x0002(r11)
    5f48:	c9 4a 04 00 	mov.b	r10,	4(r9)	;0x0004(r9)
    5f4c:	c9 4a 00 00 	mov.b	r10,	0(r9)	;0x0000(r9)
    5f50:	c9 4a 01 00 	mov.b	r10,	1(r9)	;0x0001(r9)
    5f54:	0d 43       	clr	r13		
    5f56:	3e 40 00 80 	mov	#-32768,r14	;#0x8000
    5f5a:	0f 4b       	mov	r11,	r15	
    5f5c:	3f 50 2e 00 	add	#46,	r15	;#0x002e
    5f60:	b0 12 d2 45 	call	#0x45d2	
    5f64:	d2 43 44 1c 	mov.b	#1,	&0x1c44	;r3 As==01
    5f68:	1b 42 1a 1c 	mov	&0x1c1a,r11	
    5f6c:	b0 12 66 4c 	call	#0x4c66	
    5f70:	1e 42 fe 18 	mov	&0x18fe,r14	
    5f74:	3e 92       	cmp	#8,	r14	;r2 As==11
    5f76:	02 24       	jz	$+6      	;abs 0x5f7c
    5f78:	1e 93       	cmp	#1,	r14	;r3 As==01
    5f7a:	03 24       	jz	$+8      	;abs 0x5f82
    5f7c:	b0 12 7a 4c 	call	#0x4c7a	
    5f80:	15 3c       	jmp	$+44     	;abs 0x5fac
    5f82:	a2 43 fe 18 	mov	#2,	&0x18fe	;r3 As==10
    5f86:	c2 4e 5c 1f 	mov.b	r14,	&0x1f5c	
    5f8a:	82 4b f6 1b 	mov	r11,	&0x1bf6	
    5f8e:	c2 4a 0c 19 	mov.b	r10,	&0x190c	
    5f92:	b0 12 7a 4c 	call	#0x4c7a	
    5f96:	b0 12 82 5b 	call	#0x5b82	
    5f9a:	4b 4f       	mov.b	r15,	r11	
    5f9c:	4f 93       	tst.b	r15		
    5f9e:	06 20       	jnz	$+14     	;abs 0x5fac
    5fa0:	b0 12 22 55 	call	#0x5522	
    5fa4:	4a 4b       	mov.b	r11,	r10	
    5fa6:	02 3c       	jmp	$+6      	;abs 0x5fac
    5fa8:	7a 40 05 00 	mov.b	#5,	r10	;#0x0005
    5fac:	4f 4a       	mov.b	r10,	r15	
    5fae:	38 41       	pop	r8		
    5fb0:	39 41       	pop	r9		
    5fb2:	3a 41       	pop	r10		
    5fb4:	3b 41       	pop	r11		
    5fb6:	30 41       	ret			

00005fb8 <CC2420ActiveMessageP__AMSend__send>:
    5fb8:	0b 12       	push	r11		
    5fba:	0a 12       	push	r10		
    5fbc:	09 12       	push	r9		
    5fbe:	0b 4d       	mov	r13,	r11	
    5fc0:	4a 4c       	mov.b	r12,	r10	
    5fc2:	7c 90 1d 00 	cmp.b	#29,	r12	;#0x001d
    5fc6:	51 2c       	jc	$+164    	;abs 0x606a
    5fc8:	cd 4f 0b 00 	mov.b	r15,	11(r13)	;0x000b(r13)
    5fcc:	0f 4d       	mov	r13,	r15	
    5fce:	3f 50 06 00 	add	#6,	r15	;#0x0006
    5fd2:	cf 4e 00 00 	mov.b	r14,	0(r15)	;0x0000(r15)
    5fd6:	8e 10       	swpb	r14		
    5fd8:	cf 4e 01 00 	mov.b	r14,	1(r15)	;0x0001(r15)
    5fdc:	b0 12 66 4c 	call	#0x4c66	
    5fe0:	19 42 f2 1b 	mov	&0x1bf2,r9	
    5fe4:	b0 12 7a 4c 	call	#0x4c7a	
    5fe8:	0f 4b       	mov	r11,	r15	
    5fea:	2f 52       	add	#4,	r15	;r2 As==10
    5fec:	cf 49 00 00 	mov.b	r9,	0(r15)	;0x0000(r15)
    5ff0:	89 10       	swpb	r9		
    5ff2:	cf 49 01 00 	mov.b	r9,	1(r15)	;0x0001(r15)
    5ff6:	b0 12 76 53 	call	#0x5376	
    5ffa:	0e 4b       	mov	r11,	r14	
    5ffc:	3e 52       	add	#8,	r14	;r2 As==11
    5ffe:	ce 4f 00 00 	mov.b	r15,	0(r14)	;0x0000(r14)
    6002:	8f 10       	swpb	r15		
    6004:	ce 4f 01 00 	mov.b	r15,	1(r14)	;0x0001(r14)
    6008:	0f 4b       	mov	r11,	r15	
    600a:	1f 53       	inc	r15		
    600c:	b0 12 c6 45 	call	#0x45c6	
    6010:	3f d0 40 88 	bis	#-30656,r15	;#0x8840
    6014:	cb 4f 01 00 	mov.b	r15,	1(r11)	;0x0001(r11)
    6018:	8f 10       	swpb	r15		
    601a:	cb 4f 02 00 	mov.b	r15,	2(r11)	;0x0002(r11)
    601e:	4f 4a       	mov.b	r10,	r15	
    6020:	7f 50 0d 00 	add.b	#13,	r15	;#0x000d
    6024:	cb 4f 00 00 	mov.b	r15,	0(r11)	;0x0000(r11)
    6028:	c2 93 df 18 	tst.b	&0x18df	
    602c:	08 24       	jz	$+18     	;abs 0x603e
    602e:	c2 43 df 18 	mov.b	#0,	&0x18df	;r3 As==00
    6032:	0f 4b       	mov	r11,	r15	
    6034:	b0 12 a2 5e 	call	#0x5ea2	
    6038:	4f 93       	tst.b	r15		
    603a:	10 20       	jnz	$+34     	;abs 0x605c
    603c:	1a 3c       	jmp	$+54     	;abs 0x6072
    603e:	c2 4a 18 1c 	mov.b	r10,	&0x1c18	
    6042:	d2 42 df 18 19 1c 	mov.b	&0x18df,&0x1c19	
    6048:	82 4b 04 19 	mov	r11,	&0x1904	
    604c:	7f 40 0b 00 	mov.b	#11,	r15	;#0x000b
    6050:	b0 12 90 4d 	call	#0x4d90	
    6054:	c2 93 df 18 	tst.b	&0x18df	
    6058:	0a 24       	jz	$+22     	;abs 0x606e
    605a:	03 3c       	jmp	$+8      	;abs 0x6062
    605c:	f2 43 df 18 	mov.b	#-1,	&0x18df	;r3 As==11
    6060:	08 3c       	jmp	$+18     	;abs 0x6072
    6062:	c2 43 fc 1b 	mov.b	#0,	&0x1bfc	;r3 As==00
    6066:	4f 43       	clr.b	r15		
    6068:	04 3c       	jmp	$+10     	;abs 0x6072
    606a:	6f 43       	mov.b	#2,	r15	;r3 As==10
    606c:	02 3c       	jmp	$+6      	;abs 0x6072
    606e:	7f 40 09 00 	mov.b	#9,	r15	;#0x0009
    6072:	39 41       	pop	r9		
    6074:	3a 41       	pop	r10		
    6076:	3b 41       	pop	r11		
    6078:	30 41       	ret			

0000607a <AMQueueImplP__0__Send__send>:
    607a:	0b 12       	push	r11		
    607c:	0a 12       	push	r10		
    607e:	09 12       	push	r9		
    6080:	08 12       	push	r8		
    6082:	07 12       	push	r7		
    6084:	49 4f       	mov.b	r15,	r9	
    6086:	0a 4e       	mov	r14,	r10	
    6088:	48 4d       	mov.b	r13,	r8	
    608a:	5e 43       	mov.b	#1,	r14	;r3 As==01
    608c:	4e 9f       	cmp.b	r15,	r14	
    608e:	27 28       	jnc	$+80     	;abs 0x60de
    6090:	4b 4f       	mov.b	r15,	r11	
    6092:	0b 5b       	rla	r11		
    6094:	3b 50 1e 1c 	add	#7198,	r11	;#0x1c1e
    6098:	8b 93 00 00 	tst	0(r11)		;0x0000(r11)
    609c:	22 20       	jnz	$+70     	;abs 0x60e2
    609e:	8b 4a 00 00 	mov	r10,	0(r11)	;0x0000(r11)
    60a2:	4f 4d       	mov.b	r13,	r15	
    60a4:	7f 50 0d 00 	add.b	#13,	r15	;#0x000d
    60a8:	ca 4f 00 00 	mov.b	r15,	0(r10)	;0x0000(r10)
    60ac:	5e 92 e2 18 	cmp.b	&0x18e2,r14	
    60b0:	1b 2c       	jc	$+56     	;abs 0x60e8
    60b2:	57 4a 0b 00 	mov.b	11(r10),r7	;0x000b(r10)
    60b6:	0f 4a       	mov	r10,	r15	
    60b8:	3f 50 06 00 	add	#6,	r15	;#0x0006
    60bc:	b0 12 c6 45 	call	#0x45c6	
    60c0:	c2 49 e2 18 	mov.b	r9,	&0x18e2	
    60c4:	4c 48       	mov.b	r8,	r12	
    60c6:	0d 4a       	mov	r10,	r13	
    60c8:	0e 4f       	mov	r15,	r14	
    60ca:	4f 47       	mov.b	r7,	r15	
    60cc:	b0 12 b8 5f 	call	#0x5fb8	
    60d0:	4f 93       	tst.b	r15		
    60d2:	0b 24       	jz	$+24     	;abs 0x60ea
    60d4:	e2 43 e2 18 	mov.b	#2,	&0x18e2	;r3 As==10
    60d8:	8b 43 00 00 	mov	#0,	0(r11)	;r3 As==00, 0x0000(r11)
    60dc:	06 3c       	jmp	$+14     	;abs 0x60ea
    60de:	4f 4e       	mov.b	r14,	r15	
    60e0:	04 3c       	jmp	$+10     	;abs 0x60ea
    60e2:	7f 40 05 00 	mov.b	#5,	r15	;#0x0005
    60e6:	01 3c       	jmp	$+4      	;abs 0x60ea
    60e8:	4f 43       	clr.b	r15		
    60ea:	37 41       	pop	r7		
    60ec:	38 41       	pop	r8		
    60ee:	39 41       	pop	r9		
    60f0:	3a 41       	pop	r10		
    60f2:	3b 41       	pop	r11		
    60f4:	30 41       	ret			

000060f6 <SenderC__DQICalculate>:
    60f6:	0b 12       	push	r11		
    60f8:	0a 12       	push	r10		
    60fa:	09 12       	push	r9		
    60fc:	08 12       	push	r8		
    60fe:	07 12       	push	r7		
    6100:	06 12       	push	r6		
    6102:	05 12       	push	r5		
    6104:	04 12       	push	r4		
    6106:	04 41       	mov	r1,	r4	
    6108:	34 50 10 00 	add	#16,	r4	;#0x0010
    610c:	31 50 e0 ff 	add	#-32,	r1	;#0xffe0
    6110:	84 41 ea ff 	mov	r1,	-22(r4)	;0xffea(r4)
    6114:	1d 42 5e 1f 	mov	&0x1f5e,r13	
    6118:	1d 53       	inc	r13		
    611a:	84 4d d6 ff 	mov	r13,	-42(r4)	;0xffd6(r4)
    611e:	0f 4d       	mov	r13,	r15	
    6120:	0f 5f       	rla	r15		
    6122:	0f 5f       	rla	r15		
    6124:	0f 5d       	add	r13,	r15	
    6126:	0f 5f       	rla	r15		
    6128:	2f 53       	incd	r15		
    612a:	01 8f       	sub	r15,	r1	
    612c:	84 41 dc ff 	mov	r1,	-36(r4)	;0xffdc(r4)
    6130:	0e 43       	clr	r14		
    6132:	1e 3c       	jmp	$+62     	;abs 0x6170
    6134:	8f 43 00 00 	mov	#0,	0(r15)	;r3 As==00, 0x0000(r15)
    6138:	7d 53       	add.b	#-1,	r13	;r3 As==11
    613a:	2f 53       	incd	r15		
    613c:	4d 93       	tst.b	r13		
    613e:	fa 23       	jnz	$-10     	;abs 0x6134
    6140:	1e 53       	inc	r14		
    6142:	3e 90 05 00 	cmp	#5,	r14	;#0x0005
    6146:	14 20       	jnz	$+42     	;abs 0x6170
    6148:	1e 42 ee 1b 	mov	&0x1bee,r14	
    614c:	1e 82 3c 1c 	sub	&0x1c3c,r14	
    6150:	84 4e e0 ff 	mov	r14,	-32(r4)	;0xffe0(r4)
    6154:	94 54 e0 ff e0 ff 	rla	-32(r4)	;0xffe0(r4)
    615a:	b4 40 54 1a e8 ff 	mov	#6740,	-24(r4)	;#0x1a54, 0xffe8(r4)
    6160:	b4 40 54 1a da ff 	mov	#6740,	-38(r4)	;#0x1a54, 0xffda(r4)
    6166:	84 43 d0 ff 	mov	#0,	-48(r4)	;r3 As==00, 0xffd0(r4)
    616a:	16 44 d0 ff 	mov	-48(r4),r6	;0xffd0(r4)
    616e:	c4 3c       	jmp	$+394    	;abs 0x62f8
    6170:	02 12       	push	r2		
    6172:	32 c2       	dint			
    6174:	03 43       	nop			
    6176:	82 4e 32 01 	mov	r14,	&0x0132	
    617a:	92 44 d6 ff 38 01 	mov	-42(r4),&0x0138	;0xffd6(r4)
    6180:	1f 42 3a 01 	mov	&0x013a,r15	
    6184:	32 41       	pop	r2		
    6186:	0f 5f       	rla	r15		
    6188:	1f 54 dc ff 	add	-36(r4),r15	;0xffdc(r4)
    618c:	7d 40 65 00 	mov.b	#101,	r13	;#0x0065
    6190:	d1 3f       	jmp	$-92     	;abs 0x6134
    6192:	1f 44 d8 ff 	mov	-40(r4),r15	;0xffd8(r4)
    6196:	cf 93 00 00 	tst.b	0(r15)		;0x0000(r15)
    619a:	9b 20       	jnz	$+312    	;abs 0x62d2
    619c:	1d 44 d4 ff 	mov	-44(r4),r13	;0xffd4(r4)
    61a0:	9d 4f 02 00 00 00 	mov	2(r15),	0(r13)	;0x0002(r15), 0x0000(r13)
    61a6:	16 94 d2 ff 	cmp	-46(r4),r6	;0xffd2(r4)
    61aa:	91 24       	jz	$+292    	;abs 0x62ce
    61ac:	0f 46       	mov	r6,	r15	
    61ae:	1f 53       	inc	r15		
    61b0:	1f 94 d2 ff 	cmp	-46(r4),r15	;0xffd2(r4)
    61b4:	8c 24       	jz	$+282    	;abs 0x62ce
    61b6:	c4 46 de ff 	mov.b	r6,	-34(r4)	;0xffde(r4)
    61ba:	84 3c       	jmp	$+266    	;abs 0x62c4
    61bc:	0e 47       	mov	r7,	r14	
    61be:	0e 5e       	rla	r14		
    61c0:	0e 57       	add	r7,	r14	
    61c2:	0e 5e       	rla	r14		
    61c4:	3e 50 b8 1c 	add	#7352,	r14	;#0x1cb8
    61c8:	e4 9e e4 ff 	cmp.b	@r14,	-28(r4)	;0xffe4(r4)
    61cc:	79 28       	jnc	$+244    	;abs 0x62c0
    61ce:	02 12       	push	r2		
    61d0:	32 c2       	dint			
    61d2:	03 43       	nop			
    61d4:	92 44 d0 ff 32 01 	mov	-48(r4),&0x0132	;0xffd0(r4)
    61da:	92 44 d6 ff 38 01 	mov	-42(r4),&0x0138	;0xffd6(r4)
    61e0:	1f 42 3a 01 	mov	&0x013a,r15	
    61e4:	32 41       	pop	r2		
    61e6:	0f 57       	add	r7,	r15	
    61e8:	0f 5f       	rla	r15		
    61ea:	1f 54 dc ff 	add	-36(r4),r15	;0xffdc(r4)
    61ee:	2e 53       	incd	r14		
    61f0:	af 4e 00 00 	mov	@r14,	0(r15)	;0x0000(r15)
    61f4:	06 97       	cmp	r7,	r6	
    61f6:	63 24       	jz	$+200    	;abs 0x62be
    61f8:	0f 46       	mov	r6,	r15	
    61fa:	1f 53       	inc	r15		
    61fc:	0f 97       	cmp	r7,	r15	
    61fe:	5f 24       	jz	$+192    	;abs 0x62be
    6200:	45 46       	mov.b	r6,	r5	
    6202:	55 53       	inc.b	r5		
    6204:	08 46       	mov	r6,	r8	
    6206:	08 58       	rla	r8		
    6208:	08 56       	add	r6,	r8	
    620a:	08 58       	rla	r8		
    620c:	38 50 ba 1c 	add	#7354,	r8	;#0x1cba
    6210:	84 4e ec ff 	mov	r14,	-20(r4)	;0xffec(r4)
    6214:	0f 47       	mov	r7,	r15	
    6216:	0f 86       	sub	r6,	r15	
    6218:	84 47 e2 ff 	mov	r7,	-30(r4)	;0xffe2(r4)
    621c:	07 48       	mov	r8,	r7	
    621e:	84 4f ee ff 	mov	r15,	-18(r4)	;0xffee(r4)
    6222:	47 3c       	jmp	$+144    	;abs 0x62b2
    6224:	28 47       	mov	@r7,	r8	
    6226:	0e 49       	mov	r9,	r14	
    6228:	0e 86       	sub	r6,	r14	
    622a:	1d 44 ec ff 	mov	-20(r4),r13	;0xffec(r4)
    622e:	2f 4d       	mov	@r13,	r15	
    6230:	0f 88       	sub	r8,	r15	
    6232:	02 12       	push	r2		
    6234:	32 c2       	dint			
    6236:	03 43       	nop			
    6238:	82 4e 32 01 	mov	r14,	&0x0132	
    623c:	82 4f 38 01 	mov	r15,	&0x0138	
    6240:	1c 42 3a 01 	mov	&0x013a,r12	
    6244:	32 41       	pop	r2		
    6246:	1a 44 ee ff 	mov	-18(r4),r10	;0xffee(r4)
    624a:	b0 12 40 75 	call	#0x7540	
    624e:	0c 58       	add	r8,	r12	
    6250:	02 12       	push	r2		
    6252:	32 c2       	dint			
    6254:	03 43       	nop			
    6256:	92 44 d0 ff 32 01 	mov	-48(r4),&0x0132	;0xffd0(r4)
    625c:	92 44 d6 ff 38 01 	mov	-42(r4),&0x0138	;0xffd6(r4)
    6262:	1f 42 3a 01 	mov	&0x013a,r15	
    6266:	32 41       	pop	r2		
    6268:	0f 59       	add	r9,	r15	
    626a:	0f 5f       	rla	r15		
    626c:	1f 54 dc ff 	add	-36(r4),r15	;0xffdc(r4)
    6270:	8f 4c 00 00 	mov	r12,	0(r15)	;0x0000(r15)
    6274:	0f 49       	mov	r9,	r15	
    6276:	0f 5f       	rla	r15		
    6278:	0f 59       	add	r9,	r15	
    627a:	0f 5f       	rla	r15		
    627c:	1c 8f ba 1c 	sub	7354(r15),r12	;0x1cba(r15)
    6280:	0e 4c       	mov	r12,	r14	
    6282:	0e 5e       	rla	r14		
    6284:	0e 5e       	rla	r14		
    6286:	0e 5e       	rla	r14		
    6288:	0e 8c       	sub	r12,	r14	
    628a:	0e 5e       	rla	r14		
    628c:	0e 5e       	rla	r14		
    628e:	0e 5e       	rla	r14		
    6290:	0e 5e       	rla	r14		
    6292:	0e 8c       	sub	r12,	r14	
    6294:	0f 4e       	mov	r14,	r15	
    6296:	0f 5f       	rla	r15		
    6298:	0f 5f       	rla	r15		
    629a:	0f 5f       	rla	r15		
    629c:	0f 5e       	add	r14,	r15	
    629e:	0c 5f       	add	r15,	r12	
    62a0:	1a 44 e0 ff 	mov	-32(r4),r10	;0xffe0(r4)
    62a4:	b0 12 40 75 	call	#0x7540	
    62a8:	1e 44 da ff 	mov	-38(r4),r14	;0xffda(r4)
    62ac:	8e 5c 00 00 	add	r12,	0(r14)	;0x0000(r14)
    62b0:	55 53       	inc.b	r5		
    62b2:	49 45       	mov.b	r5,	r9	
    62b4:	19 94 e2 ff 	cmp	-30(r4),r9	;0xffe2(r4)
    62b8:	b5 2b       	jnc	$-148    	;abs 0x6224
    62ba:	17 44 e2 ff 	mov	-30(r4),r7	;0xffe2(r4)
    62be:	06 47       	mov	r7,	r6	
    62c0:	d4 53 de ff 	inc.b	-34(r4)	;0xffde(r4)
    62c4:	57 44 de ff 	mov.b	-34(r4),r7	;0xffde(r4)
    62c8:	84 97 d2 ff 	cmp	r7,	-46(r4)	;0xffd2(r4)
    62cc:	77 2f       	jc	$-272    	;abs 0x61bc
    62ce:	16 44 d2 ff 	mov	-46(r4),r6	;0xffd2(r4)
    62d2:	94 53 d2 ff 	inc	-46(r4)	;0xffd2(r4)
    62d6:	b4 50 06 00 d8 ff 	add	#6,	-40(r4)	;#0x0006, 0xffd8(r4)
    62dc:	a4 53 d4 ff 	incd	-44(r4)	;0xffd4(r4)
    62e0:	b4 90 64 00 d2 ff 	cmp	#100,	-46(r4)	;#0x0064, 0xffd2(r4)
    62e6:	55 23       	jnz	$-340    	;abs 0x6192
    62e8:	94 53 d0 ff 	inc	-48(r4)	;0xffd0(r4)
    62ec:	a4 53 da ff 	incd	-38(r4)	;0xffda(r4)
    62f0:	b4 90 05 00 d0 ff 	cmp	#5,	-48(r4)	;#0x0005, 0xffd0(r4)
    62f6:	1f 24       	jz	$+64     	;abs 0x6336
    62f8:	d4 44 d0 ff e4 ff 	mov.b	-48(r4),-28(r4)	;0xffd0(r4), 0xffe4(r4)
    62fe:	b4 40 b8 1c e6 ff 	mov	#7352,	-26(r4)	;#0x1cb8, 0xffe6(r4)
    6304:	02 12       	push	r2		
    6306:	32 c2       	dint			
    6308:	03 43       	nop			
    630a:	92 44 d0 ff 32 01 	mov	-48(r4),&0x0132	;0xffd0(r4)
    6310:	92 44 d6 ff 38 01 	mov	-42(r4),&0x0138	;0xffd6(r4)
    6316:	94 42 3a 01 d4 ff 	mov	&0x013a,-44(r4)	;0xffd4(r4)
    631c:	32 41       	pop	r2		
    631e:	94 54 d4 ff d4 ff 	rla	-44(r4)	;0xffd4(r4)
    6324:	94 54 dc ff d4 ff 	add	-36(r4),-44(r4)	;0xffdc(r4), 0xffd4(r4)
    632a:	b4 40 b8 1c d8 ff 	mov	#7352,	-40(r4)	;#0x1cb8, 0xffd8(r4)
    6330:	84 43 d2 ff 	mov	#0,	-46(r4)	;r3 As==00, 0xffd2(r4)
    6334:	2e 3f       	jmp	$-418    	;abs 0x6192
    6336:	c2 93 f0 1b 	tst.b	&0x1bf0	
    633a:	5b 20       	jnz	$+184    	;abs 0x63f2
    633c:	5f 42 21 1f 	mov.b	&0x1f21,r15	
    6340:	0d 43       	clr	r13		
    6342:	1e 44 e6 ff 	mov	-26(r4),r14	;0xffe6(r4)
    6346:	6f 9e       	cmp.b	@r14,	r15	
    6348:	01 28       	jnc	$+4      	;abs 0x634c
    634a:	1d 53       	inc	r13		
    634c:	3e 50 06 00 	add	#6,	r14	;#0x0006
    6350:	3e 90 10 1f 	cmp	#7952,	r14	;#0x1f10
    6354:	f8 23       	jnz	$-14     	;abs 0x6346
    6356:	0e 43       	clr	r14		
    6358:	1c 44 e8 ff 	mov	-24(r4),r12	;0xffe8(r4)
    635c:	29 4c       	mov	@r12,	r9	
    635e:	0f 4e       	mov	r14,	r15	
    6360:	0f 5f       	rla	r15		
    6362:	3f 50 c4 1b 	add	#7108,	r15	;#0x1bc4
    6366:	cf 49 01 00 	mov.b	r9,	1(r15)	;0x0001(r15)
    636a:	89 10       	swpb	r9		
    636c:	cf 49 00 00 	mov.b	r9,	0(r15)	;0x0000(r15)
    6370:	1e 53       	inc	r14		
    6372:	2c 53       	incd	r12		
    6374:	3e 90 05 00 	cmp	#5,	r14	;#0x0005
    6378:	f1 23       	jnz	$-28     	;abs 0x635c
    637a:	1f 42 00 11 	mov	&0x1100,r15	
    637e:	c2 4f bb 1b 	mov.b	r15,	&0x1bbb	
    6382:	8f 10       	swpb	r15		
    6384:	c2 4f ba 1b 	mov.b	r15,	&0x1bba	
    6388:	1e 42 38 1c 	mov	&0x1c38,r14	
    638c:	0f 4e       	mov	r14,	r15	
    638e:	1f 53       	inc	r15		
    6390:	82 4f 38 1c 	mov	r15,	&0x1c38	
    6394:	3f 40 bc 1b 	mov	#7100,	r15	;#0x1bbc
    6398:	cf 4e 01 00 	mov.b	r14,	1(r15)	;0x0001(r15)
    639c:	8e 10       	swpb	r14		
    639e:	c2 4e bc 1b 	mov.b	r14,	&0x1bbc	
    63a2:	cf 4d 03 00 	mov.b	r13,	3(r15)	;0x0003(r15)
    63a6:	8d 10       	swpb	r13		
    63a8:	c2 4d be 1b 	mov.b	r13,	&0x1bbe	
    63ac:	1e 42 60 1a 	mov	&0x1a60,r14	
    63b0:	cf 4e 05 00 	mov.b	r14,	5(r15)	;0x0005(r15)
    63b4:	8e 10       	swpb	r14		
    63b6:	c2 4e c0 1b 	mov.b	r14,	&0x1bc0	
    63ba:	1e 42 98 1b 	mov	&0x1b98,r14	
    63be:	cf 4e 07 00 	mov.b	r14,	7(r15)	;0x0007(r15)
    63c2:	8e 10       	swpb	r14		
    63c4:	c2 4e c2 1b 	mov.b	r14,	&0x1bc2	
    63c8:	f2 43 b4 1b 	mov.b	#-1,	&0x1bb4	;r3 As==11
    63cc:	ff 43 f9 ff 	mov.b	#-1,	-7(r15)	;r3 As==11, 0xfff9(r15)
    63d0:	c2 43 b9 1b 	mov.b	#0,	&0x1bb9	;r3 As==00
    63d4:	7d 40 14 00 	mov.b	#20,	r13	;#0x0014
    63d8:	3e 40 ae 1b 	mov	#7086,	r14	;#0x1bae
    63dc:	4f 43       	clr.b	r15		
    63de:	b0 12 7a 60 	call	#0x607a	
    63e2:	4f 93       	tst.b	r15		
    63e4:	04 20       	jnz	$+10     	;abs 0x63ee
    63e6:	d2 43 f0 1b 	mov.b	#1,	&0x1bf0	;r3 As==01
    63ea:	b0 12 96 55 	call	#0x5596	
    63ee:	b0 12 1a 48 	call	#0x481a	
    63f2:	11 44 ea ff 	mov	-22(r4),r1	;0xffea(r4)
    63f6:	31 50 20 00 	add	#32,	r1	;#0x0020
    63fa:	34 41       	pop	r4		
    63fc:	35 41       	pop	r5		
    63fe:	36 41       	pop	r6		
    6400:	37 41       	pop	r7		
    6402:	38 41       	pop	r8		
    6404:	39 41       	pop	r9		
    6406:	3a 41       	pop	r10		
    6408:	3b 41       	pop	r11		
    640a:	30 41       	ret			

0000640c <VirtualizeTimerC__0__fireTimers>:
    640c:	0b 12       	push	r11		
    640e:	0a 12       	push	r10		
    6410:	09 12       	push	r9		
    6412:	31 50 f0 ff 	add	#-16,	r1	;#0xfff0
    6416:	e2 b3 2c 1c 	bit.b	#2,	&0x1c2c	;r3 As==10
    641a:	0f 24       	jz	$+32     	;abs 0x643a
    641c:	0c 4e       	mov	r14,	r12	
    641e:	0d 4f       	mov	r15,	r13	
    6420:	1c 82 24 1c 	sub	&0x1c24,r12	
    6424:	1d 72 26 1c 	subc	&0x1c26,r13	
    6428:	1d 92 2a 1c 	cmp	&0x1c2a,r13	
    642c:	06 28       	jnc	$+14     	;abs 0x643a
    642e:	82 9d 2a 1c 	cmp	r13,	&0x1c2a	
    6432:	1b 28       	jnc	$+56     	;abs 0x646a
    6434:	1c 92 28 1c 	cmp	&0x1c28,r12	
    6438:	18 2c       	jc	$+50     	;abs 0x646a
    643a:	e2 b3 36 1c 	bit.b	#2,	&0x1c36	;r3 As==10
    643e:	02 20       	jnz	$+6      	;abs 0x6444
    6440:	30 40 58 67 	br	#0x6758	
    6444:	1e 82 2e 1c 	sub	&0x1c2e,r14	
    6448:	1f 72 30 1c 	subc	&0x1c30,r15	
    644c:	1f 92 34 1c 	cmp	&0x1c34,r15	
    6450:	02 2c       	jc	$+6      	;abs 0x6456
    6452:	30 40 58 67 	br	#0x6758	
    6456:	1f 92 34 1c 	cmp	&0x1c34,r15	
    645a:	05 20       	jnz	$+12     	;abs 0x6466
    645c:	1e 92 32 1c 	cmp	&0x1c32,r14	
    6460:	02 2c       	jc	$+6      	;abs 0x6466
    6462:	30 40 58 67 	br	#0x6758	
    6466:	1d 43       	mov	#1,	r13	;r3 As==01
    6468:	01 3c       	jmp	$+4      	;abs 0x646c
    646a:	0d 43       	clr	r13		
    646c:	0f 4d       	mov	r13,	r15	
    646e:	0f 5f       	rla	r15		
    6470:	0f 5f       	rla	r15		
    6472:	0f 5d       	add	r13,	r15	
    6474:	0f 5f       	rla	r15		
    6476:	0e 4f       	mov	r15,	r14	
    6478:	3e 50 24 1c 	add	#7204,	r14	;#0x1c24
    647c:	de b3 08 00 	bit.b	#1,	8(r14)	;r3 As==01, 0x0008(r14)
    6480:	04 24       	jz	$+10     	;abs 0x648a
    6482:	ff f0 fd ff 2c 1c 	and.b	#-3,	7212(r15);#0xfffd, 0x1c2c(r15)
    6488:	06 3c       	jmp	$+14     	;abs 0x6496
    648a:	9e 5e 04 00 00 00 	add	4(r14),	0(r14)	;0x0004(r14), 0x0000(r14)
    6490:	9e 6e 06 00 02 00 	addc	6(r14),	2(r14)	;0x0006(r14), 0x0002(r14)
    6496:	5d 93       	cmp.b	#1,	r13	;r3 As==01
    6498:	02 24       	jz	$+6      	;abs 0x649e
    649a:	30 40 58 67 	br	#0x6758	
    649e:	c2 93 45 1c 	tst.b	&0x1c45	
    64a2:	07 20       	jnz	$+16     	;abs 0x64b2
    64a4:	c2 93 b4 1c 	tst.b	&0x1cb4	
    64a8:	04 20       	jnz	$+10     	;abs 0x64b2
    64aa:	82 43 5e 1f 	mov	#0,	&0x1f5e	;r3 As==00
    64ae:	c2 4d 45 1c 	mov.b	r13,	&0x1c45	
    64b2:	b0 12 78 74 	call	#0x7478	
    64b6:	0c 4f       	mov	r15,	r12	
    64b8:	3a 40 0a 00 	mov	#10,	r10	;#0x000a
    64bc:	b0 12 5c 75 	call	#0x755c	
    64c0:	7e 90 07 00 	cmp.b	#7,	r14	;#0x0007
    64c4:	02 28       	jnc	$+6      	;abs 0x64ca
    64c6:	30 40 80 66 	br	#0x6680	
    64ca:	1e 42 10 1f 	mov	&0x1f10,r14	
    64ce:	0a 4e       	mov	r14,	r10	
    64d0:	0a 5a       	rla	r10		
    64d2:	3a 50 06 11 	add	#4358,	r10	;#0x1106
    64d6:	29 4a       	mov	@r10,	r9	
    64d8:	1b 42 1c 1c 	mov	&0x1c1c,r11	
    64dc:	82 4b 22 1f 	mov	r11,	&0x1f22	
    64e0:	1c 42 1e 1f 	mov	&0x1f1e,r12	
    64e4:	82 4c 1c 1c 	mov	r12,	&0x1c1c	
    64e8:	1d 42 16 1c 	mov	&0x1c16,r13	
    64ec:	82 4d 1e 1f 	mov	r13,	&0x1f1e	
    64f0:	1f 42 62 1a 	mov	&0x1a62,r15	
    64f4:	82 4f 16 1c 	mov	r15,	&0x1c16	
    64f8:	82 49 62 1a 	mov	r9,	&0x1a62	
    64fc:	0b 93       	tst	r11		
    64fe:	63 24       	jz	$+200    	;abs 0x65c6
    6500:	0c 9d       	cmp	r13,	r12	
    6502:	06 2c       	jc	$+14     	;abs 0x6510
    6504:	0f 9d       	cmp	r13,	r15	
    6506:	04 2c       	jc	$+10     	;abs 0x6510
    6508:	0b 9c       	cmp	r12,	r11	
    650a:	02 2c       	jc	$+6      	;abs 0x6510
    650c:	09 9f       	cmp	r15,	r9	
    650e:	51 28       	jnc	$+164    	;abs 0x65b2
    6510:	0d 9c       	cmp	r12,	r13	
    6512:	06 2c       	jc	$+14     	;abs 0x6520
    6514:	0d 9f       	cmp	r15,	r13	
    6516:	04 2c       	jc	$+10     	;abs 0x6520
    6518:	0c 9b       	cmp	r11,	r12	
    651a:	02 2c       	jc	$+6      	;abs 0x6520
    651c:	0f 99       	cmp	r9,	r15	
    651e:	49 28       	jnc	$+148    	;abs 0x65b2
    6520:	0c 9d       	cmp	r13,	r12	
    6522:	02 28       	jnc	$+6      	;abs 0x6528
    6524:	0d 9c       	cmp	r12,	r13	
    6526:	0a 28       	jnc	$+22     	;abs 0x653c
    6528:	0f 9d       	cmp	r13,	r15	
    652a:	45 28       	jnc	$+140    	;abs 0x65b6
    652c:	0c 9d       	cmp	r13,	r12	
    652e:	02 2c       	jc	$+6      	;abs 0x6534
    6530:	0d 9f       	cmp	r15,	r13	
    6532:	41 2c       	jc	$+132    	;abs 0x65b6
    6534:	0d 9c       	cmp	r12,	r13	
    6536:	02 28       	jnc	$+6      	;abs 0x653c
    6538:	0c 9d       	cmp	r13,	r12	
    653a:	06 28       	jnc	$+14     	;abs 0x6548
    653c:	0d 9f       	cmp	r15,	r13	
    653e:	3b 28       	jnc	$+120    	;abs 0x65b6
    6540:	0d 9c       	cmp	r12,	r13	
    6542:	02 2c       	jc	$+6      	;abs 0x6548
    6544:	0f 9d       	cmp	r13,	r15	
    6546:	37 2c       	jc	$+112    	;abs 0x65b6
    6548:	0a 4c       	mov	r12,	r10	
    654a:	0a 8b       	sub	r11,	r10	
    654c:	3a b0 00 80 	bit	#-32768,r10	;#0x8000
    6550:	02 34       	jge	$+6      	;abs 0x6556
    6552:	3a e3       	inv	r10		
    6554:	1a 53       	inc	r10		
    6556:	0b 4d       	mov	r13,	r11	
    6558:	0b 8c       	sub	r12,	r11	
    655a:	0c 4b       	mov	r11,	r12	
    655c:	0b 93       	tst	r11		
    655e:	02 34       	jge	$+6      	;abs 0x6564
    6560:	3c e3       	inv	r12		
    6562:	1c 53       	inc	r12		
    6564:	0b 4f       	mov	r15,	r11	
    6566:	0b 8d       	sub	r13,	r11	
    6568:	3b b0 00 80 	bit	#-32768,r11	;#0x8000
    656c:	02 34       	jge	$+6      	;abs 0x6572
    656e:	3b e3       	inv	r11		
    6570:	1b 53       	inc	r11		
    6572:	09 8f       	sub	r15,	r9	
    6574:	0f 49       	mov	r9,	r15	
    6576:	39 b0 00 80 	bit	#-32768,r9	;#0x8000
    657a:	02 34       	jge	$+6      	;abs 0x6580
    657c:	3f e3       	inv	r15		
    657e:	1f 53       	inc	r15		
    6580:	0c 9a       	cmp	r10,	r12	
    6582:	02 2c       	jc	$+6      	;abs 0x6588
    6584:	0b 9f       	cmp	r15,	r11	
    6586:	19 28       	jnc	$+52     	;abs 0x65ba
    6588:	0a 9c       	cmp	r12,	r10	
    658a:	02 2c       	jc	$+6      	;abs 0x6590
    658c:	0f 9b       	cmp	r11,	r15	
    658e:	15 28       	jnc	$+44     	;abs 0x65ba
    6590:	0f 4a       	mov	r10,	r15	
    6592:	12 c3       	clrc			
    6594:	0f 10       	rrc	r15		
    6596:	0c 9f       	cmp	r15,	r12	
    6598:	05 2c       	jc	$+12     	;abs 0x65a4
    659a:	0f 4b       	mov	r11,	r15	
    659c:	12 c3       	clrc			
    659e:	0f 10       	rrc	r15		
    65a0:	0c 9f       	cmp	r15,	r12	
    65a2:	0f 28       	jnc	$+32     	;abs 0x65c2
    65a4:	0a 5a       	rla	r10		
    65a6:	0a 9c       	cmp	r12,	r10	
    65a8:	0a 2c       	jc	$+22     	;abs 0x65be
    65aa:	0b 5b       	rla	r11		
    65ac:	0b 9c       	cmp	r12,	r11	
    65ae:	09 28       	jnc	$+20     	;abs 0x65c2
    65b0:	06 3c       	jmp	$+14     	;abs 0x65be
    65b2:	4b 43       	clr.b	r11		
    65b4:	08 3c       	jmp	$+18     	;abs 0x65c6
    65b6:	5b 43       	mov.b	#1,	r11	;r3 As==01
    65b8:	06 3c       	jmp	$+14     	;abs 0x65c6
    65ba:	6b 43       	mov.b	#2,	r11	;r3 As==10
    65bc:	04 3c       	jmp	$+10     	;abs 0x65c6
    65be:	6b 42       	mov.b	#4,	r11	;r2 As==10
    65c0:	02 3c       	jmp	$+6      	;abs 0x65c6
    65c2:	7b 40 03 00 	mov.b	#3,	r11	;#0x0003
    65c6:	2e 83       	decd	r14		
    65c8:	c2 93 45 1c 	tst.b	&0x1c45	
    65cc:	37 24       	jz	$+112    	;abs 0x663c
    65ce:	1c 42 5e 1f 	mov	&0x1f5e,r12	
    65d2:	0c 93       	tst	r12		
    65d4:	02 20       	jnz	$+6      	;abs 0x65da
    65d6:	82 4e 60 1a 	mov	r14,	&0x1a60	
    65da:	0f 4c       	mov	r12,	r15	
    65dc:	0f 5f       	rla	r15		
    65de:	0f 5c       	add	r12,	r15	
    65e0:	0f 5f       	rla	r15		
    65e2:	3f 50 b8 1c 	add	#7352,	r15	;#0x1cb8
    65e6:	cf 4b 00 00 	mov.b	r11,	0(r15)	;0x0000(r15)
    65ea:	8f 4d 02 00 	mov	r13,	2(r15)	;0x0002(r15)
    65ee:	8f 4e 04 00 	mov	r14,	4(r15)	;0x0004(r15)
    65f2:	1c 53       	inc	r12		
    65f4:	82 4c 5e 1f 	mov	r12,	&0x1f5e	
    65f8:	3c 90 64 00 	cmp	#100,	r12	;#0x0064
    65fc:	11 28       	jnc	$+36     	;abs 0x6620
    65fe:	c2 43 45 1c 	mov.b	#0,	&0x1c45	;r3 As==00
    6602:	d2 43 b4 1c 	mov.b	#1,	&0x1cb4	;r3 As==01
    6606:	82 4e 98 1b 	mov	r14,	&0x1b98	
    660a:	81 4d 0c 00 	mov	r13,	12(r1)	;0x000c(r1)
    660e:	81 4e 0e 00 	mov	r14,	14(r1)	;0x000e(r1)
    6612:	b0 12 f6 60 	call	#0x60f6	
    6616:	1d 41 0c 00 	mov	12(r1),	r13	;0x000c(r1)
    661a:	1e 41 0e 00 	mov	14(r1),	r14	;0x000e(r1)
    661e:	0e 3c       	jmp	$+30     	;abs 0x663c
    6620:	1f 42 ee 1b 	mov	&0x1bee,r15	
    6624:	0f 9d       	cmp	r13,	r15	
    6626:	01 2c       	jc	$+4      	;abs 0x662a
    6628:	0f 4d       	mov	r13,	r15	
    662a:	82 4f ee 1b 	mov	r15,	&0x1bee	
    662e:	1f 42 3c 1c 	mov	&0x1c3c,r15	
    6632:	0d 9f       	cmp	r15,	r13	
    6634:	01 2c       	jc	$+4      	;abs 0x6638
    6636:	0f 4d       	mov	r13,	r15	
    6638:	82 4f 3c 1c 	mov	r15,	&0x1c3c	
    663c:	c2 9b 21 1f 	cmp.b	r11,	&0x1f21	
    6640:	0a 28       	jnc	$+22     	;abs 0x6656
    6642:	c1 4b 00 00 	mov.b	r11,	0(r1)	;0x0000(r1)
    6646:	81 4d 02 00 	mov	r13,	2(r1)	;0x0002(r1)
    664a:	81 4e 04 00 	mov	r14,	4(r1)	;0x0004(r1)
    664e:	2c 41       	mov	@r1,	r12	
    6650:	3f 40 64 1a 	mov	#6756,	r15	;#0x1a64
    6654:	09 3c       	jmp	$+20     	;abs 0x6668
    6656:	c1 4b 00 00 	mov.b	r11,	0(r1)	;0x0000(r1)
    665a:	81 4d 02 00 	mov	r13,	2(r1)	;0x0002(r1)
    665e:	81 4e 04 00 	mov	r14,	4(r1)	;0x0004(r1)
    6662:	2c 41       	mov	@r1,	r12	
    6664:	3f 40 0e 19 	mov	#6414,	r15	;#0x190e
    6668:	b0 12 52 48 	call	#0x4852	
    666c:	1c 42 10 1f 	mov	&0x1f10,r12	
    6670:	1c 53       	inc	r12		
    6672:	3a 40 e8 03 	mov	#1000,	r10	;#0x03e8
    6676:	b0 12 40 75 	call	#0x7540	
    667a:	82 4e 10 1f 	mov	r14,	&0x1f10	
    667e:	6c 3c       	jmp	$+218    	;abs 0x6758
    6680:	c2 93 f0 1b 	tst.b	&0x1bf0	
    6684:	69 20       	jnz	$+212    	;abs 0x6758
    6686:	2f 42       	mov	#4,	r15	;r2 As==10
    6688:	1f 92 40 1a 	cmp	&0x1a40,r15	
    668c:	03 28       	jnc	$+8      	;abs 0x6694
    668e:	1f 92 96 1b 	cmp	&0x1b96,r15	
    6692:	62 2c       	jc	$+198    	;abs 0x6758
    6694:	5a 43       	mov.b	#1,	r10	;r3 As==01
    6696:	b2 90 05 00 96 1b 	cmp	#5,	&0x1b96	;#0x0005
    669c:	01 2c       	jc	$+4      	;abs 0x66a0
    669e:	4a 43       	clr.b	r10		
    66a0:	0b 43       	clr	r11		
    66a2:	09 41       	mov	r1,	r9	
    66a4:	39 50 06 00 	add	#6,	r9	;#0x0006
    66a8:	4a 93       	tst.b	r10		
    66aa:	03 24       	jz	$+8      	;abs 0x66b2
    66ac:	3f 40 64 1a 	mov	#6756,	r15	;#0x1a64
    66b0:	02 3c       	jmp	$+6      	;abs 0x66b6
    66b2:	3f 40 0e 19 	mov	#6414,	r15	;#0x190e
    66b6:	b0 12 14 49 	call	#0x4914	
    66ba:	81 4c 06 00 	mov	r12,	6(r1)	;0x0006(r1)
    66be:	81 4d 08 00 	mov	r13,	8(r1)	;0x0008(r1)
    66c2:	81 4e 0a 00 	mov	r14,	10(r1)	;0x000a(r1)
    66c6:	3d 40 06 00 	mov	#6,	r13	;#0x0006
    66ca:	0e 49       	mov	r9,	r14	
    66cc:	0f 41       	mov	r1,	r15	
    66ce:	b0 12 7a 72 	call	#0x727a	
    66d2:	1d 41 04 00 	mov	4(r1),	r13	;0x0004(r1)
    66d6:	1c 41 02 00 	mov	2(r1),	r12	;0x0002(r1)
    66da:	0f 4b       	mov	r11,	r15	
    66dc:	0f 5f       	rla	r15		
    66de:	3f 50 39 1f 	add	#7993,	r15	;#0x1f39
    66e2:	cf 4c 01 00 	mov.b	r12,	1(r15)	;0x0001(r15)
    66e6:	8c 10       	swpb	r12		
    66e8:	cf 4c 00 00 	mov.b	r12,	0(r15)	;0x0000(r15)
    66ec:	0f 4b       	mov	r11,	r15	
    66ee:	0f 5f       	rla	r15		
    66f0:	3f 50 43 1f 	add	#8003,	r15	;#0x1f43
    66f4:	cf 4d 01 00 	mov.b	r13,	1(r15)	;0x0001(r15)
    66f8:	8d 10       	swpb	r13		
    66fa:	cf 4d 00 00 	mov.b	r13,	0(r15)	;0x0000(r15)
    66fe:	1b 53       	inc	r11		
    6700:	3b 90 05 00 	cmp	#5,	r11	;#0x0005
    6704:	d1 23       	jnz	$-92     	;abs 0x66a8
    6706:	1f 42 00 11 	mov	&0x1100,r15	
    670a:	c2 4f 35 1f 	mov.b	r15,	&0x1f35	
    670e:	8f 10       	swpb	r15		
    6710:	c2 4f 34 1f 	mov.b	r15,	&0x1f34	
    6714:	1f 42 38 1c 	mov	&0x1c38,r15	
    6718:	0e 4f       	mov	r15,	r14	
    671a:	1e 53       	inc	r14		
    671c:	82 4e 38 1c 	mov	r14,	&0x1c38	
    6720:	3e 40 36 1f 	mov	#7990,	r14	;#0x1f36
    6724:	ce 4f 01 00 	mov.b	r15,	1(r14)	;0x0001(r14)
    6728:	8f 10       	swpb	r15		
    672a:	c2 4f 36 1f 	mov.b	r15,	&0x1f36	
    672e:	c2 4a 38 1f 	mov.b	r10,	&0x1f38	
    6732:	f2 43 2e 1f 	mov.b	#-1,	&0x1f2e	;r3 As==11
    6736:	fe 43 f9 ff 	mov.b	#-1,	-7(r14)	;r3 As==11, 0xfff9(r14)
    673a:	e2 43 33 1f 	mov.b	#2,	&0x1f33	;r3 As==10
    673e:	7d 40 19 00 	mov.b	#25,	r13	;#0x0019
    6742:	3e 40 28 1f 	mov	#7976,	r14	;#0x1f28
    6746:	5f 43       	mov.b	#1,	r15	;r3 As==01
    6748:	b0 12 7a 60 	call	#0x607a	
    674c:	4f 93       	tst.b	r15		
    674e:	04 20       	jnz	$+10     	;abs 0x6758
    6750:	d2 43 f0 1b 	mov.b	#1,	&0x1bf0	;r3 As==01
    6754:	b0 12 a6 55 	call	#0x55a6	
    6758:	7f 40 0a 00 	mov.b	#10,	r15	;#0x000a
    675c:	b0 12 90 4d 	call	#0x4d90	
    6760:	31 50 10 00 	add	#16,	r1	;#0x0010
    6764:	39 41       	pop	r9		
    6766:	3a 41       	pop	r10		
    6768:	3b 41       	pop	r11		
    676a:	30 41       	ret			

0000676c <AMQueueImplP__0__sendDone.clone.111>:
    676c:	0b 12       	push	r11		
    676e:	0a 12       	push	r10		
    6770:	09 12       	push	r9		
    6772:	08 12       	push	r8		
    6774:	49 4f       	mov.b	r15,	r9	
    6776:	08 4e       	mov	r14,	r8	
    6778:	4d 4f       	mov.b	r15,	r13	
    677a:	0d 5d       	rla	r13		
    677c:	8d 43 1e 1c 	mov	#0,	7198(r13);r3 As==00, 0x1c1e(r13)
    6780:	5b 42 e2 18 	mov.b	&0x18e2,r11	
    6784:	1b 53       	inc	r11		
    6786:	5b f3       	and.b	#1,	r11	;r3 As==01
    6788:	4c 4b       	mov.b	r11,	r12	
    678a:	0d 4c       	mov	r12,	r13	
    678c:	0d 5d       	rla	r13		
    678e:	8d 93 1e 1c 	tst	7198(r13)	;0x1c1e(r13)
    6792:	0a 24       	jz	$+22     	;abs 0x67a8
    6794:	5d 42 18 1f 	mov.b	&0x1f18,r13	
    6798:	0f 4c       	mov	r12,	r15	
    679a:	0f 93       	tst	r15		
    679c:	03 24       	jz	$+8      	;abs 0x67a4
    679e:	0d 11       	rra	r13		
    67a0:	1f 83       	dec	r15		
    67a2:	fd 23       	jnz	$-4      	;abs 0x679e
    67a4:	1d f3       	and	#1,	r13	;r3 As==01
    67a6:	14 24       	jz	$+42     	;abs 0x67d0
    67a8:	4b 4c       	mov.b	r12,	r11	
    67aa:	5b e3       	xor.b	#1,	r11	;r3 As==01
    67ac:	4c 4b       	mov.b	r11,	r12	
    67ae:	0d 4c       	mov	r12,	r13	
    67b0:	0d 5d       	rla	r13		
    67b2:	8d 93 1e 1c 	tst	7198(r13)	;0x1c1e(r13)
    67b6:	09 24       	jz	$+20     	;abs 0x67ca
    67b8:	5d 42 18 1f 	mov.b	&0x1f18,r13	
    67bc:	0c 93       	tst	r12		
    67be:	03 24       	jz	$+8      	;abs 0x67c6
    67c0:	0d 11       	rra	r13		
    67c2:	1c 83       	dec	r12		
    67c4:	fd 23       	jnz	$-4      	;abs 0x67c0
    67c6:	1d f3       	and	#1,	r13	;r3 As==01
    67c8:	03 24       	jz	$+8      	;abs 0x67d0
    67ca:	e2 43 e2 18 	mov.b	#2,	&0x18e2	;r3 As==10
    67ce:	02 3c       	jmp	$+6      	;abs 0x67d4
    67d0:	c2 4b e2 18 	mov.b	r11,	&0x18e2	
    67d4:	5b 42 e2 18 	mov.b	&0x18e2,r11	
    67d8:	6b 93       	cmp.b	#2,	r11	;r3 As==10
    67da:	19 2c       	jc	$+52     	;abs 0x680e
    67dc:	4b 4b       	mov.b	r11,	r11	
    67de:	0b 5b       	rla	r11		
    67e0:	3b 50 1e 1c 	add	#7198,	r11	;#0x1c1e
    67e4:	2a 4b       	mov	@r11,	r10	
    67e6:	0f 4a       	mov	r10,	r15	
    67e8:	3f 50 06 00 	add	#6,	r15	;#0x0006
    67ec:	b0 12 c6 45 	call	#0x45c6	
    67f0:	6c 4a       	mov.b	@r10,	r12	
    67f2:	7c 50 f3 ff 	add.b	#-13,	r12	;#0xfff3
    67f6:	0d 4a       	mov	r10,	r13	
    67f8:	0e 4f       	mov	r15,	r14	
    67fa:	5f 4a 0b 00 	mov.b	11(r10),r15	;0x000b(r10)
    67fe:	b0 12 b8 5f 	call	#0x5fb8	
    6802:	4f 93       	tst.b	r15		
    6804:	04 24       	jz	$+10     	;abs 0x680e
    6806:	7f 40 0d 00 	mov.b	#13,	r15	;#0x000d
    680a:	b0 12 90 4d 	call	#0x4d90	
    680e:	0e 48       	mov	r8,	r14	
    6810:	4f 49       	mov.b	r9,	r15	
    6812:	b0 12 b6 55 	call	#0x55b6	
    6816:	38 41       	pop	r8		
    6818:	39 41       	pop	r9		
    681a:	3a 41       	pop	r10		
    681c:	3b 41       	pop	r11		
    681e:	30 41       	ret			

00006820 <CC2420ActiveMessageP__AMSend__sendDone.clone.113>:
    6820:	0d 4f       	mov	r15,	r13	
    6822:	5f 42 e2 18 	mov.b	&0x18e2,r15	
    6826:	6f 93       	cmp.b	#2,	r15	;r3 As==10
    6828:	09 2c       	jc	$+20     	;abs 0x683c
    682a:	4e 4f       	mov.b	r15,	r14	
    682c:	0e 5e       	rla	r14		
    682e:	3e 50 1e 1c 	add	#7198,	r14	;#0x1c1e
    6832:	2d 9e       	cmp	@r14,	r13	
    6834:	03 20       	jnz	$+8      	;abs 0x683c
    6836:	2e 4e       	mov	@r14,	r14	
    6838:	b0 12 6c 67 	call	#0x676c	
    683c:	30 41       	ret			

0000683e <SchedulerBasicP__TaskBasic__runTask>:
    683e:	0b 12       	push	r11		
    6840:	0a 12       	push	r10		
    6842:	09 12       	push	r9		
    6844:	08 12       	push	r8		
    6846:	07 12       	push	r7		
    6848:	31 50 f6 ff 	add	#-10,	r1	;#0xfff6
    684c:	7f 90 0e 00 	cmp.b	#14,	r15	;#0x000e
    6850:	02 28       	jnc	$+6      	;abs 0x6856
    6852:	30 40 7a 6f 	br	#0x6f7a	
    6856:	4f 4f       	mov.b	r15,	r15	
    6858:	0f 5f       	rla	r15		
    685a:	10 4f 5e 68 	br	26718(r15)	;0x685e(r15)
    685e:	7a 68       	addc.b	@r8+,	r10	
    6860:	28 69       	addc	@r9,	r8	
    6862:	32 69       	addc	@r9+,	r2	
    6864:	dc 69 0a 6a 14 6a 	addc.b	27146(r9),27156(r12);0x6a0a(r9), 0x6a14(r12)
    686a:	88 6b 98 6b 	addc	r11,	27544(r8);0x6b98(r8)
    686e:	c4 6b e8 6d 	addc.b	r11,	28136(r4);0x6de8(r4)
    6872:	44 6e       	addc.b	r14,	r4	
    6874:	02 6f       	addc	r15,	r2	
    6876:	34 6f       	addc	@r15+,	r4	
    6878:	6a 6f       	addc.b	@r15,	r10	
    687a:	b0 12 66 4c 	call	#0x4c66	
    687e:	4b 4f       	mov.b	r15,	r11	
    6880:	b0 12 86 47 	call	#0x4786	
    6884:	92 43 fe 18 	mov	#1,	&0x18fe	;r3 As==01
    6888:	c2 43 00 19 	mov.b	#0,	&0x1900	;r3 As==00
    688c:	c2 43 9a 1b 	mov.b	#0,	&0x1b9a	;r3 As==00
    6890:	c2 43 e3 1b 	mov.b	#0,	&0x1be3	;r3 As==00
    6894:	4f 4b       	mov.b	r11,	r15	
    6896:	b0 12 7a 4c 	call	#0x4c7a	
    689a:	b0 12 66 4c 	call	#0x4c66	
    689e:	81 4f 08 00 	mov	r15,	8(r1)	;0x0008(r1)
    68a2:	b0 12 92 4a 	call	#0x4a92	
    68a6:	92 43 aa 1b 	mov	#1,	&0x1baa	;r3 As==01
    68aa:	c2 43 ec 1b 	mov.b	#0,	&0x1bec	;r3 As==00
    68ae:	f2 f0 fe ff 25 00 	and.b	#-2,	&0x0025	;#0xfffe
    68b4:	b0 12 aa 46 	call	#0x46aa	
    68b8:	d2 d3 24 00 	bis.b	#1,	&0x0024	;r3 As==01
    68bc:	d2 d3 25 00 	bis.b	#1,	&0x0025	;r3 As==01
    68c0:	1f 41 08 00 	mov	8(r1),	r15	;0x0008(r1)
    68c4:	b0 12 7a 4c 	call	#0x4c7a	
    68c8:	b0 12 66 4c 	call	#0x4c66	
    68cc:	4b 4f       	mov.b	r15,	r11	
    68ce:	a2 92 ea 18 	cmp	#4,	&0x18ea	;r2 As==10
    68d2:	05 20       	jnz	$+12     	;abs 0x68de
    68d4:	7f 40 03 00 	mov.b	#3,	r15	;#0x0003
    68d8:	b0 12 12 4d 	call	#0x4d12	
    68dc:	4f 4b       	mov.b	r11,	r15	
    68de:	b0 12 7a 4c 	call	#0x4c7a	
    68e2:	b0 12 66 4c 	call	#0x4c66	
    68e6:	4b 4f       	mov.b	r15,	r11	
    68e8:	b0 12 74 4f 	call	#0x4f74	
    68ec:	4f 43       	clr.b	r15		
    68ee:	b0 12 82 4f 	call	#0x4f82	
    68f2:	4f 4b       	mov.b	r11,	r15	
    68f4:	b0 12 7a 4c 	call	#0x4c7a	
    68f8:	6f 43       	mov.b	#2,	r15	;r3 As==10
    68fa:	b0 12 8a 53 	call	#0x538a	
    68fe:	b0 12 9e 53 	call	#0x539e	
    6902:	82 4e 2e 1c 	mov	r14,	&0x1c2e	
    6906:	82 4f 30 1c 	mov	r15,	&0x1c30	
    690a:	b2 40 32 00 32 1c 	mov	#50,	&0x1c32	;#0x0032
    6910:	82 43 34 1c 	mov	#0,	&0x1c34	;r3 As==00
    6914:	5f 42 36 1c 	mov.b	&0x1c36,r15	
    6918:	7f f0 fe ff 	and.b	#-2,	r15	;#0xfffe
    691c:	6f d3       	bis.b	#2,	r15	;r3 As==10
    691e:	c2 4f 36 1c 	mov.b	r15,	&0x1c36	
    6922:	7f 40 0a 00 	mov.b	#10,	r15	;#0x000a
    6926:	da 3c       	jmp	$+438    	;abs 0x6adc
    6928:	4f 43       	clr.b	r15		
    692a:	b0 12 8a 53 	call	#0x538a	
    692e:	30 40 7a 6f 	br	#0x6f7a	
    6932:	b0 12 66 4c 	call	#0x4c66	
    6936:	b0 12 7a 4c 	call	#0x4c7a	
    693a:	7f 40 03 00 	mov.b	#3,	r15	;#0x0003
    693e:	b0 12 4c 4d 	call	#0x4d4c	
    6942:	4f 93       	tst.b	r15		
    6944:	39 24       	jz	$+116    	;abs 0x69b8
    6946:	b0 12 66 4c 	call	#0x4c66	
    694a:	4b 4f       	mov.b	r15,	r11	
    694c:	82 43 fe 18 	mov	#0,	&0x18fe	;r3 As==00
    6950:	b0 12 30 45 	call	#0x4530	
    6954:	b0 12 b2 46 	call	#0x46b2	
    6958:	f2 f0 fd ff 1f 00 	and.b	#-3,	&0x001f	;#0xfffd
    695e:	7f 40 03 00 	mov.b	#3,	r15	;#0x0003
    6962:	b0 12 82 4f 	call	#0x4f82	
    6966:	b0 12 74 4f 	call	#0x4f74	
    696a:	4f 4b       	mov.b	r11,	r15	
    696c:	b0 12 7a 4c 	call	#0x4c7a	
    6970:	b0 12 66 4c 	call	#0x4c66	
    6974:	82 43 aa 1b 	mov	#0,	&0x1baa	;r3 As==00
    6978:	81 4f 08 00 	mov	r15,	8(r1)	;0x0008(r1)
    697c:	b0 12 92 4a 	call	#0x4a92	
    6980:	b0 12 74 4f 	call	#0x4f74	
    6984:	f2 f0 fe ff 25 00 	and.b	#-2,	&0x0025	;#0xfffe
    698a:	b0 12 aa 46 	call	#0x46aa	
    698e:	1f 41 08 00 	mov	8(r1),	r15	;0x0008(r1)
    6992:	b0 12 7a 4c 	call	#0x4c7a	
    6996:	82 43 ea 18 	mov	#0,	&0x18ea	;r3 As==00
    699a:	b0 12 02 55 	call	#0x5502	
    699e:	b0 12 66 4c 	call	#0x4c66	
    69a2:	f2 f0 df ff 1d 00 	and.b	#-33,	&0x001d	;#0xffdf
    69a8:	b0 12 7a 4c 	call	#0x4c7a	
    69ac:	b0 12 12 55 	call	#0x5512	
    69b0:	5f 43       	mov.b	#1,	r15	;r3 As==01
    69b2:	b0 12 90 4d 	call	#0x4d90	
    69b6:	03 3c       	jmp	$+8      	;abs 0x69be
    69b8:	6f 43       	mov.b	#2,	r15	;r3 As==10
    69ba:	b0 12 8a 53 	call	#0x538a	
    69be:	1b 42 1a 1c 	mov	&0x1c1a,r11	
    69c2:	6f 43       	mov.b	#2,	r15	;r3 As==10
    69c4:	b0 12 5e 4f 	call	#0x4f5e	
    69c8:	82 93 1a 1f 	tst	&0x1f1a	
    69cc:	02 24       	jz	$+6      	;abs 0x69d2
    69ce:	30 40 7a 6f 	br	#0x6f7a	
    69d2:	f2 43 df 18 	mov.b	#-1,	&0x18df	;r3 As==11
    69d6:	0f 4b       	mov	r11,	r15	
    69d8:	30 40 28 6f 	br	#0x6f28	
    69dc:	b0 12 66 4c 	call	#0x4c66	
    69e0:	4b 4f       	mov.b	r15,	r11	
    69e2:	c2 93 26 1f 	tst.b	&0x1f26	
    69e6:	0d 20       	jnz	$+28     	;abs 0x6a02
    69e8:	d2 43 26 1f 	mov.b	#1,	&0x1f26	;r3 As==01
    69ec:	a2 92 ea 18 	cmp	#4,	&0x18ea	;r2 As==10
    69f0:	04 20       	jnz	$+10     	;abs 0x69fa
    69f2:	5f 43       	mov.b	#1,	r15	;r3 As==01
    69f4:	b0 12 10 57 	call	#0x5710	
    69f8:	03 3c       	jmp	$+8      	;abs 0x6a00
    69fa:	6f 42       	mov.b	#4,	r15	;r2 As==10
    69fc:	b0 12 90 4d 	call	#0x4d90	
    6a00:	4f 4b       	mov.b	r11,	r15	
    6a02:	b0 12 7a 4c 	call	#0x4c7a	
    6a06:	30 40 7a 6f 	br	#0x6f7a	
    6a0a:	b0 12 66 4c 	call	#0x4c66	
    6a0e:	c2 43 26 1f 	mov.b	#0,	&0x1f26	;r3 As==00
    6a12:	f7 3f       	jmp	$-16     	;abs 0x6a02
    6a14:	b0 12 66 4c 	call	#0x4c66	
    6a18:	5b 42 d7 18 	mov.b	&0x18d7,r11	
    6a1c:	b0 12 7a 4c 	call	#0x4c7a	
    6a20:	7b 90 05 00 	cmp.b	#5,	r11	;#0x0005
    6a24:	02 28       	jnc	$+6      	;abs 0x6a2a
    6a26:	30 40 7a 6f 	br	#0x6f7a	
    6a2a:	4f 4b       	mov.b	r11,	r15	
    6a2c:	0f 5f       	rla	r15		
    6a2e:	10 4f 32 6a 	br	27186(r15)	;0x6a32(r15)
    6a32:	3c 6a       	addc	@r10+,	r12	
    6a34:	a8 6a e4 6a 	addc	@r10,	27364(r8);0x6ae4(r8)
    6a38:	28 6b       	addc	@r11,	r8	
    6a3a:	80 6b b0 12 	addc	r11,	0x12b0	;PC rel. 0x07cee
    6a3e:	80 4d b0 12 	mov	r13,	0x12b0	;PC rel. 0x07cf2
    6a42:	66 4c       	mov.b	@r12,	r6	
    6a44:	4b 4f       	mov.b	r15,	r11	
    6a46:	a2 93 ea 18 	cmp	#2,	&0x18ea	;r3 As==10
    6a4a:	db 23       	jnz	$-72     	;abs 0x6a02
    6a4c:	b2 40 03 00 ea 18 	mov	#3,	&0x18ea	;#0x0003
    6a52:	3e 40 18 00 	mov	#24,	r14	;#0x0018
    6a56:	7f 40 1d 00 	mov.b	#29,	r15	;#0x001d
    6a5a:	b0 12 60 52 	call	#0x5260	
    6a5e:	f2 f0 ef ff 25 00 	and.b	#-17,	&0x0025	;#0xffef
    6a64:	b0 12 a2 46 	call	#0x46a2	
    6a68:	f2 f0 ef ff 24 00 	and.b	#-17,	&0x0024	;#0xffef
    6a6e:	f2 d0 10 00 25 00 	bis.b	#16,	&0x0025	;#0x0010
    6a74:	5f 43       	mov.b	#1,	r15	;r3 As==01
    6a76:	b0 12 12 4d 	call	#0x4d12	
    6a7a:	3e 40 7f 02 	mov	#639,	r14	;#0x027f
    6a7e:	7f 40 1c 00 	mov.b	#28,	r15	;#0x001c
    6a82:	b0 12 60 52 	call	#0x5260	
    6a86:	b0 12 e0 55 	call	#0x55e0	
    6a8a:	b0 12 0c 56 	call	#0x560c	
    6a8e:	3e 40 56 2a 	mov	#10838,	r14	;#0x2a56
    6a92:	7f 40 17 00 	mov.b	#23,	r15	;#0x0017
    6a96:	b0 12 60 52 	call	#0x5260	
    6a9a:	3e 40 ff 80 	mov	#-32513,r14	;#0x80ff
    6a9e:	7f 40 15 00 	mov.b	#21,	r15	;#0x0015
    6aa2:	b0 12 60 52 	call	#0x5260	
    6aa6:	ac 3f       	jmp	$-166    	;abs 0x6a00
    6aa8:	b0 12 80 4d 	call	#0x4d80	
    6aac:	7f 40 06 00 	mov.b	#6,	r15	;#0x0006
    6ab0:	b0 12 12 4d 	call	#0x4d12	
    6ab4:	b0 12 e0 55 	call	#0x55e0	
    6ab8:	b0 12 0c 56 	call	#0x560c	
    6abc:	b0 12 1e 53 	call	#0x531e	
    6ac0:	b0 12 74 4f 	call	#0x4f74	
    6ac4:	b0 12 80 4d 	call	#0x4d80	
    6ac8:	7f 40 03 00 	mov.b	#3,	r15	;#0x0003
    6acc:	b0 12 12 4d 	call	#0x4d12	
    6ad0:	b0 12 74 4f 	call	#0x4f74	
    6ad4:	5f 43       	mov.b	#1,	r15	;r3 As==01
    6ad6:	b0 12 82 4f 	call	#0x4f82	
    6ada:	6f 42       	mov.b	#4,	r15	;r2 As==10
    6adc:	b0 12 90 4d 	call	#0x4d90	
    6ae0:	30 40 7a 6f 	br	#0x6f7a	
    6ae4:	b0 12 80 4d 	call	#0x4d80	
    6ae8:	b0 12 66 4c 	call	#0x4c66	
    6aec:	4a 4f       	mov.b	r15,	r10	
    6aee:	b0 12 f8 4c 	call	#0x4cf8	
    6af2:	4b 4f       	mov.b	r15,	r11	
    6af4:	4f 93       	tst.b	r15		
    6af6:	04 24       	jz	$+10     	;abs 0x6b00
    6af8:	4f 4a       	mov.b	r10,	r15	
    6afa:	b0 12 7a 4c 	call	#0x4c7a	
    6afe:	0d 3c       	jmp	$+28     	;abs 0x6b1a
    6b00:	4f 4a       	mov.b	r10,	r15	
    6b02:	b0 12 7a 4c 	call	#0x4c7a	
    6b06:	7f 40 53 00 	mov.b	#83,	r15	;#0x0053
    6b0a:	b0 12 88 46 	call	#0x4688	
    6b0e:	4f 4b       	mov.b	r11,	r15	
    6b10:	b0 12 88 46 	call	#0x4688	
    6b14:	4f 4b       	mov.b	r11,	r15	
    6b16:	b0 12 88 46 	call	#0x4688	
    6b1a:	b0 12 74 4f 	call	#0x4f74	
    6b1e:	6f 43       	mov.b	#2,	r15	;r3 As==10
    6b20:	b0 12 82 4f 	call	#0x4f82	
    6b24:	30 40 7a 6f 	br	#0x6f7a	
    6b28:	b0 12 66 4c 	call	#0x4c66	
    6b2c:	5b 42 fe 18 	mov.b	&0x18fe,r11	
    6b30:	b0 12 7a 4c 	call	#0x4c7a	
    6b34:	6b 92       	cmp.b	#4,	r11	;r2 As==10
    6b36:	08 24       	jz	$+18     	;abs 0x6b48
    6b38:	7b 92       	cmp.b	#8,	r11	;r2 As==11
    6b3a:	0a 24       	jz	$+22     	;abs 0x6b50
    6b3c:	6b 93       	cmp.b	#2,	r11	;r3 As==10
    6b3e:	1c 20       	jnz	$+58     	;abs 0x6b78
    6b40:	b0 12 22 55 	call	#0x5522	
    6b44:	30 40 7a 6f 	br	#0x6f7a	
    6b48:	b0 12 cc 51 	call	#0x51cc	
    6b4c:	30 40 7a 6f 	br	#0x6f7a	
    6b50:	b0 12 80 4d 	call	#0x4d80	
    6b54:	b0 12 42 4d 	call	#0x4d42	
    6b58:	b0 12 74 4f 	call	#0x4f74	
    6b5c:	b0 12 26 50 	call	#0x5026	
    6b60:	b0 12 66 4c 	call	#0x4c66	
    6b64:	92 43 fe 18 	mov	#1,	&0x18fe	;r3 As==01
    6b68:	b0 12 7a 4c 	call	#0x4c7a	
    6b6c:	7f 40 03 00 	mov.b	#3,	r15	;#0x0003
    6b70:	b0 12 2a 4f 	call	#0x4f2a	
    6b74:	30 40 7a 6f 	br	#0x6f7a	
    6b78:	b0 12 26 50 	call	#0x5026	
    6b7c:	30 40 7a 6f 	br	#0x6f7a	
    6b80:	b0 12 1a 4f 	call	#0x4f1a	
    6b84:	30 40 7a 6f 	br	#0x6f7a	
    6b88:	b0 12 66 4c 	call	#0x4c66	
    6b8c:	81 4f 08 00 	mov	r15,	8(r1)	;0x0008(r1)
    6b90:	b0 12 b8 58 	call	#0x58b8	
    6b94:	30 40 fa 6e 	br	#0x6efa	
    6b98:	b0 12 66 4c 	call	#0x4c66	
    6b9c:	d2 42 58 1c da 18 	mov.b	&0x1c58,&0x18da	
    6ba2:	f2 40 03 00 f0 18 	mov.b	#3,	&0x18f0	;#0x0003
    6ba8:	b0 12 7a 4c 	call	#0x4c7a	
    6bac:	5f 42 da 18 	mov.b	&0x18da,r15	
    6bb0:	b0 12 60 56 	call	#0x5660	
    6bb4:	c2 93 da 18 	tst.b	&0x18da	
    6bb8:	02 24       	jz	$+6      	;abs 0x6bbe
    6bba:	30 40 7a 6f 	br	#0x6f7a	
    6bbe:	7f 40 05 00 	mov.b	#5,	r15	;#0x0005
    6bc2:	8c 3f       	jmp	$-230    	;abs 0x6adc
    6bc4:	1d 42 06 19 	mov	&0x1906,r13	
    6bc8:	0e 4d       	mov	r13,	r14	
    6bca:	3e 50 28 00 	add	#40,	r14	;#0x0028
    6bce:	67 4d       	mov.b	@r13,	r7	
    6bd0:	4f 47       	mov.b	r7,	r15	
    6bd2:	0f 5d       	add	r13,	r15	
    6bd4:	6d 4f       	mov.b	@r15,	r13	
    6bd6:	4d 5d       	rla.b	r13		
    6bd8:	4d 43       	clr.b	r13		
    6bda:	4d 6d       	rlc.b	r13		
    6bdc:	ce 4d 03 00 	mov.b	r13,	3(r14)	;0x0003(r14)
    6be0:	6d 4f       	mov.b	@r15,	r13	
    6be2:	7d f0 7f 00 	and.b	#127,	r13	;#0x007f
    6be6:	ce 4d 01 00 	mov.b	r13,	1(r14)	;0x0001(r14)
    6bea:	de 4f ff ff 00 00 	mov.b	-1(r15),0(r14)	;0xffff(r15), 0x0000(r14)
    6bf0:	1b 42 06 19 	mov	&0x1906,r11	
    6bf4:	0f 4b       	mov	r11,	r15	
    6bf6:	1f 53       	inc	r15		
    6bf8:	b0 12 c6 45 	call	#0x45c6	
    6bfc:	0a 4f       	mov	r15,	r10	
    6bfe:	b0 12 66 4c 	call	#0x4c66	
    6c02:	59 42 e4 1b 	mov.b	&0x1be4,r9	
    6c06:	b0 12 7a 4c 	call	#0x4c7a	
    6c0a:	49 93       	tst.b	r9		
    6c0c:	33 24       	jz	$+104    	;abs 0x6c74
    6c0e:	0e 4a       	mov	r10,	r14	
    6c10:	8e 10       	swpb	r14		
    6c12:	3e f0 ff 00 	and	#255,	r14	;#0x00ff
    6c16:	12 c3       	clrc			
    6c18:	0e 10       	rrc	r14		
    6c1a:	0e 11       	rra	r14		
    6c1c:	3e f0 03 00 	and	#3,	r14	;#0x0003
    6c20:	2e 93       	cmp	#2,	r14	;r3 As==10
    6c22:	10 20       	jnz	$+34     	;abs 0x6c44
    6c24:	3b 50 06 00 	add	#6,	r11	;#0x0006
    6c28:	0f 4b       	mov	r11,	r15	
    6c2a:	b0 12 c6 45 	call	#0x45c6	
    6c2e:	0a 4f       	mov	r15,	r10	
    6c30:	b0 12 6c 4d 	call	#0x4d6c	
    6c34:	0a 9f       	cmp	r15,	r10	
    6c36:	1e 24       	jz	$+62     	;abs 0x6c74
    6c38:	0f 4b       	mov	r11,	r15	
    6c3a:	b0 12 c6 45 	call	#0x45c6	
    6c3e:	3f 93       	cmp	#-1,	r15	;r3 As==11
    6c40:	ca 20       	jnz	$+406    	;abs 0x6dd6
    6c42:	18 3c       	jmp	$+50     	;abs 0x6c74
    6c44:	3e 90 03 00 	cmp	#3,	r14	;#0x0003
    6c48:	c6 20       	jnz	$+398    	;abs 0x6dd6
    6c4a:	91 42 50 1c 00 00 	mov	&0x1c50,0(r1)	;0x0000(r1)
    6c50:	91 42 52 1c 02 00 	mov	&0x1c52,2(r1)	;0x0002(r1)
    6c56:	91 42 54 1c 04 00 	mov	&0x1c54,4(r1)	;0x0004(r1)
    6c5c:	91 42 56 1c 06 00 	mov	&0x1c56,6(r1)	;0x0006(r1)
    6c62:	3d 42       	mov	#8,	r13	;r2 As==11
    6c64:	0e 41       	mov	r1,	r14	
    6c66:	0f 4b       	mov	r11,	r15	
    6c68:	3f 50 06 00 	add	#6,	r15	;#0x0006
    6c6c:	b0 12 46 72 	call	#0x7246	
    6c70:	0f 93       	tst	r15		
    6c72:	b1 20       	jnz	$+356    	;abs 0x6dd6
    6c74:	77 90 0d 00 	cmp.b	#13,	r7	;#0x000d
    6c78:	ae 28       	jnc	$+350    	;abs 0x6dd6
    6c7a:	1a 42 06 19 	mov	&0x1906,r10	
    6c7e:	0f 4a       	mov	r10,	r15	
    6c80:	1f 53       	inc	r15		
    6c82:	b0 12 c6 45 	call	#0x45c6	
    6c86:	0e 4f       	mov	r15,	r14	
    6c88:	8e 10       	swpb	r14		
    6c8a:	3e f0 ff 00 	and	#255,	r14	;#0x00ff
    6c8e:	12 c3       	clrc			
    6c90:	0e 10       	rrc	r14		
    6c92:	0e 11       	rra	r14		
    6c94:	0f 4e       	mov	r14,	r15	
    6c96:	3f f0 03 00 	and	#3,	r15	;#0x0003
    6c9a:	0e 11       	rra	r14		
    6c9c:	0e 11       	rra	r14		
    6c9e:	0e 11       	rra	r14		
    6ca0:	0e 11       	rra	r14		
    6ca2:	3e 90 03 00 	cmp	#3,	r14	;#0x0003
    6ca6:	02 24       	jz	$+6      	;abs 0x6cac
    6ca8:	2d 43       	mov	#2,	r13	;r3 As==10
    6caa:	01 3c       	jmp	$+4      	;abs 0x6cae
    6cac:	3d 42       	mov	#8,	r13	;r2 As==11
    6cae:	3f 90 03 00 	cmp	#3,	r15	;#0x0003
    6cb2:	02 24       	jz	$+6      	;abs 0x6cb8
    6cb4:	2e 43       	mov	#2,	r14	;r3 As==10
    6cb6:	01 3c       	jmp	$+4      	;abs 0x6cba
    6cb8:	3e 42       	mov	#8,	r14	;r2 As==11
    6cba:	3e 50 06 00 	add	#6,	r14	;#0x0006
    6cbe:	0e 5a       	add	r10,	r14	
    6cc0:	08 43       	clr	r8		
    6cc2:	0f 48       	mov	r8,	r15	
    6cc4:	0c 4e       	mov	r14,	r12	
    6cc6:	0c 5f       	add	r15,	r12	
    6cc8:	6c 4c       	mov.b	@r12,	r12	
    6cca:	08 5c       	add	r12,	r8	
    6ccc:	1f 53       	inc	r15		
    6cce:	0f 9d       	cmp	r13,	r15	
    6cd0:	f9 3b       	jl	$-12     	;abs 0x6cc4
    6cd2:	59 4a 03 00 	mov.b	3(r10),	r9	;0x0003(r10)
    6cd6:	f2 43 1c 1f 	mov.b	#-1,	&0x1f1c	;r3 As==11
    6cda:	b0 12 66 4c 	call	#0x4c66	
    6cde:	5c 42 1c 1f 	mov.b	&0x1f1c,r12	
    6ce2:	3e 40 42 1a 	mov	#6722,	r14	;#0x1a42
    6ce6:	0d 43       	clr	r13		
    6ce8:	28 9e       	cmp	@r14,	r8	
    6cea:	07 20       	jnz	$+16     	;abs 0x6cfa
    6cec:	ce 99 02 00 	cmp.b	r9,	2(r14)	;0x0002(r14)
    6cf0:	03 20       	jnz	$+8      	;abs 0x6cf8
    6cf2:	c2 4c 1c 1f 	mov.b	r12,	&0x1f1c	
    6cf6:	6b 3c       	jmp	$+216    	;abs 0x6dce
    6cf8:	4c 4d       	mov.b	r13,	r12	
    6cfa:	1d 53       	inc	r13		
    6cfc:	2e 52       	add	#4,	r14	;r2 As==10
    6cfe:	2d 92       	cmp	#4,	r13	;r2 As==10
    6d00:	f3 23       	jnz	$-24     	;abs 0x6ce8
    6d02:	c2 4c 1c 1f 	mov.b	r12,	&0x1f1c	
    6d06:	b0 12 7a 4c 	call	#0x4c7a	
    6d0a:	5b 42 1c 1f 	mov.b	&0x1f1c,r11	
    6d0e:	b0 12 66 4c 	call	#0x4c66	
    6d12:	7b 93       	cmp.b	#-1,	r11	;r3 As==11
    6d14:	03 24       	jz	$+8      	;abs 0x6d1c
    6d16:	c2 9b 02 19 	cmp.b	r11,	&0x1902	
    6d1a:	04 20       	jnz	$+10     	;abs 0x6d24
    6d1c:	5b 42 02 19 	mov.b	&0x1902,r11	
    6d20:	5d 43       	mov.b	#1,	r13	;r3 As==01
    6d22:	01 3c       	jmp	$+4      	;abs 0x6d26
    6d24:	4d 43       	clr.b	r13		
    6d26:	4e 4b       	mov.b	r11,	r14	
    6d28:	0e 5e       	rla	r14		
    6d2a:	0e 5e       	rla	r14		
    6d2c:	8e 48 42 1a 	mov	r8,	6722(r14);0x1a42(r14)
    6d30:	ce 49 44 1a 	mov.b	r9,	6724(r14);0x1a44(r14)
    6d34:	4d 93       	tst.b	r13		
    6d36:	07 24       	jz	$+16     	;abs 0x6d46
    6d38:	5e 42 02 19 	mov.b	&0x1902,r14	
    6d3c:	5e 53       	inc.b	r14		
    6d3e:	7e f0 03 00 	and.b	#3,	r14	;#0x0003
    6d42:	c2 4e 02 19 	mov.b	r14,	&0x1902	
    6d46:	b0 12 7a 4c 	call	#0x4c7a	
    6d4a:	b0 12 66 4c 	call	#0x4c66	
    6d4e:	49 4f       	mov.b	r15,	r9	
    6d50:	0f 4a       	mov	r10,	r15	
    6d52:	b0 12 da 47 	call	#0x47da	
    6d56:	6b 4f       	mov.b	@r15,	r11	
    6d58:	4f 49       	mov.b	r9,	r15	
    6d5a:	b0 12 7a 4c 	call	#0x4c7a	
    6d5e:	ca 93 2b 00 	tst.b	43(r10)	;0x002b(r10)
    6d62:	37 24       	jz	$+112    	;abs 0x6dd2
    6d64:	7b 90 3f 00 	cmp.b	#63,	r11	;#0x003f
    6d68:	34 20       	jnz	$+106    	;abs 0x6dd2
    6d6a:	0b 4a       	mov	r10,	r11	
    6d6c:	3b 50 06 00 	add	#6,	r11	;#0x0006
    6d70:	0f 4b       	mov	r11,	r15	
    6d72:	b0 12 c6 45 	call	#0x45c6	
    6d76:	09 4f       	mov	r15,	r9	
    6d78:	b0 12 76 53 	call	#0x5376	
    6d7c:	09 9f       	cmp	r15,	r9	
    6d7e:	05 24       	jz	$+12     	;abs 0x6d8a
    6d80:	0f 4b       	mov	r11,	r15	
    6d82:	b0 12 c6 45 	call	#0x45c6	
    6d86:	3f 93       	cmp	#-1,	r15	;r3 As==11
    6d88:	24 20       	jnz	$+74     	;abs 0x6dd2
    6d8a:	da 93 0b 00 	cmp.b	#1,	11(r10)	;r3 As==01, 0x000b(r10)
    6d8e:	21 20       	jnz	$+68     	;abs 0x6dd2
    6d90:	77 90 11 00 	cmp.b	#17,	r7	;#0x0011
    6d94:	1e 20       	jnz	$+62     	;abs 0x6dd2
    6d96:	0e 4a       	mov	r10,	r14	
    6d98:	3e 50 0c 00 	add	#12,	r14	;#0x000c
    6d9c:	5f 4e 01 00 	mov.b	1(r14),	r15	;0x0001(r14)
    6da0:	6e 4e       	mov.b	@r14,	r14	
    6da2:	8e 10       	swpb	r14		
    6da4:	0f de       	bis	r14,	r15	
    6da6:	1f 92 00 11 	cmp	&0x1100,r15	
    6daa:	13 20       	jnz	$+40     	;abs 0x6dd2
    6dac:	0e 4a       	mov	r10,	r14	
    6dae:	3e 50 0e 00 	add	#14,	r14	;#0x000e
    6db2:	5f 4e 01 00 	mov.b	1(r14),	r15	;0x0001(r14)
    6db6:	6e 4e       	mov.b	@r14,	r14	
    6db8:	8e 10       	swpb	r14		
    6dba:	0f de       	bis	r14,	r15	
    6dbc:	1f 93       	cmp	#1,	r15	;r3 As==01
    6dbe:	02 20       	jnz	$+6      	;abs 0x6dc4
    6dc0:	d2 53 21 1f 	inc.b	&0x1f21	
    6dc4:	b0 12 66 4c 	call	#0x4c66	
    6dc8:	f2 e0 10 00 31 00 	xor.b	#16,	&0x0031	;#0x0010
    6dce:	b0 12 7a 4c 	call	#0x4c7a	
    6dd2:	82 4a 06 19 	mov	r10,	&0x1906	
    6dd6:	b0 12 66 4c 	call	#0x4c66	
    6dda:	c2 43 ec 1b 	mov.b	#0,	&0x1bec	;r3 As==00
    6dde:	b0 12 7a 4c 	call	#0x4c7a	
    6de2:	b0 12 44 58 	call	#0x5844	
    6de6:	c9 3c       	jmp	$+404    	;abs 0x6f7a
    6de8:	c2 93 e2 1b 	tst.b	&0x1be2	
    6dec:	28 20       	jnz	$+82     	;abs 0x6e3e
    6dee:	1a 42 5c 1c 	mov	&0x1c5c,r10	
    6df2:	1b 42 5e 1c 	mov	&0x1c5e,r11	
    6df6:	b0 12 66 4c 	call	#0x4c66	
    6dfa:	18 42 e6 1b 	mov	&0x1be6,r8	
    6dfe:	19 42 e8 1b 	mov	&0x1be8,r9	
    6e02:	18 52 08 19 	add	&0x1908,r8	
    6e06:	19 62 0a 19 	addc	&0x190a,r9	
    6e0a:	b0 12 7a 4c 	call	#0x4c7a	
    6e0e:	82 4a 5c 1c 	mov	r10,	&0x1c5c	
    6e12:	82 4b 5e 1c 	mov	r11,	&0x1c5e	
    6e16:	c2 43 e2 1b 	mov.b	#0,	&0x1be2	;r3 As==00
    6e1a:	b0 12 66 4c 	call	#0x4c66	
    6e1e:	82 48 08 19 	mov	r8,	&0x1908	
    6e22:	82 49 0a 19 	mov	r9,	&0x190a	
    6e26:	82 4a e6 1b 	mov	r10,	&0x1be6	
    6e2a:	82 4b e8 1b 	mov	r11,	&0x1be8	
    6e2e:	81 4f 08 00 	mov	r15,	8(r1)	;0x0008(r1)
    6e32:	b0 12 0e 54 	call	#0x540e	
    6e36:	1f 41 08 00 	mov	8(r1),	r15	;0x0008(r1)
    6e3a:	b0 12 7a 4c 	call	#0x4c7a	
    6e3e:	b0 12 9e 53 	call	#0x539e	
    6e42:	44 3c       	jmp	$+138    	;abs 0x6ecc
    6e44:	b0 12 9e 53 	call	#0x539e	
    6e48:	08 4e       	mov	r14,	r8	
    6e4a:	09 4f       	mov	r15,	r9	
    6e4c:	b0 12 64 46 	call	#0x4664	
    6e50:	57 42 2c 1c 	mov.b	&0x1c2c,r7	
    6e54:	67 f3       	and.b	#2,	r7	;r3 As==10
    6e56:	13 24       	jz	$+40     	;abs 0x6e7e
    6e58:	0e 48       	mov	r8,	r14	
    6e5a:	0f 49       	mov	r9,	r15	
    6e5c:	1e 82 24 1c 	sub	&0x1c24,r14	
    6e60:	1f 72 26 1c 	subc	&0x1c26,r15	
    6e64:	1a 42 28 1c 	mov	&0x1c28,r10	
    6e68:	1b 42 2a 1c 	mov	&0x1c2a,r11	
    6e6c:	0a 8e       	sub	r14,	r10	
    6e6e:	0b 7f       	subc	r15,	r11	
    6e70:	3a 93       	cmp	#-1,	r10	;r3 As==11
    6e72:	09 20       	jnz	$+20     	;abs 0x6e86
    6e74:	3b 90 ff 7f 	cmp	#32767,	r11	;#0x7fff
    6e78:	06 20       	jnz	$+14     	;abs 0x6e86
    6e7a:	47 43       	clr.b	r7		
    6e7c:	05 3c       	jmp	$+12     	;abs 0x6e88
    6e7e:	3a 43       	mov	#-1,	r10	;r3 As==11
    6e80:	3b 40 ff 7f 	mov	#32767,	r11	;#0x7fff
    6e84:	01 3c       	jmp	$+4      	;abs 0x6e88
    6e86:	57 43       	mov.b	#1,	r7	;r3 As==01
    6e88:	e2 b3 36 1c 	bit.b	#2,	&0x1c36	;r3 As==10
    6e8c:	15 24       	jz	$+44     	;abs 0x6eb8
    6e8e:	0c 48       	mov	r8,	r12	
    6e90:	0d 49       	mov	r9,	r13	
    6e92:	1c 82 2e 1c 	sub	&0x1c2e,r12	
    6e96:	1d 72 30 1c 	subc	&0x1c30,r13	
    6e9a:	1e 42 32 1c 	mov	&0x1c32,r14	
    6e9e:	1f 42 34 1c 	mov	&0x1c34,r15	
    6ea2:	0e 8c       	sub	r12,	r14	
    6ea4:	0f 7d       	subc	r13,	r15	
    6ea6:	0f 9b       	cmp	r11,	r15	
    6ea8:	04 38       	jl	$+10     	;abs 0x6eb2
    6eaa:	0f 9b       	cmp	r11,	r15	
    6eac:	05 20       	jnz	$+12     	;abs 0x6eb8
    6eae:	0e 9a       	cmp	r10,	r14	
    6eb0:	03 2c       	jc	$+8      	;abs 0x6eb8
    6eb2:	0a 4e       	mov	r14,	r10	
    6eb4:	0b 4f       	mov	r15,	r11	
    6eb6:	02 3c       	jmp	$+6      	;abs 0x6ebc
    6eb8:	47 93       	tst.b	r7		
    6eba:	5f 24       	jz	$+192    	;abs 0x6f7a
    6ebc:	1b 93       	cmp	#1,	r11	;r3 As==01
    6ebe:	09 34       	jge	$+20     	;abs 0x6ed2
    6ec0:	0b 93       	tst	r11		
    6ec2:	02 20       	jnz	$+6      	;abs 0x6ec8
    6ec4:	0a 93       	tst	r10		
    6ec6:	05 20       	jnz	$+12     	;abs 0x6ed2
    6ec8:	0e 48       	mov	r8,	r14	
    6eca:	0f 49       	mov	r9,	r15	
    6ecc:	b0 12 0c 64 	call	#0x640c	
    6ed0:	54 3c       	jmp	$+170    	;abs 0x6f7a
    6ed2:	82 4a 5c 1c 	mov	r10,	&0x1c5c	
    6ed6:	82 4b 5e 1c 	mov	r11,	&0x1c5e	
    6eda:	d2 43 e2 1b 	mov.b	#1,	&0x1be2	;r3 As==01
    6ede:	b0 12 66 4c 	call	#0x4c66	
    6ee2:	82 48 08 19 	mov	r8,	&0x1908	
    6ee6:	82 49 0a 19 	mov	r9,	&0x190a	
    6eea:	82 4a e6 1b 	mov	r10,	&0x1be6	
    6eee:	82 4b e8 1b 	mov	r11,	&0x1be8	
    6ef2:	81 4f 08 00 	mov	r15,	8(r1)	;0x0008(r1)
    6ef6:	b0 12 0e 54 	call	#0x540e	
    6efa:	1f 41 08 00 	mov	8(r1),	r15	;0x0008(r1)
    6efe:	30 40 02 6a 	br	#0x6a02	
    6f02:	5b 42 fc 1b 	mov.b	&0x1bfc,r11	
    6f06:	5b 92 df 18 	cmp.b	&0x18df,r11	
    6f0a:	37 24       	jz	$+112    	;abs 0x6f7a
    6f0c:	c2 4b df 18 	mov.b	r11,	&0x18df	
    6f10:	4b 93       	tst.b	r11		
    6f12:	0d 20       	jnz	$+28     	;abs 0x6f2e
    6f14:	1f 42 04 19 	mov	&0x1904,r15	
    6f18:	b0 12 a2 5e 	call	#0x5ea2	
    6f1c:	4f 9b       	cmp.b	r11,	r15	
    6f1e:	2d 24       	jz	$+92     	;abs 0x6f7a
    6f20:	f2 43 df 18 	mov.b	#-1,	&0x18df	;r3 As==11
    6f24:	1f 42 04 19 	mov	&0x1904,r15	
    6f28:	b0 12 20 68 	call	#0x6820	
    6f2c:	26 3c       	jmp	$+78     	;abs 0x6f7a
    6f2e:	f2 43 df 18 	mov.b	#-1,	&0x18df	;r3 As==11
    6f32:	23 3c       	jmp	$+72     	;abs 0x6f7a
    6f34:	c2 93 18 1f 	tst.b	&0x1f18	
    6f38:	20 24       	jz	$+66     	;abs 0x6f7a
    6f3a:	3a 40 1e 1c 	mov	#7198,	r10	;#0x1c1e
    6f3e:	4b 43       	clr.b	r11		
    6f40:	58 43       	mov.b	#1,	r8	;r3 As==01
    6f42:	5f 42 18 1f 	mov.b	&0x1f18,r15	
    6f46:	4e 48       	mov.b	r8,	r14	
    6f48:	4e ff       	and.b	r15,	r14	
    6f4a:	09 24       	jz	$+20     	;abs 0x6f5e
    6f4c:	2e 4a       	mov	@r10,	r14	
    6f4e:	8a 43 00 00 	mov	#0,	0(r10)	;r3 As==00, 0x0000(r10)
    6f52:	4f c8       	bic.b	r8,	r15	
    6f54:	c2 4f 18 1f 	mov.b	r15,	&0x1f18	
    6f58:	4f 4b       	mov.b	r11,	r15	
    6f5a:	b0 12 b6 55 	call	#0x55b6	
    6f5e:	5b 53       	inc.b	r11		
    6f60:	2a 53       	incd	r10		
    6f62:	7b 92       	cmp.b	#8,	r11	;r2 As==11
    6f64:	0a 24       	jz	$+22     	;abs 0x6f7a
    6f66:	48 58       	rla.b	r8		
    6f68:	ec 3f       	jmp	$-38     	;abs 0x6f42
    6f6a:	5f 42 e2 18 	mov.b	&0x18e2,r15	
    6f6e:	4e 4f       	mov.b	r15,	r14	
    6f70:	0e 5e       	rla	r14		
    6f72:	1e 4e 1e 1c 	mov	7198(r14),r14	;0x1c1e(r14)
    6f76:	b0 12 6c 67 	call	#0x676c	
    6f7a:	31 50 0a 00 	add	#10,	r1	;#0x000a
    6f7e:	37 41       	pop	r7		
    6f80:	38 41       	pop	r8		
    6f82:	39 41       	pop	r9		
    6f84:	3a 41       	pop	r10		
    6f86:	3b 41       	pop	r11		
    6f88:	30 41       	ret			

00006f8a <RealMainP__Scheduler__runNextTask>:
    6f8a:	b0 12 fa 46 	call	#0x46fa	
    6f8e:	7f 93       	cmp.b	#-1,	r15	;r3 As==11
    6f90:	04 24       	jz	$+10     	;abs 0x6f9a
    6f92:	b0 12 3e 68 	call	#0x683e	
    6f96:	5f 43       	mov.b	#1,	r15	;r3 As==01
    6f98:	30 41       	ret			
    6f9a:	4f 43       	clr.b	r15		
    6f9c:	30 41       	ret			

00006f9e <sig_TIMERA0_VECTOR>:
    6f9e:	0f 12       	push	r15		
    6fa0:	0e 12       	push	r14		
    6fa2:	0d 12       	push	r13		
    6fa4:	0c 12       	push	r12		
    6fa6:	4f 43       	clr.b	r15		
    6fa8:	b0 12 f0 44 	call	#0x44f0	
    6fac:	3c 41       	pop	r12		
    6fae:	3d 41       	pop	r13		
    6fb0:	3e 41       	pop	r14		
    6fb2:	3f 41       	pop	r15		
    6fb4:	b1 c0 f0 00 00 00 	bic	#240,	0(r1)	;#0x00f0, 0x0000(r1)
    6fba:	00 13       	reti			

00006fbc <sig_TIMERA1_VECTOR>:
    6fbc:	0f 12       	push	r15		
    6fbe:	0e 12       	push	r14		
    6fc0:	0d 12       	push	r13		
    6fc2:	0c 12       	push	r12		
    6fc4:	1f 42 2e 01 	mov	&0x012e,r15	
    6fc8:	12 c3       	clrc			
    6fca:	4f 10       	rrc.b	r15		
    6fcc:	b0 12 f0 44 	call	#0x44f0	
    6fd0:	3c 41       	pop	r12		
    6fd2:	3d 41       	pop	r13		
    6fd4:	3e 41       	pop	r14		
    6fd6:	3f 41       	pop	r15		
    6fd8:	b1 c0 f0 00 00 00 	bic	#240,	0(r1)	;#0x00f0, 0x0000(r1)
    6fde:	00 13       	reti			

00006fe0 <sig_TIMERB0_VECTOR>:
    6fe0:	0f 12       	push	r15		
    6fe2:	0e 12       	push	r14		
    6fe4:	0d 12       	push	r13		
    6fe6:	0c 12       	push	r12		
    6fe8:	4f 43       	clr.b	r15		
    6fea:	b0 12 a0 5b 	call	#0x5ba0	
    6fee:	3c 41       	pop	r12		
    6ff0:	3d 41       	pop	r13		
    6ff2:	3e 41       	pop	r14		
    6ff4:	3f 41       	pop	r15		
    6ff6:	b1 c0 f0 00 00 00 	bic	#240,	0(r1)	;#0x00f0, 0x0000(r1)
    6ffc:	00 13       	reti			

00006ffe <sig_TIMERB1_VECTOR>:
    6ffe:	0f 12       	push	r15		
    7000:	0e 12       	push	r14		
    7002:	0d 12       	push	r13		
    7004:	0c 12       	push	r12		
    7006:	1f 42 1e 01 	mov	&0x011e,r15	
    700a:	12 c3       	clrc			
    700c:	4f 10       	rrc.b	r15		
    700e:	b0 12 a0 5b 	call	#0x5ba0	
    7012:	3c 41       	pop	r12		
    7014:	3d 41       	pop	r13		
    7016:	3e 41       	pop	r14		
    7018:	3f 41       	pop	r15		
    701a:	b1 c0 f0 00 00 00 	bic	#240,	0(r1)	;#0x00f0, 0x0000(r1)
    7020:	00 13       	reti			

00007022 <sig_PORT1_VECTOR>:
    7022:	0f 12       	push	r15		
    7024:	0e 12       	push	r14		
    7026:	0d 12       	push	r13		
    7028:	0c 12       	push	r12		
    702a:	0b 12       	push	r11		
    702c:	21 83       	decd	r1		
    702e:	5f 42 25 00 	mov.b	&0x0025,r15	
    7032:	5f f2 23 00 	and.b	&0x0023,r15	
    7036:	4f 4f       	mov.b	r15,	r15	
    7038:	81 4f 00 00 	mov	r15,	0(r1)	;0x0000(r1)
    703c:	2f 41       	mov	@r1,	r15	
    703e:	1f f3       	and	#1,	r15	;r3 As==01
    7040:	0d 24       	jz	$+28     	;abs 0x705c
    7042:	b0 12 aa 46 	call	#0x46aa	
    7046:	92 93 aa 1b 	cmp	#1,	&0x1baa	;r3 As==01
    704a:	05 20       	jnz	$+12     	;abs 0x7056
    704c:	a2 43 aa 1b 	mov	#2,	&0x1baa	;r3 As==10
    7050:	b0 12 1e 58 	call	#0x581e	
    7054:	52 3c       	jmp	$+166    	;abs 0x70fa
    7056:	d2 53 e5 1b 	inc.b	&0x1be5	
    705a:	4f 3c       	jmp	$+160    	;abs 0x70fa
    705c:	2e 41       	mov	@r1,	r14	
    705e:	2e f3       	and	#2,	r14	;r3 As==10
    7060:	0e 9f       	cmp	r15,	r14	
    7062:	04 24       	jz	$+10     	;abs 0x706c
    7064:	f2 f0 fd ff 23 00 	and.b	#-3,	&0x0023	;#0xfffd
    706a:	47 3c       	jmp	$+144    	;abs 0x70fa
    706c:	2f 41       	mov	@r1,	r15	
    706e:	2f f2       	and	#4,	r15	;r2 As==10
    7070:	0f 9e       	cmp	r14,	r15	
    7072:	04 24       	jz	$+10     	;abs 0x707c
    7074:	f2 f0 fb ff 23 00 	and.b	#-5,	&0x0023	;#0xfffb
    707a:	3f 3c       	jmp	$+128    	;abs 0x70fa
    707c:	2b 41       	mov	@r1,	r11	
    707e:	3b f2       	and	#8,	r11	;r2 As==11
    7080:	0b 9f       	cmp	r15,	r11	
    7082:	04 24       	jz	$+10     	;abs 0x708c
    7084:	f2 f0 f7 ff 23 00 	and.b	#-9,	&0x0023	;#0xfff7
    708a:	37 3c       	jmp	$+112    	;abs 0x70fa
    708c:	2f 41       	mov	@r1,	r15	
    708e:	3f f0 10 00 	and	#16,	r15	;#0x0010
    7092:	0f 9b       	cmp	r11,	r15	
    7094:	18 24       	jz	$+50     	;abs 0x70c6
    7096:	b0 12 a2 46 	call	#0x46a2	
    709a:	a2 42 ea 18 	mov	#4,	&0x18ea	;r2 As==10
    709e:	f2 f0 ef ff 25 00 	and.b	#-17,	&0x0025	;#0xffef
    70a4:	b0 12 a2 46 	call	#0x46a2	
    70a8:	0e 4b       	mov	r11,	r14	
    70aa:	7f 40 1d 00 	mov.b	#29,	r15	;#0x001d
    70ae:	b0 12 60 52 	call	#0x5260	
    70b2:	b0 12 1e 53 	call	#0x531e	
    70b6:	b0 12 74 4f 	call	#0x4f74	
    70ba:	b0 12 80 4d 	call	#0x4d80	
    70be:	4f 4b       	mov.b	r11,	r15	
    70c0:	b0 12 90 4d 	call	#0x4d90	
    70c4:	1a 3c       	jmp	$+54     	;abs 0x70fa
    70c6:	2e 41       	mov	@r1,	r14	
    70c8:	3e f0 20 00 	and	#32,	r14	;#0x0020
    70cc:	0e 9f       	cmp	r15,	r14	
    70ce:	04 24       	jz	$+10     	;abs 0x70d8
    70d0:	f2 f0 df ff 23 00 	and.b	#-33,	&0x0023	;#0xffdf
    70d6:	11 3c       	jmp	$+36     	;abs 0x70fa
    70d8:	2f 41       	mov	@r1,	r15	
    70da:	3f f0 40 00 	and	#64,	r15	;#0x0040
    70de:	0f 9e       	cmp	r14,	r15	
    70e0:	04 24       	jz	$+10     	;abs 0x70ea
    70e2:	f2 f0 bf ff 23 00 	and.b	#-65,	&0x0023	;#0xffbf
    70e8:	08 3c       	jmp	$+18     	;abs 0x70fa
    70ea:	2e 41       	mov	@r1,	r14	
    70ec:	3e f0 80 00 	and	#128,	r14	;#0x0080
    70f0:	0e 9f       	cmp	r15,	r14	
    70f2:	03 24       	jz	$+8      	;abs 0x70fa
    70f4:	f2 f0 7f 00 23 00 	and.b	#127,	&0x0023	;#0x007f
    70fa:	21 53       	incd	r1		
    70fc:	3b 41       	pop	r11		
    70fe:	3c 41       	pop	r12		
    7100:	3d 41       	pop	r13		
    7102:	3e 41       	pop	r14		
    7104:	3f 41       	pop	r15		
    7106:	b1 c0 f0 00 00 00 	bic	#240,	0(r1)	;#0x00f0, 0x0000(r1)
    710c:	00 13       	reti			

0000710e <sig_PORT2_VECTOR>:
    710e:	0f 12       	push	r15		
    7110:	0e 12       	push	r14		
    7112:	21 83       	decd	r1		
    7114:	5f 42 2d 00 	mov.b	&0x002d,r15	
    7118:	5f f2 2b 00 	and.b	&0x002b,r15	
    711c:	4f 4f       	mov.b	r15,	r15	
    711e:	81 4f 00 00 	mov	r15,	0(r1)	;0x0000(r1)
    7122:	2f 41       	mov	@r1,	r15	
    7124:	1f f3       	and	#1,	r15	;r3 As==01
    7126:	04 24       	jz	$+10     	;abs 0x7130
    7128:	f2 f0 fe ff 2b 00 	and.b	#-2,	&0x002b	;#0xfffe
    712e:	3b 3c       	jmp	$+120    	;abs 0x71a6
    7130:	2e 41       	mov	@r1,	r14	
    7132:	2e f3       	and	#2,	r14	;r3 As==10
    7134:	0e 9f       	cmp	r15,	r14	
    7136:	04 24       	jz	$+10     	;abs 0x7140
    7138:	f2 f0 fd ff 2b 00 	and.b	#-3,	&0x002b	;#0xfffd
    713e:	33 3c       	jmp	$+104    	;abs 0x71a6
    7140:	2f 41       	mov	@r1,	r15	
    7142:	2f f2       	and	#4,	r15	;r2 As==10
    7144:	0f 9e       	cmp	r14,	r15	
    7146:	04 24       	jz	$+10     	;abs 0x7150
    7148:	f2 f0 fb ff 2b 00 	and.b	#-5,	&0x002b	;#0xfffb
    714e:	2b 3c       	jmp	$+88     	;abs 0x71a6
    7150:	2e 41       	mov	@r1,	r14	
    7152:	3e f2       	and	#8,	r14	;r2 As==11
    7154:	0e 9f       	cmp	r15,	r14	
    7156:	04 24       	jz	$+10     	;abs 0x7160
    7158:	f2 f0 f7 ff 2b 00 	and.b	#-9,	&0x002b	;#0xfff7
    715e:	23 3c       	jmp	$+72     	;abs 0x71a6
    7160:	2f 41       	mov	@r1,	r15	
    7162:	3f f0 10 00 	and	#16,	r15	;#0x0010
    7166:	0f 9e       	cmp	r14,	r15	
    7168:	04 24       	jz	$+10     	;abs 0x7172
    716a:	f2 f0 ef ff 2b 00 	and.b	#-17,	&0x002b	;#0xffef
    7170:	1a 3c       	jmp	$+54     	;abs 0x71a6
    7172:	2e 41       	mov	@r1,	r14	
    7174:	3e f0 20 00 	and	#32,	r14	;#0x0020
    7178:	0e 9f       	cmp	r15,	r14	
    717a:	04 24       	jz	$+10     	;abs 0x7184
    717c:	f2 f0 df ff 2b 00 	and.b	#-33,	&0x002b	;#0xffdf
    7182:	11 3c       	jmp	$+36     	;abs 0x71a6
    7184:	2f 41       	mov	@r1,	r15	
    7186:	3f f0 40 00 	and	#64,	r15	;#0x0040
    718a:	0f 9e       	cmp	r14,	r15	
    718c:	04 24       	jz	$+10     	;abs 0x7196
    718e:	f2 f0 bf ff 2b 00 	and.b	#-65,	&0x002b	;#0xffbf
    7194:	08 3c       	jmp	$+18     	;abs 0x71a6
    7196:	2e 41       	mov	@r1,	r14	
    7198:	3e f0 80 00 	and	#128,	r14	;#0x0080
    719c:	0e 9f       	cmp	r15,	r14	
    719e:	03 24       	jz	$+8      	;abs 0x71a6
    71a0:	f2 f0 7f 00 2b 00 	and.b	#127,	&0x002b	;#0x007f
    71a6:	21 53       	incd	r1		
    71a8:	3e 41       	pop	r14		
    71aa:	3f 41       	pop	r15		
    71ac:	b1 c0 f0 00 00 00 	bic	#240,	0(r1)	;#0x00f0, 0x0000(r1)
    71b2:	00 13       	reti			

000071b4 <sig_UART0RX_VECTOR>:
    71b4:	0f 12       	push	r15		
    71b6:	0e 12       	push	r14		
    71b8:	0d 12       	push	r13		
    71ba:	0c 12       	push	r12		
    71bc:	5e 42 76 00 	mov.b	&0x0076,r14	
    71c0:	5f 42 f0 18 	mov.b	&0x18f0,r15	
    71c4:	4f 93       	tst.b	r15		
    71c6:	1c 24       	jz	$+58     	;abs 0x7200
    71c8:	18 3c       	jmp	$+50     	;abs 0x71fa
    71ca:	c2 93 da 18 	tst.b	&0x18da	
    71ce:	18 20       	jnz	$+50     	;abs 0x7200
    71d0:	1f 42 3a 1c 	mov	&0x1c3a,r15	
    71d4:	0f 93       	tst	r15		
    71d6:	04 24       	jz	$+10     	;abs 0x71e0
    71d8:	1f 52 12 1f 	add	&0x1f12,r15	
    71dc:	cf 4e ff ff 	mov.b	r14,	-1(r15)	;0xffff(r15)
    71e0:	92 92 16 1f 12 1f 	cmp	&0x1f16,&0x1f12	
    71e6:	03 2c       	jc	$+8      	;abs 0x71ee
    71e8:	b0 12 82 4c 	call	#0x4c82	
    71ec:	09 3c       	jmp	$+20     	;abs 0x7200
    71ee:	f2 f0 bf ff 00 00 	and.b	#-65,	&0x0000	;#0xffbf
    71f4:	b0 12 b8 58 	call	#0x58b8	
    71f8:	03 3c       	jmp	$+8      	;abs 0x7200
    71fa:	7f 90 03 00 	cmp.b	#3,	r15	;#0x0003
    71fe:	e5 27       	jz	$-52     	;abs 0x71ca
    7200:	3c 41       	pop	r12		
    7202:	3d 41       	pop	r13		
    7204:	3e 41       	pop	r14		
    7206:	3f 41       	pop	r15		
    7208:	b1 c0 f0 00 00 00 	bic	#240,	0(r1)	;#0x00f0, 0x0000(r1)
    720e:	00 13       	reti			

00007210 <sig_UART0TX_VECTOR>:
    7210:	0f 12       	push	r15		
    7212:	5f 42 70 00 	mov.b	&0x0070,r15	
    7216:	3f f0 20 00 	and	#32,	r15	;#0x0020
    721a:	06 24       	jz	$+14     	;abs 0x7228
    721c:	5f 42 70 00 	mov.b	&0x0070,r15	
    7220:	2f f2       	and	#4,	r15	;r2 As==10
    7222:	02 24       	jz	$+6      	;abs 0x7228
    7224:	5f 42 70 00 	mov.b	&0x0070,r15	
    7228:	3f 41       	pop	r15		
    722a:	b1 c0 f0 00 00 00 	bic	#240,	0(r1)	;#0x00f0, 0x0000(r1)
    7230:	00 13       	reti			

00007232 <McuSleepC__msp430PowerBits>:
    7232:	00 00 10 00 50 00 90 00 d0 00 f0 00                 ....P.......

0000723e <CSWTCH.440>:
    723e:	00 00 9c ff 02 00 08 00                             ........

00007246 <memcmp>:
    7246:	0b 12       	push	r11		
    7248:	0a 12       	push	r10		
    724a:	0d 93       	tst	r13		
    724c:	12 24       	jz	$+38     	;abs 0x7272
    724e:	0c 43       	clr	r12		
    7250:	0b 4f       	mov	r15,	r11	
    7252:	0b 5c       	add	r12,	r11	
    7254:	6a 4b       	mov.b	@r11,	r10	
    7256:	0b 4e       	mov	r14,	r11	
    7258:	0b 5c       	add	r12,	r11	
    725a:	6b 4b       	mov.b	@r11,	r11	
    725c:	4a 9b       	cmp.b	r11,	r10	
    725e:	04 24       	jz	$+10     	;abs 0x7268
    7260:	4f 4a       	mov.b	r10,	r15	
    7262:	4e 4b       	mov.b	r11,	r14	
    7264:	0f 8e       	sub	r14,	r15	
    7266:	06 3c       	jmp	$+14     	;abs 0x7274
    7268:	1c 53       	inc	r12		
    726a:	0d 9c       	cmp	r12,	r13	
    726c:	f1 23       	jnz	$-28     	;abs 0x7250
    726e:	0f 43       	clr	r15		
    7270:	01 3c       	jmp	$+4      	;abs 0x7274
    7272:	0f 4d       	mov	r13,	r15	
    7274:	3a 41       	pop	r10		
    7276:	3b 41       	pop	r11		
    7278:	30 41       	ret			

0000727a <memcpy>:
    727a:	0b 12       	push	r11		
    727c:	0a 12       	push	r10		
    727e:	09 12       	push	r9		
    7280:	08 12       	push	r8		
    7282:	0d 93       	tst	r13		
    7284:	77 24       	jz	$+240    	;abs 0x7374
    7286:	0b 4f       	mov	r15,	r11	
    7288:	0c 4e       	mov	r14,	r12	
    728a:	0f 9e       	cmp	r14,	r15	
    728c:	73 24       	jz	$+232    	;abs 0x7374
    728e:	0f 9e       	cmp	r14,	r15	
    7290:	34 2c       	jc	$+106    	;abs 0x72fa
    7292:	0a 4e       	mov	r14,	r10	
    7294:	0a df       	bis	r15,	r10	
    7296:	1a f3       	and	#1,	r10	;r3 As==01
    7298:	1a 24       	jz	$+54     	;abs 0x72ce
    729a:	0c ef       	xor	r15,	r12	
    729c:	1c f3       	and	#1,	r12	;r3 As==01
    729e:	08 20       	jnz	$+18     	;abs 0x72b0
    72a0:	1c 43       	mov	#1,	r12	;r3 As==01
    72a2:	0c 9d       	cmp	r13,	r12	
    72a4:	06 2c       	jc	$+14     	;abs 0x72b2
    72a6:	0b 4e       	mov	r14,	r11	
    72a8:	0b fc       	and	r12,	r11	
    72aa:	2c 43       	mov	#2,	r12	;r3 As==10
    72ac:	0c 8b       	sub	r11,	r12	
    72ae:	01 3c       	jmp	$+4      	;abs 0x72b2
    72b0:	0c 4d       	mov	r13,	r12	
    72b2:	0d 8c       	sub	r12,	r13	
    72b4:	0b 43       	clr	r11		
    72b6:	0a 4f       	mov	r15,	r10	
    72b8:	0a 5b       	add	r11,	r10	
    72ba:	09 4e       	mov	r14,	r9	
    72bc:	09 5b       	add	r11,	r9	
    72be:	ea 49 00 00 	mov.b	@r9,	0(r10)	;0x0000(r10)
    72c2:	1b 53       	inc	r11		
    72c4:	0c 9b       	cmp	r11,	r12	
    72c6:	f7 23       	jnz	$-16     	;abs 0x72b6
    72c8:	0b 4f       	mov	r15,	r11	
    72ca:	0b 5c       	add	r12,	r11	
    72cc:	0c 5e       	add	r14,	r12	
    72ce:	0e 4d       	mov	r13,	r14	
    72d0:	12 c3       	clrc			
    72d2:	0e 10       	rrc	r14		
    72d4:	0e 93       	tst	r14		
    72d6:	0c 24       	jz	$+26     	;abs 0x72f0
    72d8:	08 4e       	mov	r14,	r8	
    72da:	09 4c       	mov	r12,	r9	
    72dc:	0a 4b       	mov	r11,	r10	
    72de:	aa 49 00 00 	mov	@r9,	0(r10)	;0x0000(r10)
    72e2:	29 53       	incd	r9		
    72e4:	2a 53       	incd	r10		
    72e6:	38 53       	add	#-1,	r8	;r3 As==11
    72e8:	fa 23       	jnz	$-10     	;abs 0x72de
    72ea:	0e 5e       	rla	r14		
    72ec:	0c 5e       	add	r14,	r12	
    72ee:	0b 5e       	add	r14,	r11	
    72f0:	1d f3       	and	#1,	r13	;r3 As==01
    72f2:	40 24       	jz	$+130    	;abs 0x7374
    72f4:	eb 4c 00 00 	mov.b	@r12,	0(r11)	;0x0000(r11)
    72f8:	3d 3c       	jmp	$+124    	;abs 0x7374
    72fa:	0e 5d       	add	r13,	r14	
    72fc:	0c 4f       	mov	r15,	r12	
    72fe:	0c 5d       	add	r13,	r12	
    7300:	0b 4c       	mov	r12,	r11	
    7302:	0b de       	bis	r14,	r11	
    7304:	1b f3       	and	#1,	r11	;r3 As==01
    7306:	1b 24       	jz	$+56     	;abs 0x733e
    7308:	0b 4c       	mov	r12,	r11	
    730a:	0b ee       	xor	r14,	r11	
    730c:	1b f3       	and	#1,	r11	;r3 As==01
    730e:	06 20       	jnz	$+14     	;abs 0x731c
    7310:	3d 90 03 00 	cmp	#3,	r13	;#0x0003
    7314:	03 28       	jnc	$+8      	;abs 0x731c
    7316:	0b 4e       	mov	r14,	r11	
    7318:	1b f3       	and	#1,	r11	;r3 As==01
    731a:	01 3c       	jmp	$+4      	;abs 0x731e
    731c:	0b 4d       	mov	r13,	r11	
    731e:	0d 8b       	sub	r11,	r13	
    7320:	0a 4b       	mov	r11,	r10	
    7322:	3a 53       	add	#-1,	r10	;r3 As==11
    7324:	3b e3       	inv	r11		
    7326:	1b 53       	inc	r11		
    7328:	0c 5b       	add	r11,	r12	
    732a:	0e 5b       	add	r11,	r14	
    732c:	0b 4c       	mov	r12,	r11	
    732e:	0b 5a       	add	r10,	r11	
    7330:	09 4e       	mov	r14,	r9	
    7332:	09 5a       	add	r10,	r9	
    7334:	eb 49 00 00 	mov.b	@r9,	0(r11)	;0x0000(r11)
    7338:	3a 53       	add	#-1,	r10	;r3 As==11
    733a:	3a 93       	cmp	#-1,	r10	;r3 As==11
    733c:	f7 23       	jnz	$-16     	;abs 0x732c
    733e:	0a 4d       	mov	r13,	r10	
    7340:	12 c3       	clrc			
    7342:	0a 10       	rrc	r10		
    7344:	0a 93       	tst	r10		
    7346:	11 24       	jz	$+36     	;abs 0x736a
    7348:	08 4a       	mov	r10,	r8	
    734a:	09 4e       	mov	r14,	r9	
    734c:	0b 4c       	mov	r12,	r11	
    734e:	29 83       	decd	r9		
    7350:	2b 83       	decd	r11		
    7352:	ab 49 00 00 	mov	@r9,	0(r11)	;0x0000(r11)
    7356:	38 53       	add	#-1,	r8	;r3 As==11
    7358:	fa 23       	jnz	$-10     	;abs 0x734e
    735a:	0b 4a       	mov	r10,	r11	
    735c:	0b 11       	rra	r11		
    735e:	0b 43       	clr	r11		
    7360:	0b 10       	rrc	r11		
    7362:	0b 8a       	sub	r10,	r11	
    7364:	0b 5b       	rla	r11		
    7366:	0e 5b       	add	r11,	r14	
    7368:	0c 5b       	add	r11,	r12	
    736a:	1d f3       	and	#1,	r13	;r3 As==01
    736c:	03 24       	jz	$+8      	;abs 0x7374
    736e:	dc 4e ff ff ff ff 	mov.b	-1(r14),-1(r12)	;0xffff(r14), 0xffff(r12)
    7374:	38 41       	pop	r8		
    7376:	39 41       	pop	r9		
    7378:	3a 41       	pop	r10		
    737a:	3b 41       	pop	r11		
    737c:	30 41       	ret			

0000737e <memset>:
    737e:	0b 12       	push	r11		
    7380:	0a 12       	push	r10		
    7382:	09 12       	push	r9		
    7384:	08 12       	push	r8		
    7386:	0b 4f       	mov	r15,	r11	
    7388:	3d 90 06 00 	cmp	#6,	r13	;#0x0006
    738c:	08 2c       	jc	$+18     	;abs 0x739e
    738e:	04 3c       	jmp	$+10     	;abs 0x7398
    7390:	cb 4e 00 00 	mov.b	r14,	0(r11)	;0x0000(r11)
    7394:	1b 53       	inc	r11		
    7396:	3d 53       	add	#-1,	r13	;r3 As==11
    7398:	0d 93       	tst	r13		
    739a:	fa 23       	jnz	$-10     	;abs 0x7390
    739c:	1e 3c       	jmp	$+62     	;abs 0x73da
    739e:	4a 4e       	mov.b	r14,	r10	
    73a0:	0a 93       	tst	r10		
    73a2:	03 24       	jz	$+8      	;abs 0x73aa
    73a4:	0c 4a       	mov	r10,	r12	
    73a6:	8c 10       	swpb	r12		
    73a8:	0a dc       	bis	r12,	r10	
    73aa:	1f b3       	bit	#1,	r15	;r3 As==01
    73ac:	05 24       	jz	$+12     	;abs 0x73b8
    73ae:	3d 53       	add	#-1,	r13	;r3 As==11
    73b0:	cf 4e 00 00 	mov.b	r14,	0(r15)	;0x0000(r15)
    73b4:	0b 4f       	mov	r15,	r11	
    73b6:	1b 53       	inc	r11		
    73b8:	0c 4d       	mov	r13,	r12	
    73ba:	12 c3       	clrc			
    73bc:	0c 10       	rrc	r12		
    73be:	08 4b       	mov	r11,	r8	
    73c0:	09 4c       	mov	r12,	r9	
    73c2:	88 4a 00 00 	mov	r10,	0(r8)	;0x0000(r8)
    73c6:	28 53       	incd	r8		
    73c8:	39 53       	add	#-1,	r9	;r3 As==11
    73ca:	fb 23       	jnz	$-8      	;abs 0x73c2
    73cc:	0c 5c       	rla	r12		
    73ce:	0c 5b       	add	r11,	r12	
    73d0:	1d f3       	and	#1,	r13	;r3 As==01
    73d2:	0d 99       	cmp	r9,	r13	
    73d4:	02 24       	jz	$+6      	;abs 0x73da
    73d6:	cc 4e 00 00 	mov.b	r14,	0(r12)	;0x0000(r12)
    73da:	38 41       	pop	r8		
    73dc:	39 41       	pop	r9		
    73de:	3a 41       	pop	r10		
    73e0:	3b 41       	pop	r11		
    73e2:	30 41       	ret			

000073e4 <rand_r>:
    73e4:	0b 12       	push	r11		
    73e6:	0a 12       	push	r10		
    73e8:	09 12       	push	r9		
    73ea:	09 4f       	mov	r15,	r9	
    73ec:	2a 4f       	mov	@r15,	r10	
    73ee:	0b 43       	clr	r11		
    73f0:	0e 4a       	mov	r10,	r14	
    73f2:	0f 4b       	mov	r11,	r15	
    73f4:	4f ee       	xor.b	r14,	r15	
    73f6:	0f ee       	xor	r14,	r15	
    73f8:	8f 10       	swpb	r15		
    73fa:	7e f3       	and.b	#-1,	r14	;r3 As==11
    73fc:	8e 10       	swpb	r14		
    73fe:	0e 5e       	rla	r14		
    7400:	0f 6f       	rlc	r15		
    7402:	0e 8a       	sub	r10,	r14	
    7404:	0f 7b       	subc	r11,	r15	
    7406:	0e 5e       	rla	r14		
    7408:	0f 6f       	rlc	r15		
    740a:	0e 5e       	rla	r14		
    740c:	0f 6f       	rlc	r15		
    740e:	0e 5a       	add	r10,	r14	
    7410:	0f 6b       	addc	r11,	r15	
    7412:	0c 4e       	mov	r14,	r12	
    7414:	0d 4f       	mov	r15,	r13	
    7416:	4d ec       	xor.b	r12,	r13	
    7418:	0d ec       	xor	r12,	r13	
    741a:	8d 10       	swpb	r13		
    741c:	7c f3       	and.b	#-1,	r12	;r3 As==11
    741e:	8c 10       	swpb	r12		
    7420:	0c 5c       	rla	r12		
    7422:	0d 6d       	rlc	r13		
    7424:	0c 8e       	sub	r14,	r12	
    7426:	0d 7f       	subc	r15,	r13	
    7428:	0c 5c       	rla	r12		
    742a:	0d 6d       	rlc	r13		
    742c:	0c 5a       	add	r10,	r12	
    742e:	0d 6b       	addc	r11,	r13	
    7430:	0e 4c       	mov	r12,	r14	
    7432:	0f 4d       	mov	r13,	r15	
    7434:	0e 5e       	rla	r14		
    7436:	0f 6f       	rlc	r15		
    7438:	0e 5e       	rla	r14		
    743a:	0f 6f       	rlc	r15		
    743c:	0e 5e       	rla	r14		
    743e:	0f 6f       	rlc	r15		
    7440:	0e 5e       	rla	r14		
    7442:	0f 6f       	rlc	r15		
    7444:	0e 5e       	rla	r14		
    7446:	0f 6f       	rlc	r15		
    7448:	0e 5c       	add	r12,	r14	
    744a:	0f 6d       	addc	r13,	r15	
    744c:	0e 5e       	rla	r14		
    744e:	0f 6f       	rlc	r15		
    7450:	0e 5e       	rla	r14		
    7452:	0f 6f       	rlc	r15		
    7454:	0e 8a       	sub	r10,	r14	
    7456:	0f 7b       	subc	r11,	r15	
    7458:	0e 5e       	rla	r14		
    745a:	0f 6f       	rlc	r15		
    745c:	0e 5e       	rla	r14		
    745e:	0f 6f       	rlc	r15		
    7460:	0e 5a       	add	r10,	r14	
    7462:	0f 6b       	addc	r11,	r15	
    7464:	3e 50 39 30 	add	#12345,	r14	;#0x3039
    7468:	0f 63       	adc	r15		
    746a:	89 4e 00 00 	mov	r14,	0(r9)	;0x0000(r9)
    746e:	0f 4e       	mov	r14,	r15	
    7470:	39 41       	pop	r9		
    7472:	3a 41       	pop	r10		
    7474:	3b 41       	pop	r11		
    7476:	30 41       	ret			

00007478 <rand>:
    7478:	0b 12       	push	r11		
    747a:	0a 12       	push	r10		
    747c:	1a 42 e4 18 	mov	&0x18e4,r10	
    7480:	1b 42 e6 18 	mov	&0x18e6,r11	
    7484:	0e 4a       	mov	r10,	r14	
    7486:	0f 4b       	mov	r11,	r15	
    7488:	4f ee       	xor.b	r14,	r15	
    748a:	0f ee       	xor	r14,	r15	
    748c:	8f 10       	swpb	r15		
    748e:	7e f3       	and.b	#-1,	r14	;r3 As==11
    7490:	8e 10       	swpb	r14		
    7492:	0e 5e       	rla	r14		
    7494:	0f 6f       	rlc	r15		
    7496:	0e 8a       	sub	r10,	r14	
    7498:	0f 7b       	subc	r11,	r15	
    749a:	0e 5e       	rla	r14		
    749c:	0f 6f       	rlc	r15		
    749e:	0e 5e       	rla	r14		
    74a0:	0f 6f       	rlc	r15		
    74a2:	0e 5a       	add	r10,	r14	
    74a4:	0f 6b       	addc	r11,	r15	
    74a6:	0c 4e       	mov	r14,	r12	
    74a8:	0d 4f       	mov	r15,	r13	
    74aa:	4d ec       	xor.b	r12,	r13	
    74ac:	0d ec       	xor	r12,	r13	
    74ae:	8d 10       	swpb	r13		
    74b0:	7c f3       	and.b	#-1,	r12	;r3 As==11
    74b2:	8c 10       	swpb	r12		
    74b4:	0c 5c       	rla	r12		
    74b6:	0d 6d       	rlc	r13		
    74b8:	0c 8e       	sub	r14,	r12	
    74ba:	0d 7f       	subc	r15,	r13	
    74bc:	0c 5c       	rla	r12		
    74be:	0d 6d       	rlc	r13		
    74c0:	0c 5a       	add	r10,	r12	
    74c2:	0d 6b       	addc	r11,	r13	
    74c4:	0e 4c       	mov	r12,	r14	
    74c6:	0f 4d       	mov	r13,	r15	
    74c8:	0e 5e       	rla	r14		
    74ca:	0f 6f       	rlc	r15		
    74cc:	0e 5e       	rla	r14		
    74ce:	0f 6f       	rlc	r15		
    74d0:	0e 5e       	rla	r14		
    74d2:	0f 6f       	rlc	r15		
    74d4:	0e 5e       	rla	r14		
    74d6:	0f 6f       	rlc	r15		
    74d8:	0e 5e       	rla	r14		
    74da:	0f 6f       	rlc	r15		
    74dc:	0e 5c       	add	r12,	r14	
    74de:	0f 6d       	addc	r13,	r15	
    74e0:	0e 5e       	rla	r14		
    74e2:	0f 6f       	rlc	r15		
    74e4:	0e 5e       	rla	r14		
    74e6:	0f 6f       	rlc	r15		
    74e8:	0e 8a       	sub	r10,	r14	
    74ea:	0f 7b       	subc	r11,	r15	
    74ec:	0e 5e       	rla	r14		
    74ee:	0f 6f       	rlc	r15		
    74f0:	0e 5e       	rla	r14		
    74f2:	0f 6f       	rlc	r15		
    74f4:	0e 5a       	add	r10,	r14	
    74f6:	0f 6b       	addc	r11,	r15	
    74f8:	3e 50 39 30 	add	#12345,	r14	;#0x3039
    74fc:	0f 63       	adc	r15		
    74fe:	82 4e e4 18 	mov	r14,	&0x18e4	
    7502:	82 4f e6 18 	mov	r15,	&0x18e6	
    7506:	0f 4e       	mov	r14,	r15	
    7508:	3a 41       	pop	r10		
    750a:	3b 41       	pop	r11		
    750c:	30 41       	ret			

0000750e <srand>:
    750e:	82 4f e4 18 	mov	r15,	&0x18e4	
    7512:	82 43 e6 18 	mov	#0,	&0x18e6	;r3 As==00
    7516:	30 41       	ret			

00007518 <__umulsidi3>:
    7518:	06 43       	clr	r6		
    751a:	07 43       	clr	r7		
    751c:	0a 43       	clr	r10		
    751e:	0b 43       	clr	r11		
    7520:	30 40 92 75 	br	#0x7592	

00007524 <__udivmodqi4>:
    7524:	4e ee       	xor.b	r14,	r14	
    7526:	7b 40 09 00 	mov.b	#9,	r11	;#0x0009
    752a:	05 3c       	jmp	$+12     	;abs 0x7536
    752c:	0d 10       	rrc	r13		
    752e:	4e 6e       	rlc.b	r14		
    7530:	4e 9a       	cmp.b	r10,	r14	
    7532:	01 28       	jnc	$+4      	;abs 0x7536
    7534:	4e 8a       	sub.b	r10,	r14	
    7536:	4c 6c       	rlc.b	r12		
    7538:	0d 6d       	rlc	r13		
    753a:	5b 83       	dec.b	r11		
    753c:	f7 23       	jnz	$-16     	;abs 0x752c
    753e:	30 41       	ret			

00007540 <__udivmodhi4>:
    7540:	0e ee       	xor	r14,	r14	
    7542:	3b 40 11 00 	mov	#17,	r11	;#0x0011
    7546:	05 3c       	jmp	$+12     	;abs 0x7552
    7548:	0d 10       	rrc	r13		
    754a:	0e 6e       	rlc	r14		
    754c:	0e 9a       	cmp	r10,	r14	
    754e:	01 28       	jnc	$+4      	;abs 0x7552
    7550:	0e 8a       	sub	r10,	r14	
    7552:	0c 6c       	rlc	r12		
    7554:	0d 6d       	rlc	r13		
    7556:	1b 83       	dec	r11		
    7558:	f7 23       	jnz	$-16     	;abs 0x7548
    755a:	30 41       	ret			

0000755c <__divmodhi4>:
    755c:	0d 43       	clr	r13		
    755e:	3c b0 00 80 	bit	#-32768,r12	;#0x8000
    7562:	03 28       	jnc	$+8      	;abs 0x756a
    7564:	3c e3       	inv	r12		
    7566:	1c 53       	inc	r12		
    7568:	2d d2       	bis	#4,	r13	;r2 As==10
    756a:	3a b0 00 80 	bit	#-32768,r10	;#0x8000
    756e:	03 28       	jnc	$+8      	;abs 0x7576
    7570:	3a e3       	inv	r10		
    7572:	1a 53       	inc	r10		
    7574:	3d d2       	bis	#8,	r13	;r2 As==11
    7576:	b0 12 40 75 	call	#0x7540	
    757a:	0d 10       	rrc	r13		
    757c:	2d b2       	bit	#4,	r13	;r2 As==10
    757e:	04 28       	jnc	$+10     	;abs 0x7588
    7580:	3e e3       	inv	r14		
    7582:	1e 53       	inc	r14		
    7584:	3c e3       	inv	r12		
    7586:	1c 53       	inc	r12		
    7588:	3d b2       	bit	#8,	r13	;r2 As==11
    758a:	02 28       	jnc	$+6      	;abs 0x7590
    758c:	3c e3       	inv	r12		
    758e:	1c 53       	inc	r12		
    7590:	30 41       	ret			

00007592 <__muldi3>:
    7592:	0f 43       	clr	r15		
    7594:	0e 43       	clr	r14		
    7596:	0d 43       	clr	r13		
    7598:	0c 43       	clr	r12		
    759a:	82 48 30 01 	mov	r8,	&0x0130	
    759e:	82 44 38 01 	mov	r4,	&0x0138	
    75a2:	1c 42 3a 01 	mov	&0x013a,r12	
    75a6:	92 42 3c 01 3a 01 	mov	&0x013c,&0x013a	
    75ac:	92 42 3e 01 3c 01 	mov	&0x013e,&0x013c	
    75b2:	82 48 34 01 	mov	r8,	&0x0134	
    75b6:	82 45 38 01 	mov	r5,	&0x0138	
    75ba:	82 49 34 01 	mov	r9,	&0x0134	
    75be:	82 44 38 01 	mov	r4,	&0x0138	
    75c2:	1d 42 3a 01 	mov	&0x013a,r13	
    75c6:	92 42 3c 01 3a 01 	mov	&0x013c,&0x013a	
    75cc:	92 42 3e 01 3c 01 	mov	&0x013e,&0x013c	
    75d2:	82 45 38 01 	mov	r5,	&0x0138	
    75d6:	82 48 34 01 	mov	r8,	&0x0134	
    75da:	82 46 38 01 	mov	r6,	&0x0138	
    75de:	82 4a 34 01 	mov	r10,	&0x0134	
    75e2:	82 44 38 01 	mov	r4,	&0x0138	
    75e6:	1e 42 3a 01 	mov	&0x013a,r14	
    75ea:	92 42 3c 01 3a 01 	mov	&0x013c,&0x013a	
    75f0:	82 45 38 01 	mov	r5,	&0x0138	
    75f4:	82 48 34 01 	mov	r8,	&0x0134	
    75f8:	82 47 38 01 	mov	r7,	&0x0138	
    75fc:	82 49 34 01 	mov	r9,	&0x0134	
    7600:	82 46 38 01 	mov	r6,	&0x0138	
    7604:	82 4b 34 01 	mov	r11,	&0x0134	
    7608:	82 44 38 01 	mov	r4,	&0x0138	
    760c:	1f 42 3a 01 	mov	&0x013a,r15	
    7610:	0c 4c       	mov	r12,	r12	
    7612:	0d 4d       	mov	r13,	r13	
    7614:	0e 4e       	mov	r14,	r14	
    7616:	0f 4f       	mov	r15,	r15	
    7618:	30 41       	ret			

0000761a <_unexpected_>:
    761a:	00 13       	reti			

Disassembly of section .vectors:

0000ffe0 <__ivtbl_16>:
    ffe0:	ec 44 0e 71 ec 44 ec 44 22 70 bc 6f 9e 6f ec 44     .D.q.D.D"p.o.o.D
    fff0:	10 72 b4 71 ec 44 ec 44 fe 6f e0 6f ec 44 00 40     .r.q.D.D.o.o.D.@
