
build/telosb/main.exe:     file format elf32-msp430


Disassembly of section .text:

00004000 <__watchdog_support>:
    4000:	55 42 20 01 	mov.b	&0x0120,r5	
    4004:	35 d0 08 5a 	bis	#23048,	r5	;#0x5a08
    4008:	82 45 98 1f 	mov	r5,	&0x1f98	

0000400c <__init_stack>:
    400c:	31 40 00 39 	mov	#14592,	r1	;#0x3900

00004010 <__do_copy_data>:
    4010:	3f 40 e4 07 	mov	#2020,	r15	;#0x07e4
    4014:	0f 93       	tst	r15		
    4016:	08 24       	jz	$+18     	;abs 0x4028
    4018:	92 42 98 1f 20 01 	mov	&0x1f98,&0x0120	
    401e:	2f 83       	decd	r15		
    4020:	9f 4f 06 7c 00 11 	mov	31750(r15),4352(r15);0x7c06(r15), 0x1100(r15)
    4026:	f8 23       	jnz	$-14     	;abs 0x4018

00004028 <__do_clear_bss>:
    4028:	3f 40 b4 06 	mov	#1716,	r15	;#0x06b4
    402c:	0f 93       	tst	r15		
    402e:	07 24       	jz	$+16     	;abs 0x403e
    4030:	92 42 98 1f 20 01 	mov	&0x1f98,&0x0120	
    4036:	1f 83       	dec	r15		
    4038:	cf 43 e4 18 	mov.b	#0,	6372(r15);r3 As==00, 0x18e4(r15)
    403c:	f9 23       	jnz	$-12     	;abs 0x4030

0000403e <main>:
    403e:	21 83       	decd	r1		
    4040:	0b 42       	mov	r2,	r11	
    4042:	3b f2       	and	#8,	r11	;r2 As==11
    4044:	32 c2       	dint			
    4046:	03 43       	nop			
    4048:	3d 40 0e 00 	mov	#14,	r13	;#0x000e
    404c:	3e 40 ff 00 	mov	#255,	r14	;#0x00ff
    4050:	3f 40 8e 1b 	mov	#7054,	r15	;#0x1b8e
    4054:	b0 12 b4 79 	call	#0x79b4	
    4058:	f2 43 ee 1c 	mov.b	#-1,	&0x1cee	;r3 As==11
    405c:	f2 43 5f 1f 	mov.b	#-1,	&0x1f5f	;r3 As==11
    4060:	b2 40 80 5a 20 01 	mov	#23168,	&0x0120	;#0x5a80
    4066:	a2 42 60 01 	mov	#4,	&0x0160	;r2 As==10
    406a:	a2 42 80 01 	mov	#4,	&0x0180	;r2 As==10
    406e:	b2 40 20 02 60 01 	mov	#544,	&0x0160	;#0x0220
    4074:	b2 40 20 01 80 01 	mov	#288,	&0x0180	;#0x0120
    407a:	f2 40 84 ff 57 00 	mov.b	#-124,	&0x0057	;#0xff84
    4080:	c2 43 58 00 	mov.b	#0,	&0x0058	;r3 As==00
    4084:	b2 40 00 40 82 01 	mov	#16384,	&0x0182	;#0x4000
    408a:	3c 40 0b 00 	mov	#11,	r12	;#0x000b
    408e:	3f 40 00 04 	mov	#1024,	r15	;#0x0400
    4092:	0e 43       	clr	r14		
    4094:	0d 4f       	mov	r15,	r13	
    4096:	0d de       	bis	r14,	r13	
    4098:	59 42 57 00 	mov.b	&0x0057,r9	
    409c:	0a 4d       	mov	r13,	r10	
    409e:	8a 10       	swpb	r10		
    40a0:	7a f0 07 00 	and.b	#7,	r10	;#0x0007
    40a4:	79 f0 f8 ff 	and.b	#-8,	r9	;#0xfff8
    40a8:	4a d9       	bis.b	r9,	r10	
    40aa:	c2 4a 57 00 	mov.b	r10,	&0x0057	
    40ae:	c2 4d 56 00 	mov.b	r13,	&0x0056	
    40b2:	39 40 03 00 	mov	#3,	r9	;#0x0003
    40b6:	0a 43       	clr	r10		
    40b8:	08 43       	clr	r8		
    40ba:	0f 3c       	jmp	$+32     	;abs 0x40da
    40bc:	18 42 90 01 	mov	&0x0190,r8	
    40c0:	38 52       	add	#8,	r8	;r2 As==11
    40c2:	82 48 92 01 	mov	r8,	&0x0192	
    40c6:	b2 f0 fe ff 82 01 	and	#-2,	&0x0182	;#0xfffe
    40cc:	92 b3 82 01 	bit	#1,	&0x0182	;r3 As==01
    40d0:	fd 27       	jz	$-4      	;abs 0x40cc
    40d2:	17 42 70 01 	mov	&0x0170,r7	
    40d6:	08 4a       	mov	r10,	r8	
    40d8:	0a 47       	mov	r7,	r10	
    40da:	39 53       	add	#-1,	r9	;r3 As==11
    40dc:	ef 23       	jnz	$-32     	;abs 0x40bc
    40de:	0a 88       	sub	r8,	r10	
    40e0:	3a 90 01 04 	cmp	#1025,	r10	;#0x0401
    40e4:	01 2c       	jc	$+4      	;abs 0x40e8
    40e6:	0e 4d       	mov	r13,	r14	
    40e8:	0d 4e       	mov	r14,	r13	
    40ea:	3d f0 e0 00 	and	#224,	r13	;#0x00e0
    40ee:	3d 90 e0 00 	cmp	#224,	r13	;#0x00e0
    40f2:	04 24       	jz	$+10     	;abs 0x40fc
    40f4:	12 c3       	clrc			
    40f6:	0f 10       	rrc	r15		
    40f8:	3c 53       	add	#-1,	r12	;r3 As==11
    40fa:	cc 23       	jnz	$-102    	;abs 0x4094
    40fc:	5d 42 57 00 	mov.b	&0x0057,r13	
    4100:	0f 4e       	mov	r14,	r15	
    4102:	8f 10       	swpb	r15		
    4104:	7f f0 07 00 	and.b	#7,	r15	;#0x0007
    4108:	7d f0 f8 ff 	and.b	#-8,	r13	;#0xfff8
    410c:	4f dd       	bis.b	r13,	r15	
    410e:	c2 4f 57 00 	mov.b	r15,	&0x0057	
    4112:	c2 4e 56 00 	mov.b	r14,	&0x0056	
    4116:	5f 42 57 00 	mov.b	&0x0057,r15	
    411a:	7f f0 07 00 	and.b	#7,	r15	;#0x0007
    411e:	7f d0 80 ff 	bis.b	#-128,	r15	;#0xff80
    4122:	c2 4f 57 00 	mov.b	r15,	&0x0057	
    4126:	e2 42 58 00 	mov.b	#4,	&0x0058	;r2 As==10
    412a:	f2 f0 fd ff 00 00 	and.b	#-3,	&0x0000	;#0xfffd
    4130:	82 43 70 01 	mov	#0,	&0x0170	;r3 As==00
    4134:	b2 40 02 02 60 01 	mov	#514,	&0x0160	;#0x0202
    413a:	82 43 90 01 	mov	#0,	&0x0190	;r3 As==00
    413e:	b2 40 02 01 80 01 	mov	#258,	&0x0180	;#0x0102
    4144:	1f 42 60 01 	mov	&0x0160,r15	
    4148:	3f f0 cf ff 	and	#-49,	r15	;#0xffcf
    414c:	3f d0 20 00 	bis	#32,	r15	;#0x0020
    4150:	82 4f 60 01 	mov	r15,	&0x0160	
    4154:	1f 42 80 01 	mov	&0x0180,r15	
    4158:	3f f0 cf ff 	and	#-49,	r15	;#0xffcf
    415c:	3f d0 20 00 	bis	#32,	r15	;#0x0020
    4160:	82 4f 80 01 	mov	r15,	&0x0180	
    4164:	c2 43 26 00 	mov.b	#0,	&0x0026	;r3 As==00
    4168:	c2 43 2e 00 	mov.b	#0,	&0x002e	;r3 As==00
    416c:	c2 43 1b 00 	mov.b	#0,	&0x001b	;r3 As==00
    4170:	c2 43 1f 00 	mov.b	#0,	&0x001f	;r3 As==00
    4174:	c2 43 33 00 	mov.b	#0,	&0x0033	;r3 As==00
    4178:	c2 43 37 00 	mov.b	#0,	&0x0037	;r3 As==00
    417c:	c2 43 21 00 	mov.b	#0,	&0x0021	;r3 As==00
    4180:	f2 40 e0 ff 22 00 	mov.b	#-32,	&0x0022	;#0xffe0
    4186:	f2 40 30 00 29 00 	mov.b	#48,	&0x0029	;#0x0030
    418c:	f2 40 7b 00 2a 00 	mov.b	#123,	&0x002a	;#0x007b
    4192:	c2 43 19 00 	mov.b	#0,	&0x0019	;r3 As==00
    4196:	f2 40 f1 ff 1a 00 	mov.b	#-15,	&0x001a	;#0xfff1
    419c:	f2 40 dd ff 1d 00 	mov.b	#-35,	&0x001d	;#0xffdd
    41a2:	f2 40 fd ff 1e 00 	mov.b	#-3,	&0x001e	;#0xfffd
    41a8:	f2 43 31 00 	mov.b	#-1,	&0x0031	;r3 As==11
    41ac:	f2 43 32 00 	mov.b	#-1,	&0x0032	;r3 As==11
    41b0:	c2 43 35 00 	mov.b	#0,	&0x0035	;r3 As==00
    41b4:	f2 43 36 00 	mov.b	#-1,	&0x0036	;r3 As==11
    41b8:	c2 43 25 00 	mov.b	#0,	&0x0025	;r3 As==00
    41bc:	c2 43 2d 00 	mov.b	#0,	&0x002d	;r3 As==00
    41c0:	1e 42 70 01 	mov	&0x0170,r14	
    41c4:	1f 42 70 01 	mov	&0x0170,r15	
    41c8:	0f 8e       	sub	r14,	r15	
    41ca:	3f 90 01 28 	cmp	#10241,	r15	;#0x2801
    41ce:	fa 2b       	jnc	$-10     	;abs 0x41c4
    41d0:	e2 d3 1a 00 	bis.b	#2,	&0x001a	;r3 As==10
    41d4:	f2 d2 1a 00 	bis.b	#8,	&0x001a	;r2 As==11
    41d8:	f2 d0 80 ff 1e 00 	bis.b	#-128,	&0x001e	;#0xff80
    41de:	f2 d0 10 00 1e 00 	bis.b	#16,	&0x001e	;#0x0010
    41e4:	f2 d0 80 ff 1d 00 	bis.b	#-128,	&0x001d	;#0xff80
    41ea:	f2 d0 10 00 1d 00 	bis.b	#16,	&0x001d	;#0x0010
    41f0:	03 43       	nop			
    41f2:	03 43       	nop			
    41f4:	f2 f0 ef ff 1d 00 	and.b	#-17,	&0x001d	;#0xffef
    41fa:	f2 f0 f7 ff 19 00 	and.b	#-9,	&0x0019	;#0xfff7
    4200:	5f 43       	mov.b	#1,	r15	;r3 As==01
    4202:	b0 12 78 46 	call	#0x4678	
    4206:	4f 43       	clr.b	r15		
    4208:	b0 12 78 46 	call	#0x4678	
    420c:	5f 43       	mov.b	#1,	r15	;r3 As==01
    420e:	b0 12 78 46 	call	#0x4678	
    4212:	5f 43       	mov.b	#1,	r15	;r3 As==01
    4214:	b0 12 78 46 	call	#0x4678	
    4218:	5f 43       	mov.b	#1,	r15	;r3 As==01
    421a:	b0 12 78 46 	call	#0x4678	
    421e:	4f 43       	clr.b	r15		
    4220:	b0 12 78 46 	call	#0x4678	
    4224:	4f 43       	clr.b	r15		
    4226:	b0 12 78 46 	call	#0x4678	
    422a:	5f 43       	mov.b	#1,	r15	;r3 As==01
    422c:	b0 12 78 46 	call	#0x4678	
    4230:	f2 d0 10 00 1d 00 	bis.b	#16,	&0x001d	;#0x0010
    4236:	f2 d2 19 00 	bis.b	#8,	&0x0019	;r2 As==11
    423a:	e2 d3 19 00 	bis.b	#2,	&0x0019	;r3 As==10
    423e:	f2 d0 10 00 32 00 	bis.b	#16,	&0x0032	;#0x0010
    4244:	f2 d0 20 00 32 00 	bis.b	#32,	&0x0032	;#0x0020
    424a:	f2 d0 40 00 32 00 	bis.b	#64,	&0x0032	;#0x0040
    4250:	f2 d0 10 00 31 00 	bis.b	#16,	&0x0031	;#0x0010
    4256:	f2 d0 20 00 31 00 	bis.b	#32,	&0x0031	;#0x0020
    425c:	f2 d0 40 00 31 00 	bis.b	#64,	&0x0031	;#0x0040
    4262:	b0 12 88 74 	call	#0x7488	
    4266:	4f 93       	tst.b	r15		
    4268:	fc 23       	jnz	$-6      	;abs 0x4262
    426a:	f2 43 dc 1b 	mov.b	#-1,	&0x1bdc	;r3 As==11
    426e:	b2 43 34 1a 	mov	#-1,	&0x1a34	;r3 As==11
    4272:	c2 43 36 1a 	mov.b	#0,	&0x1a36	;r3 As==00
    4276:	b2 43 38 1a 	mov	#-1,	&0x1a38	;r3 As==11
    427a:	c2 43 3a 1a 	mov.b	#0,	&0x1a3a	;r3 As==00
    427e:	b2 43 3c 1a 	mov	#-1,	&0x1a3c	;r3 As==11
    4282:	c2 43 3e 1a 	mov.b	#0,	&0x1a3e	;r3 As==00
    4286:	b2 43 40 1a 	mov	#-1,	&0x1a40	;r3 As==11
    428a:	c2 43 42 1a 	mov.b	#0,	&0x1a42	;r3 As==00
    428e:	b0 12 84 45 	call	#0x4584	
    4292:	c2 4f 90 1c 	mov.b	r15,	&0x1c90	
    4296:	1f 42 de 18 	mov	&0x18de,r15	
    429a:	1f 53       	inc	r15		
    429c:	82 4f ea 1b 	mov	r15,	&0x1bea	
    42a0:	82 43 ec 1b 	mov	#0,	&0x1bec	;r3 As==00
    42a4:	b2 f0 ef ff 86 01 	and	#-17,	&0x0186	;#0xffef
    42aa:	b2 40 00 40 86 01 	mov	#16384,	&0x0186	;#0x4000
    42b0:	b2 40 b8 1c f8 18 	mov	#7352,	&0x18f8	;#0x1cb8
    42b6:	f2 f0 ef ff 22 00 	and.b	#-17,	&0x0022	;#0xffef
    42bc:	e2 d2 1e 00 	bis.b	#4,	&0x001e	;r2 As==10
    42c0:	f2 f0 fd ff 1e 00 	and.b	#-3,	&0x001e	;#0xfffd
    42c6:	b2 f0 ef ff 82 01 	and	#-17,	&0x0182	;#0xffef
    42cc:	b2 40 00 40 82 01 	mov	#16384,	&0x0182	;#0x4000
    42d2:	f2 43 fa 1b 	mov.b	#-1,	&0x1bfa	;r3 As==11
    42d6:	c2 43 76 1c 	mov.b	#0,	&0x1c76	;r3 As==00
    42da:	c2 43 77 1c 	mov.b	#0,	&0x1c77	;r3 As==00
    42de:	c2 43 78 1c 	mov.b	#0,	&0x1c78	;r3 As==00
    42e2:	c2 43 79 1c 	mov.b	#0,	&0x1c79	;r3 As==00
    42e6:	e2 d2 1e 00 	bis.b	#4,	&0x001e	;r2 As==10
    42ea:	f2 d0 40 00 1e 00 	bis.b	#64,	&0x001e	;#0x0040
    42f0:	f2 d0 20 00 1e 00 	bis.b	#32,	&0x001e	;#0x0020
    42f6:	0f 42       	mov	r2,	r15	
    42f8:	32 c2       	dint			
    42fa:	03 43       	nop			
    42fc:	1e 42 06 11 	mov	&0x1106,r14	
    4300:	3f f2       	and	#8,	r15	;r2 As==11
    4302:	01 24       	jz	$+4      	;abs 0x4306
    4304:	32 d2       	eint			
    4306:	82 4e 00 1c 	mov	r14,	&0x1c00	
    430a:	b0 12 88 47 	call	#0x4788	
    430e:	82 4c 86 1c 	mov	r12,	&0x1c86	
    4312:	82 4d 88 1c 	mov	r13,	&0x1c88	
    4316:	82 4e 8a 1c 	mov	r14,	&0x1c8a	
    431a:	82 4f 8c 1c 	mov	r15,	&0x1c8c	
    431e:	d2 42 04 11 e4 1b 	mov.b	&0x1104,&0x1be4	
    4324:	c2 43 e5 1b 	mov.b	#0,	&0x1be5	;r3 As==00
    4328:	f2 40 1f 00 74 1c 	mov.b	#31,	&0x1c74	;#0x001f
    432e:	f2 40 1a 00 8e 1c 	mov.b	#26,	&0x1c8e	;#0x001a
    4334:	b0 12 88 47 	call	#0x4788	
    4338:	82 4c 86 1c 	mov	r12,	&0x1c86	
    433c:	82 4d 88 1c 	mov	r13,	&0x1c88	
    4340:	82 4e 8a 1c 	mov	r14,	&0x1c8a	
    4344:	82 4f 8c 1c 	mov	r15,	&0x1c8c	
    4348:	3f 40 86 1c 	mov	#7302,	r15	;#0x1c86
    434c:	0e 4f       	mov	r15,	r14	
    434e:	3e 50 07 00 	add	#7,	r14	;#0x0007
    4352:	0d 43       	clr	r13		
    4354:	6c 4f       	mov.b	@r15,	r12	
    4356:	ef 4e 00 00 	mov.b	@r14,	0(r15)	;0x0000(r15)
    435a:	ce 4c 00 00 	mov.b	r12,	0(r14)	;0x0000(r14)
    435e:	1d 53       	inc	r13		
    4360:	1f 53       	inc	r15		
    4362:	3e 53       	add	#-1,	r14	;r3 As==11
    4364:	2d 92       	cmp	#4,	r13	;r2 As==10
    4366:	f6 23       	jnz	$-18     	;abs 0x4354
    4368:	d2 43 d6 1b 	mov.b	#1,	&0x1bd6	;r3 As==01
    436c:	c2 43 58 1f 	mov.b	#0,	&0x1f58	;r3 As==00
    4370:	d2 43 e6 1b 	mov.b	#1,	&0x1be6	;r3 As==01
    4374:	c2 43 84 1c 	mov.b	#0,	&0x1c84	;r3 As==00
    4378:	b0 12 88 74 	call	#0x7488	
    437c:	4f 93       	tst.b	r15		
    437e:	fc 23       	jnz	$-6      	;abs 0x4378
    4380:	0b 93       	tst	r11		
    4382:	01 24       	jz	$+4      	;abs 0x4386
    4384:	32 d2       	eint			
    4386:	32 d2       	eint			
    4388:	82 43 56 1f 	mov	#0,	&0x1f56	;r3 As==00
    438c:	92 43 6e 1c 	mov	#1,	&0x1c6e	;r3 As==01
    4390:	92 42 10 11 54 1a 	mov	&0x1110,&0x1a54	
    4396:	92 42 0e 11 08 1c 	mov	&0x110e,&0x1c08	
    439c:	82 43 5a 1f 	mov	#0,	&0x1f5a	;r3 As==00
    43a0:	82 43 12 1c 	mov	#0,	&0x1c12	;r3 As==00
    43a4:	d2 43 59 1f 	mov.b	#1,	&0x1f59	;r3 As==01
    43a8:	c2 43 e2 1b 	mov.b	#0,	&0x1be2	;r3 As==00
    43ac:	a2 43 48 1f 	mov	#2,	&0x1f48	;r3 As==10
    43b0:	82 43 10 1c 	mov	#0,	&0x1c10	;r3 As==00
    43b4:	82 43 32 1a 	mov	#0,	&0x1a32	;r3 As==00
    43b8:	82 43 88 1b 	mov	#0,	&0x1b88	;r3 As==00
    43bc:	3f 40 06 00 	mov	#6,	r15	;#0x0006
    43c0:	b0 12 1e 7a 	call	#0x7a1e	
    43c4:	0b 4f       	mov	r15,	r11	
    43c6:	82 4f 0a 1c 	mov	r15,	&0x1c0a	
    43ca:	3f 40 06 00 	mov	#6,	r15	;#0x0006
    43ce:	b0 12 1e 7a 	call	#0x7a1e	
    43d2:	82 4f 92 1c 	mov	r15,	&0x1c92	
    43d6:	8b 43 00 00 	mov	#0,	0(r11)	;r3 As==00, 0x0000(r11)
    43da:	8b 43 02 00 	mov	#0,	2(r11)	;r3 As==00, 0x0002(r11)
    43de:	8b 43 04 00 	mov	#0,	4(r11)	;r3 As==00, 0x0004(r11)
    43e2:	8f 43 00 00 	mov	#0,	0(r15)	;r3 As==00, 0x0000(r15)
    43e6:	8f 43 02 00 	mov	#0,	2(r15)	;r3 As==00, 0x0002(r15)
    43ea:	8f 43 04 00 	mov	#0,	4(r15)	;r3 As==00, 0x0004(r15)
    43ee:	b0 12 e2 46 	call	#0x46e2	
    43f2:	5f 43       	mov.b	#1,	r15	;r3 As==01
    43f4:	b0 12 36 56 	call	#0x5636	
    43f8:	0f 93       	tst	r15		
    43fa:	1f 20       	jnz	$+64     	;abs 0x443a
    43fc:	0f 42       	mov	r2,	r15	
    43fe:	3f f2       	and	#8,	r15	;r2 As==11
    4400:	32 c2       	dint			
    4402:	03 43       	nop			
    4404:	82 93 f2 18 	tst	&0x18f2	
    4408:	04 24       	jz	$+10     	;abs 0x4412
    440a:	0f 93       	tst	r15		
    440c:	1e 24       	jz	$+62     	;abs 0x444a
    440e:	32 d2       	eint			
    4410:	1c 3c       	jmp	$+58     	;abs 0x444a
    4412:	92 43 f2 18 	mov	#1,	&0x18f2	;r3 As==01
    4416:	0f 93       	tst	r15		
    4418:	01 24       	jz	$+4      	;abs 0x441c
    441a:	32 d2       	eint			
    441c:	0f 42       	mov	r2,	r15	
    441e:	32 c2       	dint			
    4420:	03 43       	nop			
    4422:	f2 d0 20 00 1d 00 	bis.b	#32,	&0x001d	;#0x0020
    4428:	3f f2       	and	#8,	r15	;r2 As==11
    442a:	01 24       	jz	$+4      	;abs 0x442e
    442c:	32 d2       	eint			
    442e:	3e 40 14 00 	mov	#20,	r14	;#0x0014
    4432:	0f 43       	clr	r15		
    4434:	b0 12 3e 4c 	call	#0x4c3e	
    4438:	08 3c       	jmp	$+18     	;abs 0x444a
    443a:	6f 43       	mov.b	#2,	r15	;r3 As==10
    443c:	b0 12 68 4a 	call	#0x4a68	
    4440:	4f 93       	tst.b	r15		
    4442:	03 20       	jnz	$+8      	;abs 0x444a
    4444:	5f 43       	mov.b	#1,	r15	;r3 As==01
    4446:	b0 12 68 4a 	call	#0x4a68	
    444a:	0b 42       	mov	r2,	r11	
    444c:	3b f2       	and	#8,	r11	;r2 As==11
    444e:	32 c2       	dint			
    4450:	03 43       	nop			
    4452:	86 3c       	jmp	$+270    	;abs 0x4560
    4454:	c2 93 0d 11 	tst.b	&0x110d	
    4458:	77 24       	jz	$+240    	;abs 0x4548
    445a:	b2 b0 10 00 62 01 	bit	#16,	&0x0162	;#0x0010
    4460:	08 20       	jnz	$+18     	;abs 0x4472
    4462:	b2 b0 10 00 64 01 	bit	#16,	&0x0164	;#0x0010
    4468:	04 20       	jnz	$+10     	;abs 0x4472
    446a:	b2 b0 10 00 66 01 	bit	#16,	&0x0166	;#0x0010
    4470:	07 24       	jz	$+16     	;abs 0x4480
    4472:	1f 42 60 01 	mov	&0x0160,r15	
    4476:	3f f0 00 03 	and	#768,	r15	;#0x0300
    447a:	3f 90 00 02 	cmp	#512,	r15	;#0x0200
    447e:	2e 24       	jz	$+94     	;abs 0x44dc
    4480:	5f 42 04 00 	mov.b	&0x0004,r15	
    4484:	3f b0 c0 00 	bit	#192,	r15	;#0x00c0
    4488:	05 24       	jz	$+12     	;abs 0x4494
    448a:	5f 42 71 00 	mov.b	&0x0071,r15	
    448e:	3f f0 20 00 	and	#32,	r15	;#0x0020
    4492:	26 20       	jnz	$+78     	;abs 0x44e0
    4494:	5f 42 05 00 	mov.b	&0x0005,r15	
    4498:	3f b0 30 00 	bit	#48,	r15	;#0x0030
    449c:	05 24       	jz	$+12     	;abs 0x44a8
    449e:	5f 42 79 00 	mov.b	&0x0079,r15	
    44a2:	3f f0 20 00 	and	#32,	r15	;#0x0020
    44a6:	1e 20       	jnz	$+62     	;abs 0x44e4
    44a8:	5f 42 70 00 	mov.b	&0x0070,r15	
    44ac:	1f f3       	and	#1,	r15	;r3 As==01
    44ae:	1c 24       	jz	$+58     	;abs 0x44e8
    44b0:	5f 42 71 00 	mov.b	&0x0071,r15	
    44b4:	3f f0 20 00 	and	#32,	r15	;#0x0020
    44b8:	1a 24       	jz	$+54     	;abs 0x44ee
    44ba:	5f 42 72 00 	mov.b	&0x0072,r15	
    44be:	3f f0 20 00 	and	#32,	r15	;#0x0020
    44c2:	18 24       	jz	$+50     	;abs 0x44f4
    44c4:	5f 42 70 00 	mov.b	&0x0070,r15	
    44c8:	2f f2       	and	#4,	r15	;r2 As==10
    44ca:	17 24       	jz	$+48     	;abs 0x44fa
    44cc:	5f 42 70 00 	mov.b	&0x0070,r15	
    44d0:	3f f0 20 00 	and	#32,	r15	;#0x0020
    44d4:	15 20       	jnz	$+44     	;abs 0x4500
    44d6:	7f 40 05 00 	mov.b	#5,	r15	;#0x0005
    44da:	13 3c       	jmp	$+40     	;abs 0x4502
    44dc:	6f 43       	mov.b	#2,	r15	;r3 As==10
    44de:	11 3c       	jmp	$+36     	;abs 0x4502
    44e0:	6f 43       	mov.b	#2,	r15	;r3 As==10
    44e2:	0f 3c       	jmp	$+32     	;abs 0x4502
    44e4:	6f 43       	mov.b	#2,	r15	;r3 As==10
    44e6:	0d 3c       	jmp	$+28     	;abs 0x4502
    44e8:	7f 40 05 00 	mov.b	#5,	r15	;#0x0005
    44ec:	0a 3c       	jmp	$+22     	;abs 0x4502
    44ee:	7f 40 05 00 	mov.b	#5,	r15	;#0x0005
    44f2:	07 3c       	jmp	$+16     	;abs 0x4502
    44f4:	7f 40 05 00 	mov.b	#5,	r15	;#0x0005
    44f8:	04 3c       	jmp	$+10     	;abs 0x4502
    44fa:	7f 40 05 00 	mov.b	#5,	r15	;#0x0005
    44fe:	01 3c       	jmp	$+4      	;abs 0x4502
    4500:	6f 43       	mov.b	#2,	r15	;r3 As==10
    4502:	b2 b0 10 00 a0 01 	bit	#16,	&0x01a0	;#0x0010
    4508:	19 24       	jz	$+52     	;abs 0x453c
    450a:	b2 b0 10 00 a2 01 	bit	#16,	&0x01a2	;#0x0010
    4510:	05 24       	jz	$+12     	;abs 0x451c
    4512:	b2 b2 a2 01 	bit	#8,	&0x01a2	;r2 As==11
    4516:	0f 24       	jz	$+32     	;abs 0x4536
    4518:	6f 43       	mov.b	#2,	r15	;r3 As==10
    451a:	10 3c       	jmp	$+34     	;abs 0x453c
    451c:	1e 42 a2 01 	mov	&0x01a2,r14	
    4520:	3e b0 00 04 	bit	#1024,	r14	;#0x0400
    4524:	0b 24       	jz	$+24     	;abs 0x453c
    4526:	1e 42 60 01 	mov	&0x0160,r14	
    452a:	3e f0 00 03 	and	#768,	r14	;#0x0300
    452e:	3e 90 00 02 	cmp	#512,	r14	;#0x0200
    4532:	04 20       	jnz	$+10     	;abs 0x453c
    4534:	02 3c       	jmp	$+6      	;abs 0x453a
    4536:	4f 43       	clr.b	r15		
    4538:	01 3c       	jmp	$+4      	;abs 0x453c
    453a:	6f 43       	mov.b	#2,	r15	;r3 As==10
    453c:	7f 90 05 00 	cmp.b	#5,	r15	;#0x0005
    4540:	01 28       	jnc	$+4      	;abs 0x4544
    4542:	6f 42       	mov.b	#4,	r15	;r2 As==10
    4544:	c2 4f f0 18 	mov.b	r15,	&0x18f0	
    4548:	5f 42 f0 18 	mov.b	&0x18f0,r15	
    454c:	0f 5f       	rla	r15		
    454e:	1f 4f f2 7b 	mov	31730(r15),r15	;0x7bf2(r15)
    4552:	3f d2       	bis	#8,	r15	;r2 As==11
    4554:	81 4f 00 00 	mov	r15,	0(r1)	;0x0000(r1)
    4558:	22 d1       	bis	@r1,	r2	
    455a:	32 c2       	dint			
    455c:	03 43       	nop			
    455e:	03 43       	nop			
    4560:	f2 93 ee 1c 	cmp.b	#-1,	&0x1cee	;r3 As==11
    4564:	77 27       	jz	$-272    	;abs 0x4454
    4566:	b0 12 c8 4e 	call	#0x4ec8	
    456a:	7f 93       	cmp.b	#-1,	r15	;r3 As==11
    456c:	73 27       	jz	$-280    	;abs 0x4454
    456e:	0b 93       	tst	r11		
    4570:	01 24       	jz	$+4      	;abs 0x4574
    4572:	32 d2       	eint			
    4574:	b0 12 6e 6c 	call	#0x6c6e	
    4578:	68 3f       	jmp	$-302    	;abs 0x444a

0000457a <__stop_progExec__>:
    457a:	32 d0 f0 00 	bis	#240,	r2	;#0x00f0
    457e:	fd 3f       	jmp	$-4      	;abs 0x457a

00004580 <__ctors_end>:
    4580:	30 40 ae 7b 	br	#0x7bae	

00004584 <RandomMlcgC__Random__rand16>:
    4584:	0b 12       	push	r11		
    4586:	0a 12       	push	r10		
    4588:	09 12       	push	r9		
    458a:	08 12       	push	r8		
    458c:	07 12       	push	r7		
    458e:	06 12       	push	r6		
    4590:	3c 40 4e 83 	mov	#-31922,r12	;#0x834e
    4594:	0d 43       	clr	r13		
    4596:	1e 42 ea 1b 	mov	&0x1bea,r14	
    459a:	1f 42 ec 1b 	mov	&0x1bec,r15	
    459e:	b0 12 92 77 	call	#0x7792	
    45a2:	07 4d       	mov	r13,	r7	
    45a4:	08 4e       	mov	r14,	r8	
    45a6:	09 4f       	mov	r15,	r9	
    45a8:	0e 4c       	mov	r12,	r14	
    45aa:	0f 47       	mov	r7,	r15	
    45ac:	12 c3       	clrc			
    45ae:	0f 10       	rrc	r15		
    45b0:	0e 10       	rrc	r14		
    45b2:	08 5e       	add	r14,	r8	
    45b4:	09 6f       	addc	r15,	r9	
    45b6:	09 93       	tst	r9		
    45b8:	05 34       	jge	$+12     	;abs 0x45c4
    45ba:	38 f3       	and	#-1,	r8	;r3 As==11
    45bc:	39 f0 ff 7f 	and	#32767,	r9	;#0x7fff
    45c0:	18 53       	inc	r8		
    45c2:	09 63       	adc	r9		
    45c4:	82 48 ea 1b 	mov	r8,	&0x1bea	
    45c8:	82 49 ec 1b 	mov	r9,	&0x1bec	
    45cc:	0f 48       	mov	r8,	r15	
    45ce:	36 41       	pop	r6		
    45d0:	37 41       	pop	r7		
    45d2:	38 41       	pop	r8		
    45d4:	39 41       	pop	r9		
    45d6:	3a 41       	pop	r10		
    45d8:	3b 41       	pop	r11		
    45da:	30 41       	ret			

000045dc <CC2420SpiP__SpiByte__write>:
    45dc:	c2 4f 77 00 	mov.b	r15,	&0x0077	
    45e0:	5f 42 02 00 	mov.b	&0x0002,r15	
    45e4:	3f f0 40 00 	and	#64,	r15	;#0x0040
    45e8:	fb 27       	jz	$-8      	;abs 0x45e0
    45ea:	f2 f0 bf ff 02 00 	and.b	#-65,	&0x0002	;#0xffbf
    45f0:	5f 42 76 00 	mov.b	&0x0076,r15	
    45f4:	30 41       	ret			

000045f6 <OneWireMasterC__BusyWait__wait>:
    45f6:	1e 42 70 01 	mov	&0x0170,r14	
    45fa:	3f 90 01 80 	cmp	#-32767,r15	;#0x8001
    45fe:	0a 28       	jnc	$+22     	;abs 0x4614
    4600:	3f 50 00 80 	add	#-32768,r15	;#0x8000
    4604:	1d 42 70 01 	mov	&0x0170,r13	
    4608:	0d 8e       	sub	r14,	r13	
    460a:	0f 9d       	cmp	r13,	r15	
    460c:	fb 2f       	jc	$-8      	;abs 0x4604
    460e:	0e 5f       	add	r15,	r14	
    4610:	3f 40 00 80 	mov	#-32768,r15	;#0x8000
    4614:	1d 42 70 01 	mov	&0x0170,r13	
    4618:	0d 8e       	sub	r14,	r13	
    461a:	0f 9d       	cmp	r13,	r15	
    461c:	fb 2f       	jc	$-8      	;abs 0x4614
    461e:	30 41       	ret			

00004620 <OneWireMasterC__Pin__makeInput>:
    4620:	f2 f0 ef ff 2a 00 	and.b	#-17,	&0x002a	;#0xffef
    4626:	30 41       	ret			

00004628 <OneWireMasterC__Pin__makeOutput>:
    4628:	f2 d0 10 00 2a 00 	bis.b	#16,	&0x002a	;#0x0010
    462e:	30 41       	ret			

00004630 <Msp430TimerP__1__Timer__get>:
    4630:	1f 42 90 01 	mov	&0x0190,r15	
    4634:	01 3c       	jmp	$+4      	;abs 0x4638
    4636:	0f 4e       	mov	r14,	r15	
    4638:	1e 42 90 01 	mov	&0x0190,r14	
    463c:	0f 9e       	cmp	r14,	r15	
    463e:	fb 23       	jnz	$-8      	;abs 0x4636
    4640:	30 41       	ret			

00004642 <GpioCaptureC__0__enableCapture>:
    4642:	b2 f0 ef ff 84 01 	and	#-17,	&0x0184	;#0xffef
    4648:	e2 d3 1f 00 	bis.b	#2,	&0x001f	;r3 As==10
    464c:	b2 f0 fe ff 84 01 	and	#-2,	&0x0184	;#0xfffe
    4652:	b2 f0 fd ff 84 01 	and	#-3,	&0x0184	;#0xfffd
    4658:	4f 4f       	mov.b	r15,	r15	
    465a:	8f 10       	swpb	r15		
    465c:	7e 40 06 00 	mov.b	#6,	r14	;#0x0006
    4660:	0f 5f       	rla	r15		
    4662:	7e 53       	add.b	#-1,	r14	;r3 As==11
    4664:	fd 23       	jnz	$-4      	;abs 0x4660
    4666:	3f d0 00 01 	bis	#256,	r15	;#0x0100
    466a:	82 4f 84 01 	mov	r15,	&0x0184	
    466e:	b2 d0 10 00 84 01 	bis	#16,	&0x0184	;#0x0010
    4674:	0f 43       	clr	r15		
    4676:	30 41       	ret			

00004678 <MotePlatformC__TOSH_FLASH_M25P_DP_bit>:
    4678:	4f 93       	tst.b	r15		
    467a:	04 24       	jz	$+10     	;abs 0x4684
    467c:	5f 42 19 00 	mov.b	&0x0019,r15	
    4680:	6f d3       	bis.b	#2,	r15	;r3 As==10
    4682:	04 3c       	jmp	$+10     	;abs 0x468c
    4684:	5f 42 19 00 	mov.b	&0x0019,r15	
    4688:	7f f0 fd ff 	and.b	#-3,	r15	;#0xfffd
    468c:	c2 4f 19 00 	mov.b	r15,	&0x0019	
    4690:	f2 d2 19 00 	bis.b	#8,	&0x0019	;r2 As==11
    4694:	f2 f0 f7 ff 19 00 	and.b	#-9,	&0x0019	;#0xfff7
    469a:	30 41       	ret			

0000469c <CC2420PacketP__getNetwork>:
    469c:	5c 4f 02 00 	mov.b	2(r15),	r12	;0x0002(r15)
    46a0:	8c 10       	swpb	r12		
    46a2:	5e 4f 01 00 	mov.b	1(r15),	r14	;0x0001(r15)
    46a6:	0c de       	bis	r14,	r12	
    46a8:	0e 4c       	mov	r12,	r14	
    46aa:	8e 10       	swpb	r14		
    46ac:	4e 4e       	mov.b	r14,	r14	
    46ae:	12 c3       	clrc			
    46b0:	0e 10       	rrc	r14		
    46b2:	12 c3       	clrc			
    46b4:	0e 10       	rrc	r14		
    46b6:	3e f0 03 00 	and	#3,	r14	;#0x0003
    46ba:	5d 4e 02 7c 	mov.b	31746(r14),r13	;0x7c02(r14)
    46be:	8d 11       	sxt	r13		
    46c0:	0e 4c       	mov	r12,	r14	
    46c2:	8e 10       	swpb	r14		
    46c4:	4e 4e       	mov.b	r14,	r14	
    46c6:	7c 40 06 00 	mov.b	#6,	r12	;#0x0006
    46ca:	12 c3       	clrc			
    46cc:	0e 10       	rrc	r14		
    46ce:	7c 53       	add.b	#-1,	r12	;r3 As==11
    46d0:	fc 23       	jnz	$-6      	;abs 0x46ca
    46d2:	5e 4e 02 7c 	mov.b	31746(r14),r14	;0x7c02(r14)
    46d6:	8e 11       	sxt	r14		
    46d8:	0e 5d       	add	r13,	r14	
    46da:	3e 50 06 00 	add	#6,	r14	;#0x0006
    46de:	0f 5e       	add	r14,	r15	
    46e0:	30 41       	ret			

000046e2 <SenderC__DQIInit>:
    46e2:	c2 43 ec 1c 	mov.b	#0,	&0x1cec	;r3 As==00
    46e6:	82 43 96 1f 	mov	#0,	&0x1f96	;r3 As==00
    46ea:	82 43 8a 1b 	mov	#0,	&0x1b8a	;r3 As==00
    46ee:	82 43 e0 1b 	mov	#0,	&0x1be0	;r3 As==00
    46f2:	b2 40 0f 27 72 1c 	mov	#9999,	&0x1c72	;#0x270f
    46f8:	c2 43 7b 1c 	mov.b	#0,	&0x1c7b	;r3 As==00
    46fc:	82 43 52 1a 	mov	#0,	&0x1a52	;r3 As==00
    4700:	3f 40 46 1a 	mov	#6726,	r15	;#0x1a46
    4704:	8f 43 00 00 	mov	#0,	0(r15)	;r3 As==00, 0x0000(r15)
    4708:	8f 43 02 00 	mov	#0,	2(r15)	;r3 As==00, 0x0002(r15)
    470c:	8f 43 04 00 	mov	#0,	4(r15)	;r3 As==00, 0x0004(r15)
    4710:	8f 43 06 00 	mov	#0,	6(r15)	;r3 As==00, 0x0006(r15)
    4714:	8f 43 08 00 	mov	#0,	8(r15)	;r3 As==00, 0x0008(r15)
    4718:	30 41       	ret			

0000471a <pq_exchange>:
    471a:	0b 12       	push	r11		
    471c:	0a 12       	push	r10		
    471e:	09 12       	push	r9		
    4720:	31 50 fa ff 	add	#-6,	r1	;#0xfffa
    4724:	0b 4f       	mov	r15,	r11	
    4726:	09 4d       	mov	r13,	r9	
    4728:	0c 4e       	mov	r14,	r12	
    472a:	0c 5c       	rla	r12		
    472c:	0e 5c       	add	r12,	r14	
    472e:	0e 5e       	rla	r14		
    4730:	0a 4f       	mov	r15,	r10	
    4732:	0a 5e       	add	r14,	r10	
    4734:	3d 40 06 00 	mov	#6,	r13	;#0x0006
    4738:	0e 4a       	mov	r10,	r14	
    473a:	0f 41       	mov	r1,	r15	
    473c:	b0 12 ba 78 	call	#0x78ba	
    4740:	0c 49       	mov	r9,	r12	
    4742:	0c 5c       	rla	r12		
    4744:	0d 4c       	mov	r12,	r13	
    4746:	0d 59       	add	r9,	r13	
    4748:	0d 5d       	rla	r13		
    474a:	0b 5d       	add	r13,	r11	
    474c:	3d 40 06 00 	mov	#6,	r13	;#0x0006
    4750:	0e 4b       	mov	r11,	r14	
    4752:	0f 4a       	mov	r10,	r15	
    4754:	b0 12 ba 78 	call	#0x78ba	
    4758:	3d 40 06 00 	mov	#6,	r13	;#0x0006
    475c:	0e 41       	mov	r1,	r14	
    475e:	0f 4b       	mov	r11,	r15	
    4760:	b0 12 ba 78 	call	#0x78ba	
    4764:	31 50 06 00 	add	#6,	r1	;#0x0006
    4768:	39 41       	pop	r9		
    476a:	3a 41       	pop	r10		
    476c:	3b 41       	pop	r11		
    476e:	30 41       	ret			

00004770 <CC2420ReceiveP__reset_state>:
    4770:	f2 40 80 ff 50 1a 	mov.b	#-128,	&0x1a50	;#0xff80
    4776:	c2 43 de 1b 	mov.b	#0,	&0x1bde	;r3 As==00
    477a:	c2 43 4c 1f 	mov.b	#0,	&0x1f4c	;r3 As==00
    477e:	c2 43 ed 1c 	mov.b	#0,	&0x1ced	;r3 As==00
    4782:	c2 43 d7 1b 	mov.b	#0,	&0x1bd7	;r3 As==00
    4786:	30 41       	ret			

00004788 <DallasId48ToIeeeEui64C__LocalIeeeEui64__getId>:
    4788:	0b 12       	push	r11		
    478a:	0a 12       	push	r10		
    478c:	09 12       	push	r9		
    478e:	08 12       	push	r8		
    4790:	31 50 f2 ff 	add	#-14,	r1	;#0xfff2
    4794:	c2 93 ec 18 	tst.b	&0x18ec	
    4798:	81 20       	jnz	$+260    	;abs 0x489c
    479a:	b0 12 20 46 	call	#0x4620	
    479e:	f2 f0 ef ff 29 00 	and.b	#-17,	&0x0029	;#0xffef
    47a4:	b0 12 28 46 	call	#0x4628	
    47a8:	3f 40 30 02 	mov	#560,	r15	;#0x0230
    47ac:	b0 12 f6 45 	call	#0x45f6	
    47b0:	b0 12 20 46 	call	#0x4620	
    47b4:	3f 40 3c 00 	mov	#60,	r15	;#0x003c
    47b8:	b0 12 f6 45 	call	#0x45f6	
    47bc:	0b 43       	clr	r11		
    47be:	f2 b0 10 00 28 00 	bit.b	#16,	&0x0028	;#0x0010
    47c4:	09 24       	jz	$+20     	;abs 0x47d8
    47c6:	3b 50 05 00 	add	#5,	r11	;#0x0005
    47ca:	3f 40 05 00 	mov	#5,	r15	;#0x0005
    47ce:	b0 12 f6 45 	call	#0x45f6	
    47d2:	3b 90 f0 00 	cmp	#240,	r11	;#0x00f0
    47d6:	f3 23       	jnz	$-24     	;abs 0x47be
    47d8:	3f 40 a4 01 	mov	#420,	r15	;#0x01a4
    47dc:	b0 12 f6 45 	call	#0x45f6	
    47e0:	3b 90 f0 00 	cmp	#240,	r11	;#0x00f0
    47e4:	5d 2c       	jc	$+188    	;abs 0x48a0
    47e6:	7a 42       	mov.b	#8,	r10	;r2 As==11
    47e8:	7b 40 33 00 	mov.b	#51,	r11	;#0x0033
    47ec:	1b b3       	bit	#1,	r11	;r3 As==01
    47ee:	0b 24       	jz	$+24     	;abs 0x4806
    47f0:	b0 12 28 46 	call	#0x4628	
    47f4:	3f 40 05 00 	mov	#5,	r15	;#0x0005
    47f8:	b0 12 f6 45 	call	#0x45f6	
    47fc:	b0 12 20 46 	call	#0x4620	
    4800:	3f 40 41 00 	mov	#65,	r15	;#0x0041
    4804:	0a 3c       	jmp	$+22     	;abs 0x481a
    4806:	b0 12 28 46 	call	#0x4628	
    480a:	3f 40 3c 00 	mov	#60,	r15	;#0x003c
    480e:	b0 12 f6 45 	call	#0x45f6	
    4812:	b0 12 20 46 	call	#0x4620	
    4816:	3f 40 05 00 	mov	#5,	r15	;#0x0005
    481a:	b0 12 f6 45 	call	#0x45f6	
    481e:	12 c3       	clrc			
    4820:	4b 10       	rrc.b	r11		
    4822:	7a 53       	add.b	#-1,	r10	;r3 As==11
    4824:	e3 23       	jnz	$-56     	;abs 0x47ec
    4826:	3a 40 7c 1c 	mov	#7292,	r10	;#0x1c7c
    482a:	79 42       	mov.b	#8,	r9	;r2 As==11
    482c:	4b 43       	clr.b	r11		
    482e:	12 c3       	clrc			
    4830:	4b 10       	rrc.b	r11		
    4832:	b0 12 28 46 	call	#0x4628	
    4836:	3f 40 05 00 	mov	#5,	r15	;#0x0005
    483a:	b0 12 f6 45 	call	#0x45f6	
    483e:	b0 12 20 46 	call	#0x4620	
    4842:	3f 40 05 00 	mov	#5,	r15	;#0x0005
    4846:	b0 12 f6 45 	call	#0x45f6	
    484a:	58 42 28 00 	mov.b	&0x0028,r8	
    484e:	3f 40 41 00 	mov	#65,	r15	;#0x0041
    4852:	b0 12 f6 45 	call	#0x45f6	
    4856:	78 b0 10 00 	bit.b	#16,	r8	;#0x0010
    485a:	02 24       	jz	$+6      	;abs 0x4860
    485c:	7b d0 80 ff 	bis.b	#-128,	r11	;#0xff80
    4860:	79 53       	add.b	#-1,	r9	;r3 As==11
    4862:	e5 23       	jnz	$-52     	;abs 0x482e
    4864:	ca 4b 00 00 	mov.b	r11,	0(r10)	;0x0000(r10)
    4868:	1a 53       	inc	r10		
    486a:	3a 90 84 1c 	cmp	#7300,	r10	;#0x1c84
    486e:	dd 23       	jnz	$-68     	;abs 0x482a
    4870:	0e 43       	clr	r14		
    4872:	4f 43       	clr.b	r15		
    4874:	5f ee 7c 1c 	xor.b	7292(r14),r15	;0x1c7c(r14)
    4878:	7d 42       	mov.b	#8,	r13	;r2 As==11
    487a:	0c 4f       	mov	r15,	r12	
    487c:	1c f3       	and	#1,	r12	;r3 As==01
    487e:	12 c3       	clrc			
    4880:	4f 10       	rrc.b	r15		
    4882:	0c 93       	tst	r12		
    4884:	02 24       	jz	$+6      	;abs 0x488a
    4886:	7f e0 8c ff 	xor.b	#-116,	r15	;#0xff8c
    488a:	7d 53       	add.b	#-1,	r13	;r3 As==11
    488c:	f6 23       	jnz	$-18     	;abs 0x487a
    488e:	1e 53       	inc	r14		
    4890:	3e 92       	cmp	#8,	r14	;r2 As==11
    4892:	f0 23       	jnz	$-30     	;abs 0x4874
    4894:	4f 93       	tst.b	r15		
    4896:	06 20       	jnz	$+14     	;abs 0x48a4
    4898:	d2 43 ec 18 	mov.b	#1,	&0x18ec	;r3 As==01
    489c:	0e 43       	clr	r14		
    489e:	04 3c       	jmp	$+10     	;abs 0x48a8
    48a0:	2e 42       	mov	#4,	r14	;r2 As==10
    48a2:	02 3c       	jmp	$+6      	;abs 0x48a8
    48a4:	3e 40 06 00 	mov	#6,	r14	;#0x0006
    48a8:	c2 93 ec 18 	tst.b	&0x18ec	
    48ac:	0a 24       	jz	$+22     	;abs 0x48c2
    48ae:	0f 43       	clr	r15		
    48b0:	0d 41       	mov	r1,	r13	
    48b2:	0d 5f       	add	r15,	r13	
    48b4:	dd 4f 7d 1c 00 00 	mov.b	7293(r15),0(r13)	;0x1c7d(r15), 0x0000(r13)
    48ba:	1f 53       	inc	r15		
    48bc:	3f 90 06 00 	cmp	#6,	r15	;#0x0006
    48c0:	f7 23       	jnz	$-16     	;abs 0x48b0
    48c2:	0e 93       	tst	r14		
    48c4:	08 24       	jz	$+18     	;abs 0x48d6
    48c6:	3d 42       	mov	#8,	r13	;r2 As==11
    48c8:	0e 43       	clr	r14		
    48ca:	0f 41       	mov	r1,	r15	
    48cc:	3f 50 06 00 	add	#6,	r15	;#0x0006
    48d0:	b0 12 b4 79 	call	#0x79b4	
    48d4:	16 3c       	jmp	$+46     	;abs 0x4902
    48d6:	c1 43 06 00 	mov.b	#0,	6(r1)	;r3 As==00, 0x0006(r1)
    48da:	f1 40 12 00 07 00 	mov.b	#18,	7(r1)	;#0x0012, 0x0007(r1)
    48e0:	f1 40 6d 00 08 00 	mov.b	#109,	8(r1)	;#0x006d, 0x0008(r1)
    48e6:	f1 40 45 00 09 00 	mov.b	#69,	9(r1)	;#0x0045, 0x0009(r1)
    48ec:	f1 40 50 00 0a 00 	mov.b	#80,	10(r1)	;#0x0050, 0x000a(r1)
    48f2:	d1 41 02 00 0b 00 	mov.b	2(r1),	11(r1)	;0x0002(r1), 0x000b(r1)
    48f8:	d1 41 01 00 0c 00 	mov.b	1(r1),	12(r1)	;0x0001(r1), 0x000c(r1)
    48fe:	e1 41 0d 00 	mov.b	@r1,	13(r1)	;0x000d(r1)
    4902:	1c 41 06 00 	mov	6(r1),	r12	;0x0006(r1)
    4906:	1d 41 08 00 	mov	8(r1),	r13	;0x0008(r1)
    490a:	1e 41 0a 00 	mov	10(r1),	r14	;0x000a(r1)
    490e:	1f 41 0c 00 	mov	12(r1),	r15	;0x000c(r1)
    4912:	31 50 0e 00 	add	#14,	r1	;#0x000e
    4916:	38 41       	pop	r8		
    4918:	39 41       	pop	r9		
    491a:	3a 41       	pop	r10		
    491c:	3b 41       	pop	r11		
    491e:	30 41       	ret			

00004920 <qACK_front>:
    4920:	0b 12       	push	r11		
    4922:	0e 4f       	mov	r15,	r14	
    4924:	1d 4f 04 00 	mov	4(r15),	r13	;0x0004(r15)
    4928:	0d 93       	tst	r13		
    492a:	0b 24       	jz	$+24     	;abs 0x4942
    492c:	2f 4f       	mov	@r15,	r15	
    492e:	2b 4f       	mov	@r15,	r11	
    4930:	9e 4f 06 00 00 00 	mov	6(r15),	0(r14)	;0x0006(r15), 0x0000(r14)
    4936:	3d 53       	add	#-1,	r13	;r3 As==11
    4938:	8e 4d 04 00 	mov	r13,	4(r14)	;0x0004(r14)
    493c:	b0 12 26 7b 	call	#0x7b26	
    4940:	01 3c       	jmp	$+4      	;abs 0x4944
    4942:	0b 43       	clr	r11		
    4944:	0f 4b       	mov	r11,	r15	
    4946:	3b 41       	pop	r11		
    4948:	30 41       	ret			

0000494a <qACK_enqueue>:
    494a:	0b 12       	push	r11		
    494c:	0a 12       	push	r10		
    494e:	09 12       	push	r9		
    4950:	08 12       	push	r8		
    4952:	0b 4f       	mov	r15,	r11	
    4954:	08 4e       	mov	r14,	r8	
    4956:	09 4d       	mov	r13,	r9	
    4958:	0a 4c       	mov	r12,	r10	
    495a:	3f 42       	mov	#8,	r15	;r2 As==11
    495c:	b0 12 1e 7a 	call	#0x7a1e	
    4960:	8f 48 00 00 	mov	r8,	0(r15)	;0x0000(r15)
    4964:	8f 49 02 00 	mov	r9,	2(r15)	;0x0002(r15)
    4968:	8f 4a 04 00 	mov	r10,	4(r15)	;0x0004(r15)
    496c:	8f 43 06 00 	mov	#0,	6(r15)	;r3 As==00, 0x0006(r15)
    4970:	8b 93 00 00 	tst	0(r11)		;0x0000(r11)
    4974:	05 20       	jnz	$+12     	;abs 0x4980
    4976:	8b 4f 02 00 	mov	r15,	2(r11)	;0x0002(r11)
    497a:	8b 4f 00 00 	mov	r15,	0(r11)	;0x0000(r11)
    497e:	06 3c       	jmp	$+14     	;abs 0x498c
    4980:	1e 4b 02 00 	mov	2(r11),	r14	;0x0002(r11)
    4984:	8e 4f 06 00 	mov	r15,	6(r14)	;0x0006(r14)
    4988:	8b 4f 02 00 	mov	r15,	2(r11)	;0x0002(r11)
    498c:	9b 53 04 00 	inc	4(r11)		;0x0004(r11)
    4990:	38 41       	pop	r8		
    4992:	39 41       	pop	r9		
    4994:	3a 41       	pop	r10		
    4996:	3b 41       	pop	r11		
    4998:	30 41       	ret			

0000499a <Msp430SpiNoDmaP__0__continueOp>:
    499a:	0b 12       	push	r11		
    499c:	0f 42       	mov	r2,	r15	
    499e:	3f f2       	and	#8,	r15	;r2 As==11
    49a0:	32 c2       	dint			
    49a2:	03 43       	nop			
    49a4:	1d 42 f4 1b 	mov	&0x1bf4,r13	
    49a8:	1e 42 4a 1f 	mov	&0x1f4a,r14	
    49ac:	0d 93       	tst	r13		
    49ae:	03 24       	jz	$+8      	;abs 0x49b6
    49b0:	0d 5e       	add	r14,	r13	
    49b2:	6d 4d       	mov.b	@r13,	r13	
    49b4:	01 3c       	jmp	$+4      	;abs 0x49b8
    49b6:	4d 43       	clr.b	r13		
    49b8:	c2 4d 77 00 	mov.b	r13,	&0x0077	
    49bc:	6e 53       	incd.b	r14		
    49be:	1d 42 4e 1f 	mov	&0x1f4e,r13	
    49c2:	4c 4e       	mov.b	r14,	r12	
    49c4:	0d 9c       	cmp	r12,	r13	
    49c6:	1c 2c       	jc	$+58     	;abs 0x4a00
    49c8:	4e 4d       	mov.b	r13,	r14	
    49ca:	1a 3c       	jmp	$+54     	;abs 0x4a00
    49cc:	5d 42 02 00 	mov.b	&0x0002,r13	
    49d0:	3d f0 40 00 	and	#64,	r13	;#0x0040
    49d4:	fb 27       	jz	$-8      	;abs 0x49cc
    49d6:	5b 42 76 00 	mov.b	&0x0076,r11	
    49da:	1d 42 70 1c 	mov	&0x1c70,r13	
    49de:	0d 93       	tst	r13		
    49e0:	03 24       	jz	$+8      	;abs 0x49e8
    49e2:	0c 5d       	add	r13,	r12	
    49e4:	cc 4b 00 00 	mov.b	r11,	0(r12)	;0x0000(r12)
    49e8:	1d 42 f4 1b 	mov	&0x1bf4,r13	
    49ec:	0d 93       	tst	r13		
    49ee:	04 24       	jz	$+10     	;abs 0x49f8
    49f0:	1d 52 4a 1f 	add	&0x1f4a,r13	
    49f4:	6d 4d       	mov.b	@r13,	r13	
    49f6:	01 3c       	jmp	$+4      	;abs 0x49fa
    49f8:	4d 43       	clr.b	r13		
    49fa:	c2 4d 77 00 	mov.b	r13,	&0x0077	
    49fe:	01 3c       	jmp	$+4      	;abs 0x4a02
    4a00:	4e 4e       	mov.b	r14,	r14	
    4a02:	1c 42 4a 1f 	mov	&0x1f4a,r12	
    4a06:	0d 4c       	mov	r12,	r13	
    4a08:	1d 53       	inc	r13		
    4a0a:	82 4d 4a 1f 	mov	r13,	&0x1f4a	
    4a0e:	0d 9e       	cmp	r14,	r13	
    4a10:	dd 2b       	jnc	$-68     	;abs 0x49cc
    4a12:	0f 93       	tst	r15		
    4a14:	01 24       	jz	$+4      	;abs 0x4a18
    4a16:	32 d2       	eint			
    4a18:	3b 41       	pop	r11		
    4a1a:	30 41       	ret			

00004a1c <CC2420SpiP__WorkingState__isIdle>:
    4a1c:	0e 42       	mov	r2,	r14	
    4a1e:	32 c2       	dint			
    4a20:	03 43       	nop			
    4a22:	5f 43       	mov.b	#1,	r15	;r3 As==01
    4a24:	c2 93 76 1c 	tst.b	&0x1c76	
    4a28:	01 24       	jz	$+4      	;abs 0x4a2c
    4a2a:	4f 43       	clr.b	r15		
    4a2c:	3e f2       	and	#8,	r14	;r2 As==11
    4a2e:	01 24       	jz	$+4      	;abs 0x4a32
    4a30:	32 d2       	eint			
    4a32:	30 41       	ret			

00004a34 <CC2420SpiP__Strobe__strobe>:
    4a34:	0b 12       	push	r11		
    4a36:	0a 12       	push	r10		
    4a38:	4a 4f       	mov.b	r15,	r10	
    4a3a:	0b 42       	mov	r2,	r11	
    4a3c:	3b f2       	and	#8,	r11	;r2 As==11
    4a3e:	32 c2       	dint			
    4a40:	03 43       	nop			
    4a42:	b0 12 1c 4a 	call	#0x4a1c	
    4a46:	4f 93       	tst.b	r15		
    4a48:	04 24       	jz	$+10     	;abs 0x4a52
    4a4a:	0b 93       	tst	r11		
    4a4c:	09 24       	jz	$+20     	;abs 0x4a60
    4a4e:	32 d2       	eint			
    4a50:	07 3c       	jmp	$+16     	;abs 0x4a60
    4a52:	0b 93       	tst	r11		
    4a54:	01 24       	jz	$+4      	;abs 0x4a58
    4a56:	32 d2       	eint			
    4a58:	4f 4a       	mov.b	r10,	r15	
    4a5a:	b0 12 dc 45 	call	#0x45dc	
    4a5e:	01 3c       	jmp	$+4      	;abs 0x4a62
    4a60:	4f 43       	clr.b	r15		
    4a62:	3a 41       	pop	r10		
    4a64:	3b 41       	pop	r11		
    4a66:	30 41       	ret			

00004a68 <CC2420CsmaP__SplitControlState__isState>:
    4a68:	4e 4f       	mov.b	r15,	r14	
    4a6a:	0d 42       	mov	r2,	r13	
    4a6c:	32 c2       	dint			
    4a6e:	03 43       	nop			
    4a70:	5f 43       	mov.b	#1,	r15	;r3 As==01
    4a72:	5e 92 77 1c 	cmp.b	&0x1c77,r14	
    4a76:	01 24       	jz	$+4      	;abs 0x4a7a
    4a78:	4f 43       	clr.b	r15		
    4a7a:	3d b2       	bit	#8,	r13	;r2 As==11
    4a7c:	01 24       	jz	$+4      	;abs 0x4a80
    4a7e:	32 d2       	eint			
    4a80:	30 41       	ret			

00004a82 <Msp430GpioC__1__GeneralIO__clr>:
    4a82:	0f 42       	mov	r2,	r15	
    4a84:	32 c2       	dint			
    4a86:	03 43       	nop			
    4a88:	f2 f0 fb ff 1d 00 	and.b	#-5,	&0x001d	;#0xfffb
    4a8e:	3f f2       	and	#8,	r15	;r2 As==11
    4a90:	01 24       	jz	$+4      	;abs 0x4a94
    4a92:	32 d2       	eint			
    4a94:	30 41       	ret			

00004a96 <SchedulerBasicP__TaskBasic__postTask>:
    4a96:	0e 42       	mov	r2,	r14	
    4a98:	3e f2       	and	#8,	r14	;r2 As==11
    4a9a:	32 c2       	dint			
    4a9c:	03 43       	nop			
    4a9e:	4d 4f       	mov.b	r15,	r13	
    4aa0:	fd 93 8e 1b 	cmp.b	#-1,	7054(r13);r3 As==11, 0x1b8e(r13)
    4aa4:	06 20       	jnz	$+14     	;abs 0x4ab2
    4aa6:	1d 43       	mov	#1,	r13	;r3 As==01
    4aa8:	c2 9f 5f 1f 	cmp.b	r15,	&0x1f5f	
    4aac:	03 24       	jz	$+8      	;abs 0x4ab4
    4aae:	0d 43       	clr	r13		
    4ab0:	01 3c       	jmp	$+4      	;abs 0x4ab4
    4ab2:	1d 43       	mov	#1,	r13	;r3 As==01
    4ab4:	0d 93       	tst	r13		
    4ab6:	0e 20       	jnz	$+30     	;abs 0x4ad4
    4ab8:	f2 93 ee 1c 	cmp.b	#-1,	&0x1cee	;r3 As==11
    4abc:	03 20       	jnz	$+8      	;abs 0x4ac4
    4abe:	c2 4f ee 1c 	mov.b	r15,	&0x1cee	
    4ac2:	04 3c       	jmp	$+10     	;abs 0x4acc
    4ac4:	5d 42 5f 1f 	mov.b	&0x1f5f,r13	
    4ac8:	cd 4f 8e 1b 	mov.b	r15,	7054(r13);0x1b8e(r13)
    4acc:	c2 4f 5f 1f 	mov.b	r15,	&0x1f5f	
    4ad0:	0f 43       	clr	r15		
    4ad2:	02 3c       	jmp	$+6      	;abs 0x4ad8
    4ad4:	3f 40 05 00 	mov	#5,	r15	;#0x0005
    4ad8:	0e 93       	tst	r14		
    4ada:	01 24       	jz	$+4      	;abs 0x4ade
    4adc:	32 d2       	eint			
    4ade:	30 41       	ret			

00004ae0 <CC2420SpiP__WorkingState__toIdle>:
    4ae0:	0f 42       	mov	r2,	r15	
    4ae2:	32 c2       	dint			
    4ae4:	03 43       	nop			
    4ae6:	c2 43 76 1c 	mov.b	#0,	&0x1c76	;r3 As==00
    4aea:	3f f2       	and	#8,	r15	;r2 As==11
    4aec:	01 24       	jz	$+4      	;abs 0x4af0
    4aee:	32 d2       	eint			
    4af0:	30 41       	ret			

00004af2 <UniqueSendP__State__toIdle>:
    4af2:	0f 42       	mov	r2,	r15	
    4af4:	32 c2       	dint			
    4af6:	03 43       	nop			
    4af8:	c2 43 78 1c 	mov.b	#0,	&0x1c78	;r3 As==00
    4afc:	3f f2       	and	#8,	r15	;r2 As==11
    4afe:	01 24       	jz	$+4      	;abs 0x4b02
    4b00:	32 d2       	eint			
    4b02:	30 41       	ret			

00004b04 <Msp430GpioC__1__GeneralIO__set>:
    4b04:	0f 42       	mov	r2,	r15	
    4b06:	32 c2       	dint			
    4b08:	03 43       	nop			
    4b0a:	e2 d2 1d 00 	bis.b	#4,	&0x001d	;r2 As==10
    4b0e:	3f f2       	and	#8,	r15	;r2 As==11
    4b10:	01 24       	jz	$+4      	;abs 0x4b14
    4b12:	32 d2       	eint			
    4b14:	30 41       	ret			

00004b16 <TransformAlarmC__0__Counter__get>:
    4b16:	0b 12       	push	r11		
    4b18:	0a 12       	push	r10		
    4b1a:	09 12       	push	r9		
    4b1c:	0a 42       	mov	r2,	r10	
    4b1e:	3a f2       	and	#8,	r10	;r2 As==11
    4b20:	32 c2       	dint			
    4b22:	03 43       	nop			
    4b24:	19 42 1a 1c 	mov	&0x1c1a,r9	
    4b28:	b0 12 30 46 	call	#0x4630	
    4b2c:	0b 4f       	mov	r15,	r11	
    4b2e:	1f 42 80 01 	mov	&0x0180,r15	
    4b32:	5f f3       	and.b	#1,	r15	;r3 As==01
    4b34:	04 24       	jz	$+10     	;abs 0x4b3e
    4b36:	19 53       	inc	r9		
    4b38:	b0 12 30 46 	call	#0x4630	
    4b3c:	0b 4f       	mov	r15,	r11	
    4b3e:	0c 43       	clr	r12		
    4b40:	0d 43       	clr	r13		
    4b42:	0d 49       	mov	r9,	r13	
    4b44:	0e 4b       	mov	r11,	r14	
    4b46:	0f 43       	clr	r15		
    4b48:	0e dc       	bis	r12,	r14	
    4b4a:	0f dd       	bis	r13,	r15	
    4b4c:	0a 93       	tst	r10		
    4b4e:	01 24       	jz	$+4      	;abs 0x4b52
    4b50:	32 d2       	eint			
    4b52:	39 41       	pop	r9		
    4b54:	3a 41       	pop	r10		
    4b56:	3b 41       	pop	r11		
    4b58:	30 41       	ret			

00004b5a <TransformAlarmC__0__set_alarm>:
    4b5a:	0b 12       	push	r11		
    4b5c:	0a 12       	push	r10		
    4b5e:	09 12       	push	r9		
    4b60:	08 12       	push	r8		
    4b62:	b0 12 16 4b 	call	#0x4b16	
    4b66:	08 4e       	mov	r14,	r8	
    4b68:	09 4f       	mov	r15,	r9	
    4b6a:	1e 42 fc 1b 	mov	&0x1bfc,r14	
    4b6e:	1f 42 fe 1b 	mov	&0x1bfe,r15	
    4b72:	0a 4e       	mov	r14,	r10	
    4b74:	0b 4f       	mov	r15,	r11	
    4b76:	1a 52 f6 1b 	add	&0x1bf6,r10	
    4b7a:	1b 62 f8 1b 	addc	&0x1bf8,r11	
    4b7e:	09 9f       	cmp	r15,	r9	
    4b80:	09 28       	jnc	$+20     	;abs 0x4b94
    4b82:	02 20       	jnz	$+6      	;abs 0x4b88
    4b84:	08 9e       	cmp	r14,	r8	
    4b86:	06 28       	jnc	$+14     	;abs 0x4b94
    4b88:	0b 9f       	cmp	r15,	r11	
    4b8a:	10 28       	jnc	$+34     	;abs 0x4bac
    4b8c:	09 20       	jnz	$+20     	;abs 0x4ba0
    4b8e:	0a 9e       	cmp	r14,	r10	
    4b90:	0d 28       	jnc	$+28     	;abs 0x4bac
    4b92:	06 3c       	jmp	$+14     	;abs 0x4ba0
    4b94:	0b 9f       	cmp	r15,	r11	
    4b96:	04 28       	jnc	$+10     	;abs 0x4ba0
    4b98:	0f 9b       	cmp	r11,	r15	
    4b9a:	27 28       	jnc	$+80     	;abs 0x4bea
    4b9c:	0a 9e       	cmp	r14,	r10	
    4b9e:	25 2c       	jc	$+76     	;abs 0x4bea
    4ba0:	09 9b       	cmp	r11,	r9	
    4ba2:	04 28       	jnc	$+10     	;abs 0x4bac
    4ba4:	0b 99       	cmp	r9,	r11	
    4ba6:	21 28       	jnc	$+68     	;abs 0x4bea
    4ba8:	08 9a       	cmp	r10,	r8	
    4baa:	1f 2c       	jc	$+64     	;abs 0x4bea
    4bac:	0c 4a       	mov	r10,	r12	
    4bae:	0d 4b       	mov	r11,	r13	
    4bb0:	0c 88       	sub	r8,	r12	
    4bb2:	0d 79       	subc	r9,	r13	
    4bb4:	0d 93       	tst	r13		
    4bb6:	03 20       	jnz	$+8      	;abs 0x4bbe
    4bb8:	3c 90 01 80 	cmp	#-32767,r12	;#0x8001
    4bbc:	18 28       	jnc	$+50     	;abs 0x4bee
    4bbe:	0e 48       	mov	r8,	r14	
    4bc0:	0f 49       	mov	r9,	r15	
    4bc2:	3e 50 00 80 	add	#-32768,r14	;#0x8000
    4bc6:	0f 63       	adc	r15		
    4bc8:	82 4e fc 1b 	mov	r14,	&0x1bfc	
    4bcc:	82 4f fe 1b 	mov	r15,	&0x1bfe	
    4bd0:	0e 4c       	mov	r12,	r14	
    4bd2:	0f 4d       	mov	r13,	r15	
    4bd4:	3e 50 00 80 	add	#-32768,r14	;#0x8000
    4bd8:	3f 63       	addc	#-1,	r15	;r3 As==11
    4bda:	82 4e f6 1b 	mov	r14,	&0x1bf6	
    4bde:	82 4f f8 1b 	mov	r15,	&0x1bf8	
    4be2:	3c 40 00 80 	mov	#-32768,r12	;#0x8000
    4be6:	0d 43       	clr	r13		
    4be8:	0a 3c       	jmp	$+22     	;abs 0x4bfe
    4bea:	0c 43       	clr	r12		
    4bec:	0d 43       	clr	r13		
    4bee:	82 4a fc 1b 	mov	r10,	&0x1bfc	
    4bf2:	82 4b fe 1b 	mov	r11,	&0x1bfe	
    4bf6:	82 43 f6 1b 	mov	#0,	&0x1bf6	;r3 As==00
    4bfa:	82 43 f8 1b 	mov	#0,	&0x1bf8	;r3 As==00
    4bfe:	0a 4c       	mov	r12,	r10	
    4c00:	b0 12 30 46 	call	#0x4630	
    4c04:	0e 4f       	mov	r15,	r14	
    4c06:	0e 88       	sub	r8,	r14	
    4c08:	0e 9a       	cmp	r10,	r14	
    4c0a:	05 2c       	jc	$+12     	;abs 0x4c16
    4c0c:	0c 4a       	mov	r10,	r12	
    4c0e:	0c 8e       	sub	r14,	r12	
    4c10:	3c 90 03 00 	cmp	#3,	r12	;#0x0003
    4c14:	06 2c       	jc	$+14     	;abs 0x4c22
    4c16:	b0 12 30 46 	call	#0x4630	
    4c1a:	2f 53       	incd	r15		
    4c1c:	82 4f 92 01 	mov	r15,	&0x0192	
    4c20:	03 3c       	jmp	$+8      	;abs 0x4c28
    4c22:	0c 5f       	add	r15,	r12	
    4c24:	82 4c 92 01 	mov	r12,	&0x0192	
    4c28:	b2 f0 fe ff 82 01 	and	#-2,	&0x0182	;#0xfffe
    4c2e:	b2 d0 10 00 82 01 	bis	#16,	&0x0182	;#0x0010
    4c34:	38 41       	pop	r8		
    4c36:	39 41       	pop	r9		
    4c38:	3a 41       	pop	r10		
    4c3a:	3b 41       	pop	r11		
    4c3c:	30 41       	ret			

00004c3e <TransformAlarmC__0__Alarm__start>:
    4c3e:	0b 12       	push	r11		
    4c40:	0a 12       	push	r10		
    4c42:	09 12       	push	r9		
    4c44:	0a 4e       	mov	r14,	r10	
    4c46:	0b 4f       	mov	r15,	r11	
    4c48:	b0 12 16 4b 	call	#0x4b16	
    4c4c:	09 42       	mov	r2,	r9	
    4c4e:	32 c2       	dint			
    4c50:	03 43       	nop			
    4c52:	82 4e fc 1b 	mov	r14,	&0x1bfc	
    4c56:	82 4f fe 1b 	mov	r15,	&0x1bfe	
    4c5a:	82 4a f6 1b 	mov	r10,	&0x1bf6	
    4c5e:	82 4b f8 1b 	mov	r11,	&0x1bf8	
    4c62:	b0 12 5a 4b 	call	#0x4b5a	
    4c66:	39 b2       	bit	#8,	r9	;r2 As==11
    4c68:	01 24       	jz	$+4      	;abs 0x4c6c
    4c6a:	32 d2       	eint			
    4c6c:	39 41       	pop	r9		
    4c6e:	3a 41       	pop	r10		
    4c70:	3b 41       	pop	r11		
    4c72:	30 41       	ret			

00004c74 <CC2420TransmitP__congestionBackoff>:
    4c74:	0b 12       	push	r11		
    4c76:	0b 42       	mov	r2,	r11	
    4c78:	32 c2       	dint			
    4c7a:	03 43       	nop			
    4c7c:	b0 12 84 45 	call	#0x4584	
    4c80:	3e 40 46 00 	mov	#70,	r14	;#0x0046
    4c84:	b0 12 58 78 	call	#0x7858	
    4c88:	0e 4f       	mov	r15,	r14	
    4c8a:	3e 50 0b 00 	add	#11,	r14	;#0x000b
    4c8e:	82 4e 5c 1f 	mov	r14,	&0x1f5c	
    4c92:	0f 43       	clr	r15		
    4c94:	b0 12 3e 4c 	call	#0x4c3e	
    4c98:	3b b2       	bit	#8,	r11	;r2 As==11
    4c9a:	01 24       	jz	$+4      	;abs 0x4c9e
    4c9c:	32 d2       	eint			
    4c9e:	3b 41       	pop	r11		
    4ca0:	30 41       	ret			

00004ca2 <CC2420CsmaP__SplitControlState__forceState>:
    4ca2:	0e 42       	mov	r2,	r14	
    4ca4:	32 c2       	dint			
    4ca6:	03 43       	nop			
    4ca8:	c2 4f 77 1c 	mov.b	r15,	&0x1c77	
    4cac:	3e f2       	and	#8,	r14	;r2 As==11
    4cae:	01 24       	jz	$+4      	;abs 0x4cb2
    4cb0:	32 d2       	eint			
    4cb2:	30 41       	ret			

00004cb4 <TransformAlarmC__1__Counter__get>:
    4cb4:	0b 12       	push	r11		
    4cb6:	0a 12       	push	r10		
    4cb8:	09 12       	push	r9		
    4cba:	09 42       	mov	r2,	r9	
    4cbc:	39 f2       	and	#8,	r9	;r2 As==11
    4cbe:	32 c2       	dint			
    4cc0:	03 43       	nop			
    4cc2:	1a 42 f0 1b 	mov	&0x1bf0,r10	
    4cc6:	1b 42 f2 1b 	mov	&0x1bf2,r11	
    4cca:	b0 12 30 46 	call	#0x4630	
    4cce:	1e 42 80 01 	mov	&0x0180,r14	
    4cd2:	5e f3       	and.b	#1,	r14	;r3 As==01
    4cd4:	04 24       	jz	$+10     	;abs 0x4cde
    4cd6:	1a 53       	inc	r10		
    4cd8:	0b 63       	adc	r11		
    4cda:	b0 12 30 46 	call	#0x4630	
    4cde:	12 c3       	clrc			
    4ce0:	0f 10       	rrc	r15		
    4ce2:	12 c3       	clrc			
    4ce4:	0f 10       	rrc	r15		
    4ce6:	12 c3       	clrc			
    4ce8:	0f 10       	rrc	r15		
    4cea:	12 c3       	clrc			
    4cec:	0f 10       	rrc	r15		
    4cee:	12 c3       	clrc			
    4cf0:	0f 10       	rrc	r15		
    4cf2:	0c 4f       	mov	r15,	r12	
    4cf4:	0d 43       	clr	r13		
    4cf6:	0e 4a       	mov	r10,	r14	
    4cf8:	0f 4b       	mov	r11,	r15	
    4cfa:	4f ea       	xor.b	r10,	r15	
    4cfc:	0f ea       	xor	r10,	r15	
    4cfe:	8f 10       	swpb	r15		
    4d00:	4e 4e       	mov.b	r14,	r14	
    4d02:	8e 10       	swpb	r14		
    4d04:	0e 5e       	rla	r14		
    4d06:	0f 6f       	rlc	r15		
    4d08:	0e 5e       	rla	r14		
    4d0a:	0f 6f       	rlc	r15		
    4d0c:	0e 5e       	rla	r14		
    4d0e:	0f 6f       	rlc	r15		
    4d10:	0e dc       	bis	r12,	r14	
    4d12:	0f dd       	bis	r13,	r15	
    4d14:	09 93       	tst	r9		
    4d16:	01 24       	jz	$+4      	;abs 0x4d1a
    4d18:	32 d2       	eint			
    4d1a:	39 41       	pop	r9		
    4d1c:	3a 41       	pop	r10		
    4d1e:	3b 41       	pop	r11		
    4d20:	30 41       	ret			

00004d22 <VirtualizeTimerC__0__Timer__startPeriodic>:
    4d22:	0b 12       	push	r11		
    4d24:	09 12       	push	r9		
    4d26:	08 12       	push	r8		
    4d28:	4b 4f       	mov.b	r15,	r11	
    4d2a:	08 4d       	mov	r13,	r8	
    4d2c:	09 4e       	mov	r14,	r9	
    4d2e:	b0 12 b4 4c 	call	#0x4cb4	
    4d32:	4b 4b       	mov.b	r11,	r11	
    4d34:	0b 5b       	rla	r11		
    4d36:	0c 4b       	mov	r11,	r12	
    4d38:	0c 5c       	rla	r12		
    4d3a:	0c 5c       	rla	r12		
    4d3c:	0c 5b       	add	r11,	r12	
    4d3e:	3c 50 50 1c 	add	#7248,	r12	;#0x1c50
    4d42:	8c 4e 00 00 	mov	r14,	0(r12)	;0x0000(r12)
    4d46:	8c 4f 02 00 	mov	r15,	2(r12)	;0x0002(r12)
    4d4a:	8c 48 04 00 	mov	r8,	4(r12)	;0x0004(r12)
    4d4e:	8c 49 06 00 	mov	r9,	6(r12)	;0x0006(r12)
    4d52:	5f 4c 08 00 	mov.b	8(r12),	r15	;0x0008(r12)
    4d56:	7f f0 fe ff 	and.b	#-2,	r15	;#0xfffe
    4d5a:	6f d3       	bis.b	#2,	r15	;r3 As==10
    4d5c:	cc 4f 08 00 	mov.b	r15,	8(r12)	;0x0008(r12)
    4d60:	7f 40 0a 00 	mov.b	#10,	r15	;#0x000a
    4d64:	b0 12 96 4a 	call	#0x4a96	
    4d68:	38 41       	pop	r8		
    4d6a:	39 41       	pop	r9		
    4d6c:	3b 41       	pop	r11		
    4d6e:	30 41       	ret			

00004d70 <TransformAlarmC__1__set_alarm>:
    4d70:	0b 12       	push	r11		
    4d72:	0a 12       	push	r10		
    4d74:	09 12       	push	r9		
    4d76:	08 12       	push	r8		
    4d78:	b0 12 b4 4c 	call	#0x4cb4	
    4d7c:	08 4e       	mov	r14,	r8	
    4d7e:	09 4f       	mov	r15,	r9	
    4d80:	1e 42 fa 18 	mov	&0x18fa,r14	
    4d84:	1f 42 fc 18 	mov	&0x18fc,r15	
    4d88:	0a 4e       	mov	r14,	r10	
    4d8a:	0b 4f       	mov	r15,	r11	
    4d8c:	1a 52 d8 1b 	add	&0x1bd8,r10	
    4d90:	1b 62 da 1b 	addc	&0x1bda,r11	
    4d94:	09 9f       	cmp	r15,	r9	
    4d96:	09 28       	jnc	$+20     	;abs 0x4daa
    4d98:	02 20       	jnz	$+6      	;abs 0x4d9e
    4d9a:	08 9e       	cmp	r14,	r8	
    4d9c:	06 28       	jnc	$+14     	;abs 0x4daa
    4d9e:	0b 9f       	cmp	r15,	r11	
    4da0:	10 28       	jnc	$+34     	;abs 0x4dc2
    4da2:	09 20       	jnz	$+20     	;abs 0x4db6
    4da4:	0a 9e       	cmp	r14,	r10	
    4da6:	0d 28       	jnc	$+28     	;abs 0x4dc2
    4da8:	06 3c       	jmp	$+14     	;abs 0x4db6
    4daa:	0b 9f       	cmp	r15,	r11	
    4dac:	04 28       	jnc	$+10     	;abs 0x4db6
    4dae:	0f 9b       	cmp	r11,	r15	
    4db0:	27 28       	jnc	$+80     	;abs 0x4e00
    4db2:	0a 9e       	cmp	r14,	r10	
    4db4:	25 2c       	jc	$+76     	;abs 0x4e00
    4db6:	09 9b       	cmp	r11,	r9	
    4db8:	04 28       	jnc	$+10     	;abs 0x4dc2
    4dba:	0b 99       	cmp	r9,	r11	
    4dbc:	21 28       	jnc	$+68     	;abs 0x4e00
    4dbe:	08 9a       	cmp	r10,	r8	
    4dc0:	1f 2c       	jc	$+64     	;abs 0x4e00
    4dc2:	0c 4a       	mov	r10,	r12	
    4dc4:	0d 4b       	mov	r11,	r13	
    4dc6:	0c 88       	sub	r8,	r12	
    4dc8:	0d 79       	subc	r9,	r13	
    4dca:	0d 93       	tst	r13		
    4dcc:	03 20       	jnz	$+8      	;abs 0x4dd4
    4dce:	3c 90 01 04 	cmp	#1025,	r12	;#0x0401
    4dd2:	18 28       	jnc	$+50     	;abs 0x4e04
    4dd4:	0e 48       	mov	r8,	r14	
    4dd6:	0f 49       	mov	r9,	r15	
    4dd8:	3e 50 00 04 	add	#1024,	r14	;#0x0400
    4ddc:	0f 63       	adc	r15		
    4dde:	82 4e fa 18 	mov	r14,	&0x18fa	
    4de2:	82 4f fc 18 	mov	r15,	&0x18fc	
    4de6:	0e 4c       	mov	r12,	r14	
    4de8:	0f 4d       	mov	r13,	r15	
    4dea:	3e 50 00 fc 	add	#-1024,	r14	;#0xfc00
    4dee:	3f 63       	addc	#-1,	r15	;r3 As==11
    4df0:	82 4e d8 1b 	mov	r14,	&0x1bd8	
    4df4:	82 4f da 1b 	mov	r15,	&0x1bda	
    4df8:	3c 40 00 04 	mov	#1024,	r12	;#0x0400
    4dfc:	0d 43       	clr	r13		
    4dfe:	0a 3c       	jmp	$+22     	;abs 0x4e14
    4e00:	0c 43       	clr	r12		
    4e02:	0d 43       	clr	r13		
    4e04:	82 4a fa 18 	mov	r10,	&0x18fa	
    4e08:	82 4b fc 18 	mov	r11,	&0x18fc	
    4e0c:	82 43 d8 1b 	mov	#0,	&0x1bd8	;r3 As==00
    4e10:	82 43 da 1b 	mov	#0,	&0x1bda	;r3 As==00
    4e14:	0a 4c       	mov	r12,	r10	
    4e16:	0a 5a       	rla	r10		
    4e18:	0a 5a       	rla	r10		
    4e1a:	0a 5a       	rla	r10		
    4e1c:	0a 5a       	rla	r10		
    4e1e:	0a 5a       	rla	r10		
    4e20:	b0 12 30 46 	call	#0x4630	
    4e24:	08 58       	rla	r8		
    4e26:	08 58       	rla	r8		
    4e28:	08 58       	rla	r8		
    4e2a:	08 58       	rla	r8		
    4e2c:	08 58       	rla	r8		
    4e2e:	0e 4f       	mov	r15,	r14	
    4e30:	0e 88       	sub	r8,	r14	
    4e32:	0e 9a       	cmp	r10,	r14	
    4e34:	04 2c       	jc	$+10     	;abs 0x4e3e
    4e36:	0a 8e       	sub	r14,	r10	
    4e38:	3a 90 03 00 	cmp	#3,	r10	;#0x0003
    4e3c:	06 2c       	jc	$+14     	;abs 0x4e4a
    4e3e:	b0 12 30 46 	call	#0x4630	
    4e42:	2f 53       	incd	r15		
    4e44:	82 4f 96 01 	mov	r15,	&0x0196	
    4e48:	03 3c       	jmp	$+8      	;abs 0x4e50
    4e4a:	0a 5f       	add	r15,	r10	
    4e4c:	82 4a 96 01 	mov	r10,	&0x0196	
    4e50:	b2 f0 fe ff 86 01 	and	#-2,	&0x0186	;#0xfffe
    4e56:	b2 d0 10 00 86 01 	bis	#16,	&0x0186	;#0x0010
    4e5c:	38 41       	pop	r8		
    4e5e:	39 41       	pop	r9		
    4e60:	3a 41       	pop	r10		
    4e62:	3b 41       	pop	r11		
    4e64:	30 41       	ret			

00004e66 <CC2420ControlP__RSTN__clr>:
    4e66:	0f 42       	mov	r2,	r15	
    4e68:	32 c2       	dint			
    4e6a:	03 43       	nop			
    4e6c:	f2 f0 bf ff 1d 00 	and.b	#-65,	&0x001d	;#0xffbf
    4e72:	3f f2       	and	#8,	r15	;r2 As==11
    4e74:	01 24       	jz	$+4      	;abs 0x4e78
    4e76:	32 d2       	eint			
    4e78:	30 41       	ret			

00004e7a <CC2420ControlP__RSTN__set>:
    4e7a:	0f 42       	mov	r2,	r15	
    4e7c:	32 c2       	dint			
    4e7e:	03 43       	nop			
    4e80:	f2 d0 40 00 1d 00 	bis.b	#64,	&0x001d	;#0x0040
    4e86:	3f f2       	and	#8,	r15	;r2 As==11
    4e88:	01 24       	jz	$+4      	;abs 0x4e8c
    4e8a:	32 d2       	eint			
    4e8c:	30 41       	ret			

00004e8e <SenderC__Leds__led2Toggle>:
    4e8e:	0f 42       	mov	r2,	r15	
    4e90:	32 c2       	dint			
    4e92:	03 43       	nop			
    4e94:	f2 e0 40 00 31 00 	xor.b	#64,	&0x0031	;#0x0040
    4e9a:	3f f2       	and	#8,	r15	;r2 As==11
    4e9c:	01 24       	jz	$+4      	;abs 0x4ea0
    4e9e:	32 d2       	eint			
    4ea0:	30 41       	ret			

00004ea2 <SenderC__Leds__led1Toggle>:
    4ea2:	0f 42       	mov	r2,	r15	
    4ea4:	32 c2       	dint			
    4ea6:	03 43       	nop			
    4ea8:	f2 e0 20 00 31 00 	xor.b	#32,	&0x0031	;#0x0020
    4eae:	3f f2       	and	#8,	r15	;r2 As==11
    4eb0:	01 24       	jz	$+4      	;abs 0x4eb4
    4eb2:	32 d2       	eint			
    4eb4:	30 41       	ret			

00004eb6 <HplMsp430Usart0P__Usart__resetUsart>:
    4eb6:	4f 93       	tst.b	r15		
    4eb8:	03 24       	jz	$+8      	;abs 0x4ec0
    4eba:	d2 43 70 00 	mov.b	#1,	&0x0070	;r3 As==01
    4ebe:	30 41       	ret			
    4ec0:	f2 f0 fe ff 70 00 	and.b	#-2,	&0x0070	;#0xfffe
    4ec6:	30 41       	ret			

00004ec8 <SchedulerBasicP__popTask.part.78>:
    4ec8:	5f 42 ee 1c 	mov.b	&0x1cee,r15	
    4ecc:	4e 4f       	mov.b	r15,	r14	
    4ece:	3e 50 8e 1b 	add	#7054,	r14	;#0x1b8e
    4ed2:	6d 4e       	mov.b	@r14,	r13	
    4ed4:	c2 4d ee 1c 	mov.b	r13,	&0x1cee	
    4ed8:	7d 93       	cmp.b	#-1,	r13	;r3 As==11
    4eda:	02 20       	jnz	$+6      	;abs 0x4ee0
    4edc:	f2 43 5f 1f 	mov.b	#-1,	&0x1f5f	;r3 As==11
    4ee0:	fe 43 00 00 	mov.b	#-1,	0(r14)	;r3 As==11, 0x0000(r14)
    4ee4:	30 41       	ret			

00004ee6 <Msp430TimerP__0__Event__fired>:
    4ee6:	5f 93       	cmp.b	#1,	r15	;r3 As==01
    4ee8:	0c 24       	jz	$+26     	;abs 0x4f02
    4eea:	03 28       	jnc	$+8      	;abs 0x4ef2
    4eec:	6f 93       	cmp.b	#2,	r15	;r3 As==10
    4eee:	18 20       	jnz	$+50     	;abs 0x4f20
    4ef0:	10 3c       	jmp	$+34     	;abs 0x4f12
    4ef2:	1f 42 62 01 	mov	&0x0162,r15	
    4ef6:	8f 10       	swpb	r15		
    4ef8:	5f f3       	and.b	#1,	r15	;r3 As==01
    4efa:	12 24       	jz	$+38     	;abs 0x4f20
    4efc:	1f 42 72 01 	mov	&0x0172,r15	
    4f00:	30 41       	ret			
    4f02:	1f 42 64 01 	mov	&0x0164,r15	
    4f06:	8f 10       	swpb	r15		
    4f08:	5f f3       	and.b	#1,	r15	;r3 As==01
    4f0a:	0a 24       	jz	$+22     	;abs 0x4f20
    4f0c:	1f 42 74 01 	mov	&0x0174,r15	
    4f10:	30 41       	ret			
    4f12:	1f 42 66 01 	mov	&0x0166,r15	
    4f16:	8f 10       	swpb	r15		
    4f18:	5f f3       	and.b	#1,	r15	;r3 As==01
    4f1a:	02 24       	jz	$+6      	;abs 0x4f20
    4f1c:	1f 42 76 01 	mov	&0x0176,r15	
    4f20:	30 41       	ret			

00004f22 <ArbiterP__0__Queue__dequeue.part.90>:
    4f22:	5f 42 0b 11 	mov.b	&0x110b,r15	
    4f26:	4e 4f       	mov.b	r15,	r14	
    4f28:	5d 4e fa 1b 	mov.b	7162(r14),r13	;0x1bfa(r14)
    4f2c:	c2 4d 0b 11 	mov.b	r13,	&0x110b	
    4f30:	7d 93       	cmp.b	#-1,	r13	;r3 As==11
    4f32:	02 20       	jnz	$+6      	;abs 0x4f38
    4f34:	f2 43 0a 11 	mov.b	#-1,	&0x110a	;r3 As==11
    4f38:	fe 43 fa 1b 	mov.b	#-1,	7162(r14);r3 As==11, 0x1bfa(r14)
    4f3c:	30 41       	ret			

00004f3e <ArbiterP__0__ResourceConfigure__unconfigure.part.92>:
    4f3e:	5f 43       	mov.b	#1,	r15	;r3 As==01
    4f40:	b0 12 b6 4e 	call	#0x4eb6	
    4f44:	f2 f0 bf ff 04 00 	and.b	#-65,	&0x0004	;#0xffbf
    4f4a:	3f 40 1b 00 	mov	#27,	r15	;#0x001b
    4f4e:	ff f0 fd ff 00 00 	and.b	#-3,	0(r15)	;#0xfffd, 0x0000(r15)
    4f54:	ff f0 fb ff 00 00 	and.b	#-5,	0(r15)	;#0xfffb, 0x0000(r15)
    4f5a:	ff f0 f7 ff 00 00 	and.b	#-9,	0(r15)	;#0xfff7, 0x0000(r15)
    4f60:	30 41       	ret			

00004f62 <pq_pop>:
    4f62:	0b 12       	push	r11		
    4f64:	0a 12       	push	r10		
    4f66:	09 12       	push	r9		
    4f68:	31 50 ee ff 	add	#-18,	r1	;#0xffee
    4f6c:	0a 4f       	mov	r15,	r10	
    4f6e:	1b 4f 32 01 	mov	306(r15),r11	;0x0132(r15)
    4f72:	0b 93       	tst	r11		
    4f74:	07 20       	jnz	$+16     	;abs 0x4f84
    4f76:	c1 43 0c 00 	mov.b	#0,	12(r1)	;r3 As==00, 0x000c(r1)
    4f7a:	81 43 0e 00 	mov	#0,	14(r1)	;r3 As==00, 0x000e(r1)
    4f7e:	81 43 10 00 	mov	#0,	16(r1)	;r3 As==00, 0x0010(r1)
    4f82:	5b 3c       	jmp	$+184    	;abs 0x503a
    4f84:	3d 40 06 00 	mov	#6,	r13	;#0x0006
    4f88:	0e 4f       	mov	r15,	r14	
    4f8a:	3e 50 06 00 	add	#6,	r14	;#0x0006
    4f8e:	0f 41       	mov	r1,	r15	
    4f90:	3f 50 06 00 	add	#6,	r15	;#0x0006
    4f94:	b0 12 ba 78 	call	#0x78ba	
    4f98:	0d 4b       	mov	r11,	r13	
    4f9a:	1e 43       	mov	#1,	r14	;r3 As==01
    4f9c:	0f 4a       	mov	r10,	r15	
    4f9e:	b0 12 1a 47 	call	#0x471a	
    4fa2:	ba 53 32 01 	add	#-1,	306(r10);r3 As==11, 0x0132(r10)
    4fa6:	1e 43       	mov	#1,	r14	;r3 As==01
    4fa8:	26 3c       	jmp	$+78     	;abs 0x4ff6
    4faa:	0b 9f       	cmp	r15,	r11	
    4fac:	11 2c       	jc	$+36     	;abs 0x4fd0
    4fae:	0d 4b       	mov	r11,	r13	
    4fb0:	1d 53       	inc	r13		
    4fb2:	0f 4b       	mov	r11,	r15	
    4fb4:	0f 5f       	rla	r15		
    4fb6:	0f 5b       	add	r11,	r15	
    4fb8:	0f 5f       	rla	r15		
    4fba:	0c 4a       	mov	r10,	r12	
    4fbc:	0c 5f       	add	r15,	r12	
    4fbe:	0f 4d       	mov	r13,	r15	
    4fc0:	0f 5f       	rla	r15		
    4fc2:	0f 5d       	add	r13,	r15	
    4fc4:	0f 5f       	rla	r15		
    4fc6:	0f 5a       	add	r10,	r15	
    4fc8:	ef 9c 00 00 	cmp.b	@r12,	0(r15)	;0x0000(r15)
    4fcc:	01 2c       	jc	$+4      	;abs 0x4fd0
    4fce:	0b 4d       	mov	r13,	r11	
    4fd0:	0f 4e       	mov	r14,	r15	
    4fd2:	0f 5f       	rla	r15		
    4fd4:	0f 5e       	add	r14,	r15	
    4fd6:	0f 5f       	rla	r15		
    4fd8:	0d 4a       	mov	r10,	r13	
    4fda:	0d 5f       	add	r15,	r13	
    4fdc:	0f 4b       	mov	r11,	r15	
    4fde:	0f 5f       	rla	r15		
    4fe0:	0f 5b       	add	r11,	r15	
    4fe2:	0f 5f       	rla	r15		
    4fe4:	0f 5a       	add	r10,	r15	
    4fe6:	ef 9d 00 00 	cmp.b	@r13,	0(r15)	;0x0000(r15)
    4fea:	0b 2c       	jc	$+24     	;abs 0x5002
    4fec:	0d 4b       	mov	r11,	r13	
    4fee:	0f 4a       	mov	r10,	r15	
    4ff0:	b0 12 1a 47 	call	#0x471a	
    4ff4:	0e 4b       	mov	r11,	r14	
    4ff6:	0b 4e       	mov	r14,	r11	
    4ff8:	0b 5b       	rla	r11		
    4ffa:	1f 4a 32 01 	mov	306(r10),r15	;0x0132(r10)
    4ffe:	0f 9b       	cmp	r11,	r15	
    5000:	d4 2f       	jc	$-86     	;abs 0x4faa
    5002:	3d 40 06 00 	mov	#6,	r13	;#0x0006
    5006:	0e 41       	mov	r1,	r14	
    5008:	3e 50 06 00 	add	#6,	r14	;#0x0006
    500c:	0f 41       	mov	r1,	r15	
    500e:	b0 12 ba 78 	call	#0x78ba	
    5012:	59 41 06 00 	mov.b	6(r1),	r9	;0x0006(r1)
    5016:	1a 41 08 00 	mov	8(r1),	r10	;0x0008(r1)
    501a:	1b 41 0a 00 	mov	10(r1),	r11	;0x000a(r1)
    501e:	3d 40 06 00 	mov	#6,	r13	;#0x0006
    5022:	0e 41       	mov	r1,	r14	
    5024:	0f 41       	mov	r1,	r15	
    5026:	3f 50 0c 00 	add	#12,	r15	;#0x000c
    502a:	b0 12 ba 78 	call	#0x78ba	
    502e:	c1 49 0c 00 	mov.b	r9,	12(r1)	;0x000c(r1)
    5032:	81 4a 0e 00 	mov	r10,	14(r1)	;0x000e(r1)
    5036:	81 4b 10 00 	mov	r11,	16(r1)	;0x0010(r1)
    503a:	1c 41 0c 00 	mov	12(r1),	r12	;0x000c(r1)
    503e:	1d 41 0e 00 	mov	14(r1),	r13	;0x000e(r1)
    5042:	1e 41 10 00 	mov	16(r1),	r14	;0x0010(r1)
    5046:	0f 43       	clr	r15		
    5048:	31 50 12 00 	add	#18,	r1	;#0x0012
    504c:	39 41       	pop	r9		
    504e:	3a 41       	pop	r10		
    5050:	3b 41       	pop	r11		
    5052:	30 41       	ret			

00005054 <CC2420SpiP__SpiPacket__send.part.95>:
    5054:	0f 42       	mov	r2,	r15	
    5056:	32 c2       	dint			
    5058:	03 43       	nop			
    505a:	f2 f0 bf ff 02 00 	and.b	#-65,	&0x0002	;#0xffbf
    5060:	f2 d0 40 00 00 00 	bis.b	#64,	&0x0000	;#0x0040
    5066:	3f f2       	and	#8,	r15	;r2 As==11
    5068:	01 24       	jz	$+4      	;abs 0x506c
    506a:	32 d2       	eint			
    506c:	b0 12 9a 49 	call	#0x499a	
    5070:	30 41       	ret			

00005072 <CC2420ReceiveP__RXFIFO__beginRead>:
    5072:	0b 12       	push	r11		
    5074:	0a 12       	push	r10		
    5076:	09 12       	push	r9		
    5078:	0a 4f       	mov	r15,	r10	
    507a:	49 4e       	mov.b	r14,	r9	
    507c:	0b 42       	mov	r2,	r11	
    507e:	3b f2       	and	#8,	r11	;r2 As==11
    5080:	32 c2       	dint			
    5082:	03 43       	nop			
    5084:	b0 12 1c 4a 	call	#0x4a1c	
    5088:	4f 93       	tst.b	r15		
    508a:	04 24       	jz	$+10     	;abs 0x5094
    508c:	0b 93       	tst	r11		
    508e:	22 24       	jz	$+70     	;abs 0x50d4
    5090:	32 d2       	eint			
    5092:	20 3c       	jmp	$+66     	;abs 0x50d4
    5094:	0b 93       	tst	r11		
    5096:	01 24       	jz	$+4      	;abs 0x509a
    5098:	32 d2       	eint			
    509a:	b2 40 7f 00 04 1c 	mov	#127,	&0x1c04	;#0x007f
    50a0:	7f 40 7f 00 	mov.b	#127,	r15	;#0x007f
    50a4:	b0 12 dc 45 	call	#0x45dc	
    50a8:	4b 4f       	mov.b	r15,	r11	
    50aa:	4e 49       	mov.b	r9,	r14	
    50ac:	c2 43 02 1c 	mov.b	#0,	&0x1c02	;r3 As==00
    50b0:	82 43 f4 1b 	mov	#0,	&0x1bf4	;r3 As==00
    50b4:	82 4a 70 1c 	mov	r10,	&0x1c70	
    50b8:	82 4e 4e 1f 	mov	r14,	&0x1f4e	
    50bc:	82 43 4a 1f 	mov	#0,	&0x1f4a	;r3 As==00
    50c0:	0e 93       	tst	r14		
    50c2:	03 24       	jz	$+8      	;abs 0x50ca
    50c4:	b0 12 54 50 	call	#0x5054	
    50c8:	06 3c       	jmp	$+14     	;abs 0x50d6
    50ca:	7f 40 06 00 	mov.b	#6,	r15	;#0x0006
    50ce:	b0 12 96 4a 	call	#0x4a96	
    50d2:	01 3c       	jmp	$+4      	;abs 0x50d6
    50d4:	4b 43       	clr.b	r11		
    50d6:	4f 4b       	mov.b	r11,	r15	
    50d8:	39 41       	pop	r9		
    50da:	3a 41       	pop	r10		
    50dc:	3b 41       	pop	r11		
    50de:	30 41       	ret			

000050e0 <CC2420ReceiveP__receive>:
    50e0:	b0 12 82 4a 	call	#0x4a82	
    50e4:	5e 43       	mov.b	#1,	r14	;r3 As==01
    50e6:	1f 42 f8 18 	mov	&0x18f8,r15	
    50ea:	b0 12 72 50 	call	#0x5072	
    50ee:	30 41       	ret			

000050f0 <CC2420ReceiveP__RXFIFO__continueRead>:
    50f0:	4e 4e       	mov.b	r14,	r14	
    50f2:	c2 43 02 1c 	mov.b	#0,	&0x1c02	;r3 As==00
    50f6:	82 43 f4 1b 	mov	#0,	&0x1bf4	;r3 As==00
    50fa:	82 4f 70 1c 	mov	r15,	&0x1c70	
    50fe:	82 4e 4e 1f 	mov	r14,	&0x1f4e	
    5102:	82 43 4a 1f 	mov	#0,	&0x1f4a	;r3 As==00
    5106:	0e 93       	tst	r14		
    5108:	03 24       	jz	$+8      	;abs 0x5110
    510a:	b0 12 54 50 	call	#0x5054	
    510e:	04 3c       	jmp	$+10     	;abs 0x5118
    5110:	7f 40 06 00 	mov.b	#6,	r15	;#0x0006
    5114:	b0 12 96 4a 	call	#0x4a96	
    5118:	0f 43       	clr	r15		
    511a:	30 41       	ret			

0000511c <CC2420SpiP__attemptRelease>:
    511c:	c2 93 ee 18 	tst.b	&0x18ee	
    5120:	2e 20       	jnz	$+94     	;abs 0x517e
    5122:	f2 93 0c 11 	cmp.b	#-1,	&0x110c	;r3 As==11
    5126:	2b 20       	jnz	$+88     	;abs 0x517e
    5128:	b0 12 1c 4a 	call	#0x4a1c	
    512c:	4f 93       	tst.b	r15		
    512e:	27 24       	jz	$+80     	;abs 0x517e
    5130:	d2 43 8f 1c 	mov.b	#1,	&0x1c8f	;r3 As==01
    5134:	c2 93 8c 1b 	tst.b	&0x1b8c	
    5138:	02 24       	jz	$+6      	;abs 0x513e
    513a:	c2 43 8f 1c 	mov.b	#0,	&0x1c8f	;r3 As==00
    513e:	c2 93 8f 1c 	tst.b	&0x1c8f	
    5142:	1f 24       	jz	$+64     	;abs 0x5182
    5144:	e2 92 df 1b 	cmp.b	#4,	&0x1bdf	;r2 As==10
    5148:	1f 20       	jnz	$+64     	;abs 0x5188
    514a:	c2 93 09 11 	tst.b	&0x1109	
    514e:	1e 20       	jnz	$+62     	;abs 0x518c
    5150:	f2 93 0b 11 	cmp.b	#-1,	&0x110b	;r3 As==11
    5154:	05 20       	jnz	$+12     	;abs 0x5160
    5156:	d2 43 09 11 	mov.b	#1,	&0x1109	;r3 As==01
    515a:	c2 43 df 1b 	mov.b	#0,	&0x1bdf	;r3 As==00
    515e:	0c 3c       	jmp	$+26     	;abs 0x5178
    5160:	b0 12 22 4f 	call	#0x4f22	
    5164:	c2 4f 08 11 	mov.b	r15,	&0x1108	
    5168:	f2 43 09 11 	mov.b	#-1,	&0x1109	;r3 As==11
    516c:	e2 43 df 1b 	mov.b	#2,	&0x1bdf	;r3 As==10
    5170:	7f 40 07 00 	mov.b	#7,	r15	;#0x0007
    5174:	b0 12 96 4a 	call	#0x4a96	
    5178:	b0 12 3e 4f 	call	#0x4f3e	
    517c:	05 3c       	jmp	$+12     	;abs 0x5188
    517e:	1f 43       	mov	#1,	r15	;r3 As==01
    5180:	30 41       	ret			
    5182:	3f 40 05 00 	mov	#5,	r15	;#0x0005
    5186:	30 41       	ret			
    5188:	0f 43       	clr	r15		
    518a:	30 41       	ret			
    518c:	0f 43       	clr	r15		
    518e:	30 41       	ret			

00005190 <CC2420SpiP__Resource__release>:
    5190:	0b 12       	push	r11		
    5192:	0a 12       	push	r10		
    5194:	09 12       	push	r9		
    5196:	0b 42       	mov	r2,	r11	
    5198:	3b f2       	and	#8,	r11	;r2 As==11
    519a:	32 c2       	dint			
    519c:	03 43       	nop			
    519e:	c2 9f 0c 11 	cmp.b	r15,	&0x110c	
    51a2:	04 24       	jz	$+10     	;abs 0x51ac
    51a4:	0b 93       	tst	r11		
    51a6:	49 24       	jz	$+148    	;abs 0x523a
    51a8:	32 d2       	eint			
    51aa:	47 3c       	jmp	$+144    	;abs 0x523a
    51ac:	f2 43 0c 11 	mov.b	#-1,	&0x110c	;r3 As==11
    51b0:	5c 42 ee 18 	mov.b	&0x18ee,r12	
    51b4:	4c 93       	tst.b	r12		
    51b6:	05 20       	jnz	$+12     	;abs 0x51c2
    51b8:	b0 12 e0 4a 	call	#0x4ae0	
    51bc:	b0 12 1c 51 	call	#0x511c	
    51c0:	35 3c       	jmp	$+108    	;abs 0x522c
    51c2:	4d 43       	clr.b	r13		
    51c4:	49 4c       	mov.b	r12,	r9	
    51c6:	02 12       	push	r2		
    51c8:	32 c2       	dint			
    51ca:	03 43       	nop			
    51cc:	c2 4d 30 01 	mov.b	r13,	&0x0130	
    51d0:	f2 40 cd ff 38 01 	mov.b	#-51,	&0x0138	;#0xffcd
    51d6:	1f 42 3a 01 	mov	&0x013a,r15	
    51da:	32 41       	pop	r2		
    51dc:	8f 10       	swpb	r15		
    51de:	12 c3       	clrc			
    51e0:	4f 10       	rrc.b	r15		
    51e2:	12 c3       	clrc			
    51e4:	4f 10       	rrc.b	r15		
    51e6:	4e 4f       	mov.b	r15,	r14	
    51e8:	4e 5e       	rla.b	r14		
    51ea:	4e 5e       	rla.b	r14		
    51ec:	4f 5e       	add.b	r14,	r15	
    51ee:	4d 8f       	sub.b	r15,	r13	
    51f0:	4f 4d       	mov.b	r13,	r15	
    51f2:	4a 4d       	mov.b	r13,	r10	
    51f4:	0e 49       	mov	r9,	r14	
    51f6:	7d f0 0f 00 	and.b	#15,	r13	;#0x000f
    51fa:	4d 93       	tst.b	r13		
    51fc:	03 24       	jz	$+8      	;abs 0x5204
    51fe:	0e 11       	rra	r14		
    5200:	7d 53       	add.b	#-1,	r13	;r3 As==11
    5202:	fb 3f       	jmp	$-8      	;abs 0x51fa
    5204:	1e f3       	and	#1,	r14	;r3 As==01
    5206:	16 24       	jz	$+46     	;abs 0x5234
    5208:	c2 4f 0c 11 	mov.b	r15,	&0x110c	
    520c:	1f 43       	mov	#1,	r15	;r3 As==01
    520e:	4e 4a       	mov.b	r10,	r14	
    5210:	7e f0 0f 00 	and.b	#15,	r14	;#0x000f
    5214:	4e 93       	tst.b	r14		
    5216:	03 24       	jz	$+8      	;abs 0x521e
    5218:	0f 5f       	rla	r15		
    521a:	7e 53       	add.b	#-1,	r14	;r3 As==11
    521c:	fb 3f       	jmp	$-8      	;abs 0x5214
    521e:	4c cf       	bic.b	r15,	r12	
    5220:	c2 4c ee 18 	mov.b	r12,	&0x18ee	
    5224:	7f 40 05 00 	mov.b	#5,	r15	;#0x0005
    5228:	b0 12 96 4a 	call	#0x4a96	
    522c:	0b 93       	tst	r11		
    522e:	07 24       	jz	$+16     	;abs 0x523e
    5230:	32 d2       	eint			
    5232:	05 3c       	jmp	$+12     	;abs 0x523e
    5234:	4d 4f       	mov.b	r15,	r13	
    5236:	5d 53       	inc.b	r13		
    5238:	c6 3f       	jmp	$-114    	;abs 0x51c6
    523a:	1f 43       	mov	#1,	r15	;r3 As==01
    523c:	01 3c       	jmp	$+4      	;abs 0x5240
    523e:	0f 43       	clr	r15		
    5240:	39 41       	pop	r9		
    5242:	3a 41       	pop	r10		
    5244:	3b 41       	pop	r11		
    5246:	30 41       	ret			

00005248 <CC2420TransmitP__releaseSpiResource>:
    5248:	7f 40 03 00 	mov.b	#3,	r15	;#0x0003
    524c:	b0 12 90 51 	call	#0x5190	
    5250:	0f 43       	clr	r15		
    5252:	30 41       	ret			

00005254 <ArbiterP__0__ResourceDefaultOwner__release>:
    5254:	d2 93 09 11 	cmp.b	#1,	&0x1109	;r3 As==01
    5258:	19 20       	jnz	$+52     	;abs 0x528c
    525a:	5f 42 df 1b 	mov.b	&0x1bdf,r15	
    525e:	4e 4f       	mov.b	r15,	r14	
    5260:	7e 53       	add.b	#-1,	r14	;r3 As==11
    5262:	6e 93       	cmp.b	#2,	r14	;r3 As==10
    5264:	07 2c       	jc	$+16     	;abs 0x5274
    5266:	e2 43 df 1b 	mov.b	#2,	&0x1bdf	;r3 As==10
    526a:	7f 40 07 00 	mov.b	#7,	r15	;#0x0007
    526e:	b0 12 96 4a 	call	#0x4a96	
    5272:	0a 3c       	jmp	$+22     	;abs 0x5288
    5274:	7f 90 03 00 	cmp.b	#3,	r15	;#0x0003
    5278:	0b 20       	jnz	$+24     	;abs 0x5290
    527a:	d2 42 08 11 09 11 	mov.b	&0x1108,&0x1109	
    5280:	f2 43 08 11 	mov.b	#-1,	&0x1108	;r3 As==11
    5284:	e2 42 df 1b 	mov.b	#4,	&0x1bdf	;r2 As==10
    5288:	0f 43       	clr	r15		
    528a:	30 41       	ret			
    528c:	1f 43       	mov	#1,	r15	;r3 As==01
    528e:	30 41       	ret			
    5290:	1f 43       	mov	#1,	r15	;r3 As==01
    5292:	30 41       	ret			

00005294 <CC2420TransmitP__Send__sendDone.isra.103>:
    5294:	0e 42       	mov	r2,	r14	
    5296:	32 c2       	dint			
    5298:	03 43       	nop			
    529a:	82 4f f4 18 	mov	r15,	&0x18f4	
    529e:	3e f2       	and	#8,	r14	;r2 As==11
    52a0:	01 24       	jz	$+4      	;abs 0x52a4
    52a2:	32 d2       	eint			
    52a4:	6f 43       	mov.b	#2,	r15	;r3 As==10
    52a6:	b0 12 96 4a 	call	#0x4a96	
    52aa:	30 41       	ret			

000052ac <CC2420TransmitP__signalDone>:
    52ac:	0b 12       	push	r11		
    52ae:	0b 4f       	mov	r15,	r11	
    52b0:	92 43 ea 18 	mov	#1,	&0x18ea	;r3 As==01
    52b4:	c2 43 8c 1b 	mov.b	#0,	&0x1b8c	;r3 As==00
    52b8:	b0 12 1c 51 	call	#0x511c	
    52bc:	0f 4b       	mov	r11,	r15	
    52be:	b0 12 94 52 	call	#0x5294	
    52c2:	3b 41       	pop	r11		
    52c4:	30 41       	ret			

000052c6 <CC2420TransmitP__attemptSend>:
    52c6:	0b 12       	push	r11		
    52c8:	0a 12       	push	r10		
    52ca:	0b 42       	mov	r2,	r11	
    52cc:	3b f2       	and	#8,	r11	;r2 As==11
    52ce:	32 c2       	dint			
    52d0:	03 43       	nop			
    52d2:	b2 92 ea 18 	cmp	#8,	&0x18ea	;r2 As==11
    52d6:	12 20       	jnz	$+38     	;abs 0x52fc
    52d8:	7f 40 09 00 	mov.b	#9,	r15	;#0x0009
    52dc:	b0 12 34 4a 	call	#0x4a34	
    52e0:	b0 12 48 52 	call	#0x5248	
    52e4:	b0 12 04 4b 	call	#0x4b04	
    52e8:	92 43 ea 18 	mov	#1,	&0x18ea	;r3 As==01
    52ec:	3f 40 03 00 	mov	#3,	r15	;#0x0003
    52f0:	b0 12 94 52 	call	#0x5294	
    52f4:	0b 93       	tst	r11		
    52f6:	2f 24       	jz	$+96     	;abs 0x5356
    52f8:	32 d2       	eint			
    52fa:	2d 3c       	jmp	$+92     	;abs 0x5356
    52fc:	b0 12 82 4a 	call	#0x4a82	
    5300:	c2 93 94 1f 	tst.b	&0x1f94	
    5304:	03 24       	jz	$+8      	;abs 0x530c
    5306:	7f 40 05 00 	mov.b	#5,	r15	;#0x0005
    530a:	01 3c       	jmp	$+4      	;abs 0x530e
    530c:	6f 42       	mov.b	#4,	r15	;r2 As==10
    530e:	b0 12 34 4a 	call	#0x4a34	
    5312:	3f f2       	and	#8,	r15	;r2 As==11
    5314:	04 20       	jnz	$+10     	;abs 0x531e
    5316:	b0 12 34 4a 	call	#0x4a34	
    531a:	3f f2       	and	#8,	r15	;r2 As==11
    531c:	04 20       	jnz	$+10     	;abs 0x5326
    531e:	5a 43       	mov.b	#1,	r10	;r3 As==01
    5320:	3f 40 03 00 	mov	#3,	r15	;#0x0003
    5324:	03 3c       	jmp	$+8      	;abs 0x532c
    5326:	4a 43       	clr.b	r10		
    5328:	3f 40 05 00 	mov	#5,	r15	;#0x0005
    532c:	82 4f ea 18 	mov	r15,	&0x18ea	
    5330:	b0 12 04 4b 	call	#0x4b04	
    5334:	0b 93       	tst	r11		
    5336:	01 24       	jz	$+4      	;abs 0x533a
    5338:	32 d2       	eint			
    533a:	4a 93       	tst.b	r10		
    533c:	07 24       	jz	$+16     	;abs 0x534c
    533e:	c2 43 fe 18 	mov.b	#0,	&0x18fe	;r3 As==00
    5342:	b0 12 48 52 	call	#0x5248	
    5346:	b0 12 74 4c 	call	#0x4c74	
    534a:	05 3c       	jmp	$+12     	;abs 0x5356
    534c:	3e 40 40 01 	mov	#320,	r14	;#0x0140
    5350:	0f 43       	clr	r15		
    5352:	b0 12 3e 4c 	call	#0x4c3e	
    5356:	3a 41       	pop	r10		
    5358:	3b 41       	pop	r11		
    535a:	30 41       	ret			

0000535c <CC2420SpiP__Reg__write>:
    535c:	0b 12       	push	r11		
    535e:	0a 12       	push	r10		
    5360:	09 12       	push	r9		
    5362:	49 4f       	mov.b	r15,	r9	
    5364:	0a 4e       	mov	r14,	r10	
    5366:	0b 42       	mov	r2,	r11	
    5368:	3b f2       	and	#8,	r11	;r2 As==11
    536a:	32 c2       	dint			
    536c:	03 43       	nop			
    536e:	b0 12 1c 4a 	call	#0x4a1c	
    5372:	4f 93       	tst.b	r15		
    5374:	04 24       	jz	$+10     	;abs 0x537e
    5376:	0b 93       	tst	r11		
    5378:	10 24       	jz	$+34     	;abs 0x539a
    537a:	32 d2       	eint			
    537c:	0e 3c       	jmp	$+30     	;abs 0x539a
    537e:	0b 93       	tst	r11		
    5380:	01 24       	jz	$+4      	;abs 0x5384
    5382:	32 d2       	eint			
    5384:	4f 49       	mov.b	r9,	r15	
    5386:	b0 12 dc 45 	call	#0x45dc	
    538a:	0f 4a       	mov	r10,	r15	
    538c:	8f 10       	swpb	r15		
    538e:	b0 12 dc 45 	call	#0x45dc	
    5392:	4f 4a       	mov.b	r10,	r15	
    5394:	b0 12 dc 45 	call	#0x45dc	
    5398:	01 3c       	jmp	$+4      	;abs 0x539c
    539a:	4f 43       	clr.b	r15		
    539c:	39 41       	pop	r9		
    539e:	3a 41       	pop	r10		
    53a0:	3b 41       	pop	r11		
    53a2:	30 41       	ret			

000053a4 <CC2420TransmitP__loadTXFIFO>:
    53a4:	0b 12       	push	r11		
    53a6:	0a 12       	push	r10		
    53a8:	09 12       	push	r9		
    53aa:	1b 42 e8 1b 	mov	&0x1be8,r11	
    53ae:	5a 4b 2a 00 	mov.b	42(r11),r10	;0x002a(r11)
    53b2:	4a 93       	tst.b	r10		
    53b4:	02 20       	jnz	$+6      	;abs 0x53ba
    53b6:	7a 40 1f 00 	mov.b	#31,	r10	;#0x001f
    53ba:	b0 12 82 4a 	call	#0x4a82	
    53be:	c2 9a d5 1b 	cmp.b	r10,	&0x1bd5	
    53c2:	07 24       	jz	$+16     	;abs 0x53d2
    53c4:	4e 4a       	mov.b	r10,	r14	
    53c6:	3e d0 e0 80 	bis	#-32544,r14	;#0x80e0
    53ca:	7f 40 15 00 	mov.b	#21,	r15	;#0x0015
    53ce:	b0 12 5c 53 	call	#0x535c	
    53d2:	c2 4a d5 1b 	mov.b	r10,	&0x1bd5	
    53d6:	69 4b       	mov.b	@r11,	r9	
    53d8:	0a 42       	mov	r2,	r10	
    53da:	3a f2       	and	#8,	r10	;r2 As==11
    53dc:	32 c2       	dint			
    53de:	03 43       	nop			
    53e0:	b0 12 1c 4a 	call	#0x4a1c	
    53e4:	4f 93       	tst.b	r15		
    53e6:	04 24       	jz	$+10     	;abs 0x53f0
    53e8:	0a 93       	tst	r10		
    53ea:	22 24       	jz	$+70     	;abs 0x5430
    53ec:	32 d2       	eint			
    53ee:	20 3c       	jmp	$+66     	;abs 0x5430
    53f0:	0a 93       	tst	r10		
    53f2:	01 24       	jz	$+4      	;abs 0x53f6
    53f4:	32 d2       	eint			
    53f6:	b2 40 3e 00 04 1c 	mov	#62,	&0x1c04	;#0x003e
    53fc:	7f 40 3e 00 	mov.b	#62,	r15	;#0x003e
    5400:	b0 12 dc 45 	call	#0x45dc	
    5404:	4f 49       	mov.b	r9,	r15	
    5406:	7f 53       	add.b	#-1,	r15	;r3 As==11
    5408:	4f 4f       	mov.b	r15,	r15	
    540a:	c2 43 02 1c 	mov.b	#0,	&0x1c02	;r3 As==00
    540e:	82 4b f4 1b 	mov	r11,	&0x1bf4	
    5412:	82 43 70 1c 	mov	#0,	&0x1c70	;r3 As==00
    5416:	82 4f 4e 1f 	mov	r15,	&0x1f4e	
    541a:	82 43 4a 1f 	mov	#0,	&0x1f4a	;r3 As==00
    541e:	0f 93       	tst	r15		
    5420:	03 24       	jz	$+8      	;abs 0x5428
    5422:	b0 12 54 50 	call	#0x5054	
    5426:	04 3c       	jmp	$+10     	;abs 0x5430
    5428:	7f 40 06 00 	mov.b	#6,	r15	;#0x0006
    542c:	b0 12 96 4a 	call	#0x4a96	
    5430:	39 41       	pop	r9		
    5432:	3a 41       	pop	r10		
    5434:	3b 41       	pop	r11		
    5436:	30 41       	ret			

00005438 <CC2420ControlP__writeFsctrl>:
    5438:	0e 42       	mov	r2,	r14	
    543a:	32 c2       	dint			
    543c:	03 43       	nop			
    543e:	5f 42 8e 1c 	mov.b	&0x1c8e,r15	
    5442:	3e f2       	and	#8,	r14	;r2 As==11
    5444:	01 24       	jz	$+4      	;abs 0x5448
    5446:	32 d2       	eint			
    5448:	4e 4f       	mov.b	r15,	r14	
    544a:	0f 4e       	mov	r14,	r15	
    544c:	0f 5f       	rla	r15		
    544e:	0f 5f       	rla	r15		
    5450:	0f 5e       	add	r14,	r15	
    5452:	3f 50 2e 01 	add	#302,	r15	;#0x012e
    5456:	0e 4f       	mov	r15,	r14	
    5458:	3e d0 00 40 	bis	#16384,	r14	;#0x4000
    545c:	7f 40 18 00 	mov.b	#24,	r15	;#0x0018
    5460:	b0 12 5c 53 	call	#0x535c	
    5464:	30 41       	ret			

00005466 <CC2420ControlP__writeMdmctrl0>:
    5466:	0b 12       	push	r11		
    5468:	0b 42       	mov	r2,	r11	
    546a:	3b f2       	and	#8,	r11	;r2 As==11
    546c:	32 c2       	dint			
    546e:	03 43       	nop			
    5470:	c2 93 d6 1b 	tst.b	&0x1bd6	
    5474:	04 24       	jz	$+10     	;abs 0x547e
    5476:	1e 43       	mov	#1,	r14	;r3 As==01
    5478:	c2 93 58 1f 	tst.b	&0x1f58	
    547c:	01 20       	jnz	$+4      	;abs 0x5480
    547e:	0e 43       	clr	r14		
    5480:	4e 4e       	mov.b	r14,	r14	
    5482:	8e 10       	swpb	r14		
    5484:	0e 5e       	rla	r14		
    5486:	0e 5e       	rla	r14		
    5488:	0e 5e       	rla	r14		
    548a:	c2 93 e6 1b 	tst.b	&0x1be6	
    548e:	04 24       	jz	$+10     	;abs 0x5498
    5490:	1f 43       	mov	#1,	r15	;r3 As==01
    5492:	c2 93 84 1c 	tst.b	&0x1c84	
    5496:	01 20       	jnz	$+4      	;abs 0x549a
    5498:	0f 43       	clr	r15		
    549a:	3e d0 e2 22 	bis	#8930,	r14	;#0x22e2
    549e:	0f 5f       	rla	r15		
    54a0:	0f 5f       	rla	r15		
    54a2:	0f 5f       	rla	r15		
    54a4:	0f 5f       	rla	r15		
    54a6:	0e df       	bis	r15,	r14	
    54a8:	7f 40 11 00 	mov.b	#17,	r15	;#0x0011
    54ac:	b0 12 5c 53 	call	#0x535c	
    54b0:	0b 93       	tst	r11		
    54b2:	01 24       	jz	$+4      	;abs 0x54b6
    54b4:	32 d2       	eint			
    54b6:	3b 41       	pop	r11		
    54b8:	30 41       	ret			

000054ba <CC2420SpiP__Ram__write>:
    54ba:	0b 12       	push	r11		
    54bc:	0a 12       	push	r10		
    54be:	09 12       	push	r9		
    54c0:	08 12       	push	r8		
    54c2:	07 12       	push	r7		
    54c4:	08 4f       	mov	r15,	r8	
    54c6:	4a 4e       	mov.b	r14,	r10	
    54c8:	07 4d       	mov	r13,	r7	
    54ca:	4b 4c       	mov.b	r12,	r11	
    54cc:	09 42       	mov	r2,	r9	
    54ce:	39 f2       	and	#8,	r9	;r2 As==11
    54d0:	32 c2       	dint			
    54d2:	03 43       	nop			
    54d4:	b0 12 1c 4a 	call	#0x4a1c	
    54d8:	4f 93       	tst.b	r15		
    54da:	04 24       	jz	$+10     	;abs 0x54e4
    54dc:	09 93       	tst	r9		
    54de:	22 24       	jz	$+70     	;abs 0x5524
    54e0:	32 d2       	eint			
    54e2:	20 3c       	jmp	$+66     	;abs 0x5524
    54e4:	09 93       	tst	r9		
    54e6:	01 24       	jz	$+4      	;abs 0x54ea
    54e8:	32 d2       	eint			
    54ea:	4a 4a       	mov.b	r10,	r10	
    54ec:	0a 58       	add	r8,	r10	
    54ee:	4f 4a       	mov.b	r10,	r15	
    54f0:	7f d0 80 ff 	bis.b	#-128,	r15	;#0xff80
    54f4:	b0 12 dc 45 	call	#0x45dc	
    54f8:	49 4f       	mov.b	r15,	r9	
    54fa:	0e 4a       	mov	r10,	r14	
    54fc:	12 c3       	clrc			
    54fe:	0e 10       	rrc	r14		
    5500:	4f 4e       	mov.b	r14,	r15	
    5502:	7f f0 c0 ff 	and.b	#-64,	r15	;#0xffc0
    5506:	b0 12 dc 45 	call	#0x45dc	
    550a:	4a 4b       	mov.b	r11,	r10	
    550c:	08 3c       	jmp	$+18     	;abs 0x551e
    550e:	4f 4b       	mov.b	r11,	r15	
    5510:	0e 4a       	mov	r10,	r14	
    5512:	0e 8f       	sub	r15,	r14	
    5514:	0e 57       	add	r7,	r14	
    5516:	6f 4e       	mov.b	@r14,	r15	
    5518:	b0 12 dc 45 	call	#0x45dc	
    551c:	7b 53       	add.b	#-1,	r11	;r3 As==11
    551e:	4b 93       	tst.b	r11		
    5520:	f6 23       	jnz	$-18     	;abs 0x550e
    5522:	01 3c       	jmp	$+4      	;abs 0x5526
    5524:	49 43       	clr.b	r9		
    5526:	4f 49       	mov.b	r9,	r15	
    5528:	37 41       	pop	r7		
    552a:	38 41       	pop	r8		
    552c:	39 41       	pop	r9		
    552e:	3a 41       	pop	r10		
    5530:	3b 41       	pop	r11		
    5532:	30 41       	ret			

00005534 <CC2420ControlP__writeId>:
    5534:	0b 12       	push	r11		
    5536:	31 50 f4 ff 	add	#-12,	r1	;#0xfff4
    553a:	0b 42       	mov	r2,	r11	
    553c:	32 c2       	dint			
    553e:	03 43       	nop			
    5540:	3d 42       	mov	#8,	r13	;r2 As==11
    5542:	3e 40 86 1c 	mov	#7302,	r14	;#0x1c86
    5546:	0f 41       	mov	r1,	r15	
    5548:	b0 12 ba 78 	call	#0x78ba	
    554c:	1f 42 e4 1b 	mov	&0x1be4,r15	
    5550:	c1 4f 08 00 	mov.b	r15,	8(r1)	;0x0008(r1)
    5554:	8f 10       	swpb	r15		
    5556:	c1 4f 09 00 	mov.b	r15,	9(r1)	;0x0009(r1)
    555a:	1f 42 00 1c 	mov	&0x1c00,r15	
    555e:	c1 4f 0a 00 	mov.b	r15,	10(r1)	;0x000a(r1)
    5562:	8f 10       	swpb	r15		
    5564:	c1 4f 0b 00 	mov.b	r15,	11(r1)	;0x000b(r1)
    5568:	3b b2       	bit	#8,	r11	;r2 As==11
    556a:	01 24       	jz	$+4      	;abs 0x556e
    556c:	32 d2       	eint			
    556e:	7c 40 0c 00 	mov.b	#12,	r12	;#0x000c
    5572:	0d 41       	mov	r1,	r13	
    5574:	4e 43       	clr.b	r14		
    5576:	3f 40 60 01 	mov	#352,	r15	;#0x0160
    557a:	b0 12 ba 54 	call	#0x54ba	
    557e:	31 50 0c 00 	add	#12,	r1	;#0x000c
    5582:	3b 41       	pop	r11		
    5584:	30 41       	ret			

00005586 <AMQueueImplP__0__Send__sendDone.isra.128>:
    5586:	5f 93       	cmp.b	#1,	r15	;r3 As==01
    5588:	0a 24       	jz	$+22     	;abs 0x559e
    558a:	03 28       	jnc	$+8      	;abs 0x5592
    558c:	6f 93       	cmp.b	#2,	r15	;r3 As==10
    558e:	16 20       	jnz	$+46     	;abs 0x55bc
    5590:	0e 3c       	jmp	$+30     	;abs 0x55ae
    5592:	3e 90 1c 1c 	cmp	#7196,	r14	;#0x1c1c
    5596:	12 20       	jnz	$+38     	;abs 0x55bc
    5598:	c2 43 e2 1b 	mov.b	#0,	&0x1be2	;r3 As==00
    559c:	30 41       	ret			
    559e:	3e 90 a0 1b 	cmp	#7072,	r14	;#0x1ba0
    55a2:	0c 20       	jnz	$+26     	;abs 0x55bc
    55a4:	c2 43 e2 1b 	mov.b	#0,	&0x1be2	;r3 As==00
    55a8:	b0 12 8e 4e 	call	#0x4e8e	
    55ac:	30 41       	ret			
    55ae:	3e 90 60 1f 	cmp	#8032,	r14	;#0x1f60
    55b2:	04 20       	jnz	$+10     	;abs 0x55bc
    55b4:	c2 43 e2 1b 	mov.b	#0,	&0x1be2	;r3 As==00
    55b8:	b0 12 a2 4e 	call	#0x4ea2	
    55bc:	30 41       	ret			

000055be <HplMsp430Usart0P__Usart__setModeSpi.constprop.140>:
    55be:	0b 12       	push	r11		
    55c0:	0b 42       	mov	r2,	r11	
    55c2:	32 c2       	dint			
    55c4:	03 43       	nop			
    55c6:	5f 43       	mov.b	#1,	r15	;r3 As==01
    55c8:	b0 12 b6 4e 	call	#0x4eb6	
    55cc:	f2 f0 da ff 70 00 	and.b	#-38,	&0x0070	;#0xffda
    55d2:	5f 43       	mov.b	#1,	r15	;r3 As==01
    55d4:	b0 12 b6 4e 	call	#0x4eb6	
    55d8:	f2 f0 3f 00 04 00 	and.b	#63,	&0x0004	;#0x003f
    55de:	f2 f0 ef ff 1b 00 	and.b	#-17,	&0x001b	;#0xffef
    55e4:	f2 f0 df ff 1b 00 	and.b	#-33,	&0x001b	;#0xffdf
    55ea:	5f 42 00 7c 	mov.b	&0x7c00,r15	
    55ee:	7f d0 05 00 	bis.b	#5,	r15	;#0x0005
    55f2:	c2 4f 70 00 	mov.b	r15,	&0x0070	
    55f6:	d2 42 01 7c 71 00 	mov.b	&0x7c01,&0x0071	
    55fc:	e2 43 74 00 	mov.b	#2,	&0x0074	;r3 As==10
    5600:	c2 43 75 00 	mov.b	#0,	&0x0075	;r3 As==00
    5604:	c2 43 73 00 	mov.b	#0,	&0x0073	;r3 As==00
    5608:	e2 d3 1b 00 	bis.b	#2,	&0x001b	;r3 As==10
    560c:	e2 d2 1b 00 	bis.b	#4,	&0x001b	;r2 As==10
    5610:	f2 d2 1b 00 	bis.b	#8,	&0x001b	;r2 As==11
    5614:	f2 d0 40 00 04 00 	bis.b	#64,	&0x0004	;#0x0040
    561a:	4f 43       	clr.b	r15		
    561c:	b0 12 b6 4e 	call	#0x4eb6	
    5620:	f2 f0 3f 00 02 00 	and.b	#63,	&0x0002	;#0x003f
    5626:	f2 f0 3f 00 00 00 	and.b	#63,	&0x0000	;#0x003f
    562c:	3b b2       	bit	#8,	r11	;r2 As==11
    562e:	01 24       	jz	$+4      	;abs 0x5632
    5630:	32 d2       	eint			
    5632:	3b 41       	pop	r11		
    5634:	30 41       	ret			

00005636 <StateImplP__State__requestState.constprop.141>:
    5636:	0e 42       	mov	r2,	r14	
    5638:	3e f2       	and	#8,	r14	;r2 As==11
    563a:	32 c2       	dint			
    563c:	03 43       	nop			
    563e:	4f 4f       	mov.b	r15,	r15	
    5640:	3f 50 76 1c 	add	#7286,	r15	;#0x1c76
    5644:	cf 93 00 00 	tst.b	0(r15)		;0x0000(r15)
    5648:	04 20       	jnz	$+10     	;abs 0x5652
    564a:	df 43 00 00 	mov.b	#1,	0(r15)	;r3 As==01, 0x0000(r15)
    564e:	0f 43       	clr	r15		
    5650:	01 3c       	jmp	$+4      	;abs 0x5654
    5652:	1f 43       	mov	#1,	r15	;r3 As==01
    5654:	0e 93       	tst	r14		
    5656:	01 24       	jz	$+4      	;abs 0x565a
    5658:	32 d2       	eint			
    565a:	30 41       	ret			

0000565c <CC2420SpiP__Resource__request>:
    565c:	0b 12       	push	r11		
    565e:	0a 12       	push	r10		
    5660:	4a 4f       	mov.b	r15,	r10	
    5662:	0b 42       	mov	r2,	r11	
    5664:	3b f2       	and	#8,	r11	;r2 As==11
    5666:	32 c2       	dint			
    5668:	03 43       	nop			
    566a:	4f 43       	clr.b	r15		
    566c:	b0 12 36 56 	call	#0x5636	
    5670:	0f 93       	tst	r15		
    5672:	3b 20       	jnz	$+120    	;abs 0x56ea
    5674:	c2 4a 0c 11 	mov.b	r10,	&0x110c	
    5678:	c2 93 09 11 	tst.b	&0x1109	
    567c:	04 20       	jnz	$+10     	;abs 0x5686
    567e:	1f 43       	mov	#1,	r15	;r3 As==01
    5680:	e2 92 df 1b 	cmp.b	#4,	&0x1bdf	;r2 As==10
    5684:	01 24       	jz	$+4      	;abs 0x5688
    5686:	0f 43       	clr	r15		
    5688:	4f 93       	tst.b	r15		
    568a:	05 24       	jz	$+12     	;abs 0x5696
    568c:	7f 40 05 00 	mov.b	#5,	r15	;#0x0005
    5690:	b0 12 96 4a 	call	#0x4a96	
    5694:	35 3c       	jmp	$+108    	;abs 0x5700
    5696:	c2 93 08 11 	tst.b	&0x1108	
    569a:	32 24       	jz	$+102    	;abs 0x5700
    569c:	1f 43       	mov	#1,	r15	;r3 As==01
    569e:	f2 93 fa 1b 	cmp.b	#-1,	&0x1bfa	;r3 As==11
    56a2:	04 20       	jnz	$+10     	;abs 0x56ac
    56a4:	c2 93 0a 11 	tst.b	&0x110a	
    56a8:	01 24       	jz	$+4      	;abs 0x56ac
    56aa:	0f 43       	clr	r15		
    56ac:	0f 93       	tst	r15		
    56ae:	28 20       	jnz	$+82     	;abs 0x5700
    56b0:	f2 93 0b 11 	cmp.b	#-1,	&0x110b	;r3 As==11
    56b4:	03 20       	jnz	$+8      	;abs 0x56bc
    56b6:	c2 43 0b 11 	mov.b	#0,	&0x110b	;r3 As==00
    56ba:	04 3c       	jmp	$+10     	;abs 0x56c4
    56bc:	5f 42 0a 11 	mov.b	&0x110a,r15	
    56c0:	cf 43 fa 1b 	mov.b	#0,	7162(r15);r3 As==00, 0x1bfa(r15)
    56c4:	c2 43 0a 11 	mov.b	#0,	&0x110a	;r3 As==00
    56c8:	c2 93 df 1b 	tst.b	&0x1bdf	
    56cc:	19 20       	jnz	$+52     	;abs 0x5700
    56ce:	d2 43 df 1b 	mov.b	#1,	&0x1bdf	;r3 As==01
    56d2:	f2 93 0b 11 	cmp.b	#-1,	&0x110b	;r3 As==11
    56d6:	03 24       	jz	$+8      	;abs 0x56de
    56d8:	b0 12 22 4f 	call	#0x4f22	
    56dc:	01 3c       	jmp	$+4      	;abs 0x56e0
    56de:	7f 43       	mov.b	#-1,	r15	;r3 As==11
    56e0:	c2 4f 08 11 	mov.b	r15,	&0x1108	
    56e4:	b0 12 54 52 	call	#0x5254	
    56e8:	0b 3c       	jmp	$+24     	;abs 0x5700
    56ea:	1e 43       	mov	#1,	r14	;r3 As==01
    56ec:	4f 4a       	mov.b	r10,	r15	
    56ee:	7f f0 0f 00 	and.b	#15,	r15	;#0x000f
    56f2:	4f 93       	tst.b	r15		
    56f4:	03 24       	jz	$+8      	;abs 0x56fc
    56f6:	0e 5e       	rla	r14		
    56f8:	7f 53       	add.b	#-1,	r15	;r3 As==11
    56fa:	fb 3f       	jmp	$-8      	;abs 0x56f2
    56fc:	c2 de ee 18 	bis.b	r14,	&0x18ee	
    5700:	0b 93       	tst	r11		
    5702:	01 24       	jz	$+4      	;abs 0x5706
    5704:	32 d2       	eint			
    5706:	0f 43       	clr	r15		
    5708:	3a 41       	pop	r10		
    570a:	3b 41       	pop	r11		
    570c:	30 41       	ret			

0000570e <CC2420SpiP__Resource__immediateRequest>:
    570e:	0b 12       	push	r11		
    5710:	0a 12       	push	r10		
    5712:	4a 4f       	mov.b	r15,	r10	
    5714:	0b 42       	mov	r2,	r11	
    5716:	3b f2       	and	#8,	r11	;r2 As==11
    5718:	32 c2       	dint			
    571a:	03 43       	nop			
    571c:	4f 43       	clr.b	r15		
    571e:	b0 12 36 56 	call	#0x5636	
    5722:	0f 93       	tst	r15		
    5724:	04 24       	jz	$+10     	;abs 0x572e
    5726:	0b 93       	tst	r11		
    5728:	26 24       	jz	$+78     	;abs 0x5776
    572a:	32 d2       	eint			
    572c:	24 3c       	jmp	$+74     	;abs 0x5776
    572e:	c2 93 09 11 	tst.b	&0x1109	
    5732:	04 20       	jnz	$+10     	;abs 0x573c
    5734:	1f 43       	mov	#1,	r15	;r3 As==01
    5736:	e2 92 df 1b 	cmp.b	#4,	&0x1bdf	;r2 As==10
    573a:	01 24       	jz	$+4      	;abs 0x573e
    573c:	0f 43       	clr	r15		
    573e:	4f 93       	tst.b	r15		
    5740:	0f 20       	jnz	$+32     	;abs 0x5760
    5742:	c2 93 df 1b 	tst.b	&0x1bdf	
    5746:	1c 20       	jnz	$+58     	;abs 0x5780
    5748:	f2 40 03 00 df 1b 	mov.b	#3,	&0x1bdf	;#0x0003
    574e:	c2 43 08 11 	mov.b	#0,	&0x1108	;r3 As==00
    5752:	b0 12 54 52 	call	#0x5254	
    5756:	c2 93 09 11 	tst.b	&0x1109	
    575a:	06 20       	jnz	$+14     	;abs 0x5768
    575c:	b0 12 be 55 	call	#0x55be	
    5760:	c2 4a 0c 11 	mov.b	r10,	&0x110c	
    5764:	0f 43       	clr	r15		
    5766:	03 3c       	jmp	$+8      	;abs 0x576e
    5768:	c2 43 df 1b 	mov.b	#0,	&0x1bdf	;r3 As==00
    576c:	09 3c       	jmp	$+20     	;abs 0x5780
    576e:	0b 93       	tst	r11		
    5770:	04 24       	jz	$+10     	;abs 0x577a
    5772:	32 d2       	eint			
    5774:	02 3c       	jmp	$+6      	;abs 0x577a
    5776:	3f 40 05 00 	mov	#5,	r15	;#0x0005
    577a:	3a 41       	pop	r10		
    577c:	3b 41       	pop	r11		
    577e:	30 41       	ret			
    5780:	b0 12 e0 4a 	call	#0x4ae0	
    5784:	1f 43       	mov	#1,	r15	;r3 As==01
    5786:	f3 3f       	jmp	$-24     	;abs 0x576e

00005788 <CC2420ReceiveP__beginReceive>:
    5788:	a2 43 9c 1b 	mov	#2,	&0x1b9c	;r3 As==10
    578c:	d2 43 de 1b 	mov.b	#1,	&0x1bde	;r3 As==01
    5790:	e2 92 0c 11 	cmp.b	#4,	&0x110c	;r2 As==10
    5794:	05 24       	jz	$+12     	;abs 0x57a0
    5796:	6f 42       	mov.b	#4,	r15	;r2 As==10
    5798:	b0 12 0e 57 	call	#0x570e	
    579c:	0f 93       	tst	r15		
    579e:	03 20       	jnz	$+8      	;abs 0x57a6
    57a0:	b0 12 e0 50 	call	#0x50e0	
    57a4:	30 41       	ret			
    57a6:	6f 42       	mov.b	#4,	r15	;r2 As==10
    57a8:	b0 12 5c 56 	call	#0x565c	
    57ac:	30 41       	ret			

000057ae <CC2420ReceiveP__waitForNextPacket>:
    57ae:	0b 12       	push	r11		
    57b0:	0b 42       	mov	r2,	r11	
    57b2:	3b f2       	and	#8,	r11	;r2 As==11
    57b4:	32 c2       	dint			
    57b6:	03 43       	nop			
    57b8:	82 93 9c 1b 	tst	&0x1b9c	
    57bc:	18 24       	jz	$+50     	;abs 0x57ee
    57be:	c2 43 de 1b 	mov.b	#0,	&0x1bde	;r3 As==00
    57c2:	5f 42 d7 1b 	mov.b	&0x1bd7,r15	
    57c6:	4f 93       	tst.b	r15		
    57c8:	03 24       	jz	$+8      	;abs 0x57d0
    57ca:	f2 b2 20 00 	bit.b	#8,	&0x0020	;r2 As==11
    57ce:	05 20       	jnz	$+12     	;abs 0x57da
    57d0:	d2 b3 20 00 	bit.b	#1,	&0x0020	;r3 As==01
    57d4:	08 20       	jnz	$+18     	;abs 0x57e6
    57d6:	4f 93       	tst.b	r15		
    57d8:	03 24       	jz	$+8      	;abs 0x57e0
    57da:	7f 53       	add.b	#-1,	r15	;r3 As==11
    57dc:	c2 4f d7 1b 	mov.b	r15,	&0x1bd7	
    57e0:	b0 12 88 57 	call	#0x5788	
    57e4:	07 3c       	jmp	$+16     	;abs 0x57f4
    57e6:	92 43 9c 1b 	mov	#1,	&0x1b9c	;r3 As==01
    57ea:	c2 43 d7 1b 	mov.b	#0,	&0x1bd7	;r3 As==00
    57ee:	6f 42       	mov.b	#4,	r15	;r2 As==10
    57f0:	b0 12 90 51 	call	#0x5190	
    57f4:	0b 93       	tst	r11		
    57f6:	01 24       	jz	$+4      	;abs 0x57fa
    57f8:	32 d2       	eint			
    57fa:	3b 41       	pop	r11		
    57fc:	30 41       	ret			

000057fe <CC2420ReceiveP__flush>:
    57fe:	b0 12 70 47 	call	#0x4770	
    5802:	b0 12 04 4b 	call	#0x4b04	
    5806:	b0 12 82 4a 	call	#0x4a82	
    580a:	7f 42       	mov.b	#8,	r15	;r2 As==11
    580c:	b0 12 34 4a 	call	#0x4a34	
    5810:	7f 42       	mov.b	#8,	r15	;r2 As==11
    5812:	b0 12 34 4a 	call	#0x4a34	
    5816:	b0 12 04 4b 	call	#0x4b04	
    581a:	6f 42       	mov.b	#4,	r15	;r2 As==10
    581c:	b0 12 90 51 	call	#0x5190	
    5820:	b0 12 ae 57 	call	#0x57ae	
    5824:	30 41       	ret			

00005826 <Msp430SpiNoDmaP__0__signalDone>:
    5826:	0b 12       	push	r11		
    5828:	0a 12       	push	r10		
    582a:	09 12       	push	r9		
    582c:	08 12       	push	r8		
    582e:	07 12       	push	r7		
    5830:	17 42 70 1c 	mov	&0x1c70,r7	
    5834:	c2 93 02 1c 	tst.b	&0x1c02	
    5838:	02 24       	jz	$+6      	;abs 0x583e
    583a:	30 40 2a 5b 	br	#0x5b2a	
    583e:	1f 42 04 1c 	mov	&0x1c04,r15	
    5842:	3f b0 40 00 	bit	#64,	r15	;#0x0040
    5846:	02 20       	jnz	$+6      	;abs 0x584c
    5848:	30 40 c2 5a 	br	#0x5ac2	
    584c:	7f f0 bf ff 	and.b	#-65,	r15	;#0xffbf
    5850:	7f 90 3f 00 	cmp.b	#63,	r15	;#0x003f
    5854:	02 24       	jz	$+6      	;abs 0x585a
    5856:	30 40 2a 5b 	br	#0x5b2a	
    585a:	1b 42 f8 18 	mov	&0x18f8,r11	
    585e:	6e 4b       	mov.b	@r11,	r14	
    5860:	c2 4e 9e 1b 	mov.b	r14,	&0x1b9e	
    5864:	1f 42 9c 1b 	mov	&0x1b9c,r15	
    5868:	3f 90 05 00 	cmp	#5,	r15	;#0x0005
    586c:	39 24       	jz	$+116    	;abs 0x58e0
    586e:	3f 90 06 00 	cmp	#6,	r15	;#0x0006
    5872:	86 24       	jz	$+270    	;abs 0x5980
    5874:	2f 93       	cmp	#2,	r15	;r3 As==10
    5876:	02 24       	jz	$+6      	;abs 0x587c
    5878:	30 40 b2 5a 	br	#0x5ab2	
    587c:	b2 40 05 00 9c 1b 	mov	#5,	&0x1b9c	;#0x0005
    5882:	5d 42 50 1a 	mov.b	&0x1a50,r13	
    5886:	4d 9e       	cmp.b	r14,	r13	
    5888:	27 24       	jz	$+80     	;abs 0x58d8
    588a:	26 28       	jnc	$+78     	;abs 0x58d8
    588c:	f2 b2 20 00 	bit.b	#8,	&0x0020	;r2 As==11
    5890:	08 20       	jnz	$+18     	;abs 0x58a2
    5892:	d2 b3 20 00 	bit.b	#1,	&0x0020	;r3 As==01
    5896:	05 20       	jnz	$+12     	;abs 0x58a2
    5898:	4f 4e       	mov.b	r14,	r15	
    589a:	7f e3       	xor.b	#-1,	r15	;r3 As==11
    589c:	4f 5d       	add.b	r13,	r15	
    589e:	c2 4f 50 1a 	mov.b	r15,	&0x1a50	
    58a2:	7e 90 2a 00 	cmp.b	#42,	r14	;#0x002a
    58a6:	18 2c       	jc	$+50     	;abs 0x58d8
    58a8:	4e 93       	tst.b	r14		
    58aa:	0e 24       	jz	$+30     	;abs 0x58c8
    58ac:	0f 4b       	mov	r11,	r15	
    58ae:	1f 53       	inc	r15		
    58b0:	7e 92       	cmp.b	#8,	r14	;r2 As==11
    58b2:	03 28       	jnc	$+8      	;abs 0x58ba
    58b4:	7e 40 07 00 	mov.b	#7,	r14	;#0x0007
    58b8:	03 3c       	jmp	$+8      	;abs 0x58c0
    58ba:	b2 40 06 00 9c 1b 	mov	#6,	&0x1b9c	;#0x0006
    58c0:	b0 12 f0 50 	call	#0x50f0	
    58c4:	30 40 2a 5b 	br	#0x5b2a	
    58c8:	c2 43 de 1b 	mov.b	#0,	&0x1bde	;r3 As==00
    58cc:	b0 12 04 4b 	call	#0x4b04	
    58d0:	6f 42       	mov.b	#4,	r15	;r2 As==10
    58d2:	b0 12 90 51 	call	#0x5190	
    58d6:	ea 3c       	jmp	$+470    	;abs 0x5aac
    58d8:	b0 12 fe 57 	call	#0x57fe	
    58dc:	30 40 2a 5b 	br	#0x5b2a	
    58e0:	b2 40 06 00 9c 1b 	mov	#6,	&0x1b9c	;#0x0006
    58e6:	c2 93 e6 1b 	tst.b	&0x1be6	
    58ea:	43 24       	jz	$+136    	;abs 0x5972
    58ec:	c2 93 84 1c 	tst.b	&0x1c84	
    58f0:	40 20       	jnz	$+130    	;abs 0x5972
    58f2:	5f 4b 02 00 	mov.b	2(r11),	r15	;0x0002(r11)
    58f6:	8f 10       	swpb	r15		
    58f8:	5e 4b 01 00 	mov.b	1(r11),	r14	;0x0001(r11)
    58fc:	0f de       	bis	r14,	r15	
    58fe:	3f f0 20 00 	and	#32,	r15	;#0x0020
    5902:	37 24       	jz	$+112    	;abs 0x5972
    5904:	5f 4b 07 00 	mov.b	7(r11),	r15	;0x0007(r11)
    5908:	8f 10       	swpb	r15		
    590a:	5e 4b 06 00 	mov.b	6(r11),	r14	;0x0006(r11)
    590e:	0f de       	bis	r14,	r15	
    5910:	0e 42       	mov	r2,	r14	
    5912:	32 c2       	dint			
    5914:	03 43       	nop			
    5916:	1d 42 00 1c 	mov	&0x1c00,r13	
    591a:	3e f2       	and	#8,	r14	;r2 As==11
    591c:	01 24       	jz	$+4      	;abs 0x5920
    591e:	32 d2       	eint			
    5920:	0f 9d       	cmp	r13,	r15	
    5922:	08 24       	jz	$+18     	;abs 0x5934
    5924:	5f 4b 07 00 	mov.b	7(r11),	r15	;0x0007(r11)
    5928:	8f 10       	swpb	r15		
    592a:	5e 4b 06 00 	mov.b	6(r11),	r14	;0x0006(r11)
    592e:	0f de       	bis	r14,	r15	
    5930:	3f 93       	cmp	#-1,	r15	;r3 As==11
    5932:	1f 20       	jnz	$+64     	;abs 0x5972
    5934:	5f 4b 02 00 	mov.b	2(r11),	r15	;0x0002(r11)
    5938:	8f 10       	swpb	r15		
    593a:	5e 4b 01 00 	mov.b	1(r11),	r14	;0x0001(r11)
    593e:	0f de       	bis	r14,	r15	
    5940:	3f f0 07 00 	and	#7,	r15	;#0x0007
    5944:	1f 93       	cmp	#1,	r15	;r3 As==01
    5946:	15 20       	jnz	$+44     	;abs 0x5972
    5948:	b0 12 04 4b 	call	#0x4b04	
    594c:	b0 12 82 4a 	call	#0x4a82	
    5950:	7f 40 0a 00 	mov.b	#10,	r15	;#0x000a
    5954:	b0 12 34 4a 	call	#0x4a34	
    5958:	b0 12 04 4b 	call	#0x4b04	
    595c:	b0 12 82 4a 	call	#0x4a82	
    5960:	5e 42 9e 1b 	mov.b	&0x1b9e,r14	
    5964:	7e 50 f9 ff 	add.b	#-7,	r14	;#0xfff9
    5968:	0f 4b       	mov	r11,	r15	
    596a:	3f 52       	add	#8,	r15	;r2 As==11
    596c:	b0 12 72 50 	call	#0x5072	
    5970:	dc 3c       	jmp	$+442    	;abs 0x5b2a
    5972:	5e 42 9e 1b 	mov.b	&0x1b9e,r14	
    5976:	7e 50 f9 ff 	add.b	#-7,	r14	;#0xfff9
    597a:	0f 4b       	mov	r11,	r15	
    597c:	3f 52       	add	#8,	r15	;r2 As==11
    597e:	a0 3f       	jmp	$-190    	;abs 0x58c0
    5980:	b0 12 04 4b 	call	#0x4b04	
    5984:	c2 93 d7 1b 	tst.b	&0x1bd7	
    5988:	03 20       	jnz	$+8      	;abs 0x5990
    598a:	6f 42       	mov.b	#4,	r15	;r2 As==10
    598c:	b0 12 90 51 	call	#0x5190	
    5990:	c2 93 d7 1b 	tst.b	&0x1bd7	
    5994:	03 24       	jz	$+8      	;abs 0x599c
    5996:	f2 b2 20 00 	bit.b	#8,	&0x0020	;r2 As==11
    599a:	0b 20       	jnz	$+24     	;abs 0x59b2
    599c:	d2 b3 20 00 	bit.b	#1,	&0x0020	;r3 As==01
    59a0:	08 24       	jz	$+18     	;abs 0x59b2
    59a2:	5a 42 ed 1c 	mov.b	&0x1ced,r10	
    59a6:	4a 93       	tst.b	r10		
    59a8:	04 24       	jz	$+10     	;abs 0x59b2
    59aa:	f2 90 0b 00 9e 1b 	cmp.b	#11,	&0x1b9e	;#0x000b
    59b0:	0e 2c       	jc	$+30     	;abs 0x59ce
    59b2:	1f 42 f8 18 	mov	&0x18f8,r15	
    59b6:	cf 43 2d 00 	mov.b	#0,	45(r15)	;r3 As==00, 0x002d(r15)
    59ba:	cf 43 31 00 	mov.b	#0,	49(r15)	;r3 As==00, 0x0031(r15)
    59be:	cf 43 30 00 	mov.b	#0,	48(r15)	;r3 As==00, 0x0030(r15)
    59c2:	cf 43 2f 00 	mov.b	#0,	47(r15)	;r3 As==00, 0x002f(r15)
    59c6:	ff 40 80 ff 2e 00 	mov.b	#-128,	46(r15)	;#0xff80, 0x002e(r15)
    59cc:	37 3c       	jmp	$+112    	;abs 0x5a3c
    59ce:	59 42 4c 1f 	mov.b	&0x1f4c,r9	
    59d2:	5a 93       	cmp.b	#1,	r10	;r3 As==01
    59d4:	19 20       	jnz	$+52     	;abs 0x5a08
    59d6:	0f 49       	mov	r9,	r15	
    59d8:	0f 5f       	rla	r15		
    59da:	0f 5f       	rla	r15		
    59dc:	3f 50 98 1c 	add	#7320,	r15	;#0x1c98
    59e0:	28 4f       	mov	@r15,	r8	
    59e2:	1c 4f 02 00 	mov	2(r15),	r12	;0x0002(r15)
    59e6:	1d 42 f8 18 	mov	&0x18f8,r13	
    59ea:	cd 48 31 00 	mov.b	r8,	49(r13)	;0x0031(r13)
    59ee:	0e 4c       	mov	r12,	r14	
    59f0:	0f 48       	mov	r8,	r15	
    59f2:	8f 10       	swpb	r15		
    59f4:	8e 10       	swpb	r14		
    59f6:	4f ee       	xor.b	r14,	r15	
    59f8:	0f ee       	xor	r14,	r15	
    59fa:	cd 4f 30 00 	mov.b	r15,	48(r13)	;0x0030(r13)
    59fe:	cd 4c 2f 00 	mov.b	r12,	47(r13)	;0x002f(r13)
    5a02:	8c 10       	swpb	r12		
    5a04:	cd 4c 2e 00 	mov.b	r12,	46(r13)	;0x002e(r13)
    5a08:	19 53       	inc	r9		
    5a0a:	79 f0 07 00 	and.b	#7,	r9	;#0x0007
    5a0e:	c2 49 4c 1f 	mov.b	r9,	&0x1f4c	
    5a12:	7a 53       	add.b	#-1,	r10	;r3 As==11
    5a14:	c2 4a ed 1c 	mov.b	r10,	&0x1ced	
    5a18:	11 24       	jz	$+36     	;abs 0x5a3c
    5a1a:	1f 42 f8 18 	mov	&0x18f8,r15	
    5a1e:	cf 43 2d 00 	mov.b	#0,	45(r15)	;r3 As==00, 0x002d(r15)
    5a22:	cf 43 31 00 	mov.b	#0,	49(r15)	;r3 As==00, 0x0031(r15)
    5a26:	cf 43 30 00 	mov.b	#0,	48(r15)	;r3 As==00, 0x0030(r15)
    5a2a:	cf 43 2f 00 	mov.b	#0,	47(r15)	;r3 As==00, 0x002f(r15)
    5a2e:	ff 40 80 ff 2e 00 	mov.b	#-128,	46(r15)	;#0xff80, 0x002e(r15)
    5a34:	c2 43 4c 1f 	mov.b	#0,	&0x1f4c	;r3 As==00
    5a38:	c2 43 ed 1c 	mov.b	#0,	&0x1ced	;r3 As==00
    5a3c:	5f 42 9e 1b 	mov.b	&0x1b9e,r15	
    5a40:	0f 5b       	add	r11,	r15	
    5a42:	cf 93 00 00 	tst.b	0(r15)		;0x0000(r15)
    5a46:	32 34       	jge	$+102    	;abs 0x5aac
    5a48:	07 93       	tst	r7		
    5a4a:	30 24       	jz	$+98     	;abs 0x5aac
    5a4c:	5f 4b 02 00 	mov.b	2(r11),	r15	;0x0002(r11)
    5a50:	8f 10       	swpb	r15		
    5a52:	5f db 01 00 	bis.b	1(r11),	r15	;0x0001(r11)
    5a56:	7f f0 07 00 	and.b	#7,	r15	;#0x0007
    5a5a:	1d 42 f8 18 	mov	&0x18f8,r13	
    5a5e:	6f 93       	cmp.b	#2,	r15	;r3 As==10
    5a60:	1f 20       	jnz	$+64     	;abs 0x5aa0
    5a62:	1f 42 e8 1b 	mov	&0x1be8,r15	
    5a66:	0f 93       	tst	r15		
    5a68:	21 24       	jz	$+68     	;abs 0x5aac
    5a6a:	b2 90 07 00 ea 18 	cmp	#7,	&0x18ea	;#0x0007
    5a70:	1d 20       	jnz	$+60     	;abs 0x5aac
    5a72:	df 9d 03 00 03 00 	cmp.b	3(r13),	3(r15)	;0x0003(r13), 0x0003(r15)
    5a78:	19 20       	jnz	$+52     	;abs 0x5aac
    5a7a:	b2 f0 ef ff 82 01 	and	#-17,	&0x0182	;#0xffef
    5a80:	6e 4d       	mov.b	@r13,	r14	
    5a82:	df 43 2c 00 	mov.b	#1,	44(r15)	;r3 As==01, 0x002c(r15)
    5a86:	0e 5d       	add	r13,	r14	
    5a88:	df 4e ff ff 28 00 	mov.b	-1(r14),40(r15)	;0xffff(r14), 0x0028(r15)
    5a8e:	6e 4e       	mov.b	@r14,	r14	
    5a90:	7e f0 7f 00 	and.b	#127,	r14	;#0x007f
    5a94:	cf 4e 29 00 	mov.b	r14,	41(r15)	;0x0029(r15)
    5a98:	0f 43       	clr	r15		
    5a9a:	b0 12 ac 52 	call	#0x52ac	
    5a9e:	06 3c       	jmp	$+14     	;abs 0x5aac
    5aa0:	5f 93       	cmp.b	#1,	r15	;r3 As==01
    5aa2:	04 20       	jnz	$+10     	;abs 0x5aac
    5aa4:	7f 42       	mov.b	#8,	r15	;r2 As==11
    5aa6:	b0 12 96 4a 	call	#0x4a96	
    5aaa:	3f 3c       	jmp	$+128    	;abs 0x5b2a
    5aac:	b0 12 ae 57 	call	#0x57ae	
    5ab0:	3c 3c       	jmp	$+122    	;abs 0x5b2a
    5ab2:	c2 43 de 1b 	mov.b	#0,	&0x1bde	;r3 As==00
    5ab6:	b0 12 04 4b 	call	#0x4b04	
    5aba:	6f 42       	mov.b	#4,	r15	;r2 As==10
    5abc:	b0 12 90 51 	call	#0x5190	
    5ac0:	34 3c       	jmp	$+106    	;abs 0x5b2a
    5ac2:	7f 90 3e 00 	cmp.b	#62,	r15	;#0x003e
    5ac6:	31 20       	jnz	$+100    	;abs 0x5b2a
    5ac8:	b0 12 04 4b 	call	#0x4b04	
    5acc:	b2 92 ea 18 	cmp	#8,	&0x18ea	;r2 As==11
    5ad0:	11 20       	jnz	$+36     	;abs 0x5af4
    5ad2:	b0 12 82 4a 	call	#0x4a82	
    5ad6:	7f 40 09 00 	mov.b	#9,	r15	;#0x0009
    5ada:	b0 12 34 4a 	call	#0x4a34	
    5ade:	b0 12 04 4b 	call	#0x4b04	
    5ae2:	b0 12 48 52 	call	#0x5248	
    5ae6:	92 43 ea 18 	mov	#1,	&0x18ea	;r3 As==01
    5aea:	3f 40 03 00 	mov	#3,	r15	;#0x0003
    5aee:	b0 12 94 52 	call	#0x5294	
    5af2:	1b 3c       	jmp	$+56     	;abs 0x5b2a
    5af4:	c2 93 94 1f 	tst.b	&0x1f94	
    5af8:	05 20       	jnz	$+12     	;abs 0x5b04
    5afa:	a2 42 ea 18 	mov	#4,	&0x18ea	;r2 As==10
    5afe:	b0 12 c6 52 	call	#0x52c6	
    5b02:	13 3c       	jmp	$+40     	;abs 0x5b2a
    5b04:	b0 12 48 52 	call	#0x5248	
    5b08:	b2 40 03 00 ea 18 	mov	#3,	&0x18ea	;#0x0003
    5b0e:	b0 12 84 45 	call	#0x4584	
    5b12:	3e 40 36 01 	mov	#310,	r14	;#0x0136
    5b16:	b0 12 58 78 	call	#0x7858	
    5b1a:	0e 4f       	mov	r15,	r14	
    5b1c:	3e 50 0b 00 	add	#11,	r14	;#0x000b
    5b20:	82 4e 44 1a 	mov	r14,	&0x1a44	
    5b24:	0f 43       	clr	r15		
    5b26:	b0 12 3e 4c 	call	#0x4c3e	
    5b2a:	37 41       	pop	r7		
    5b2c:	38 41       	pop	r8		
    5b2e:	39 41       	pop	r9		
    5b30:	3a 41       	pop	r10		
    5b32:	3b 41       	pop	r11		
    5b34:	30 41       	ret			

00005b36 <Msp430TimerP__1__Event__fired>:
    5b36:	0b 12       	push	r11		
    5b38:	0a 12       	push	r10		
    5b3a:	09 12       	push	r9		
    5b3c:	08 12       	push	r8		
    5b3e:	07 12       	push	r7		
    5b40:	06 12       	push	r6		
    5b42:	05 12       	push	r5		
    5b44:	7f 92       	cmp.b	#8,	r15	;r2 As==11
    5b46:	02 28       	jnc	$+6      	;abs 0x5b4c
    5b48:	30 40 e2 5e 	br	#0x5ee2	
    5b4c:	4f 4f       	mov.b	r15,	r15	
    5b4e:	0f 5f       	rla	r15		
    5b50:	10 4f b0 7b 	br	31664(r15)	;0x7bb0(r15)
    5b54:	1f 42 82 01 	mov	&0x0182,r15	
    5b58:	8f 10       	swpb	r15		
    5b5a:	5f f3       	and.b	#1,	r15	;r3 As==01
    5b5c:	04 24       	jz	$+10     	;abs 0x5b66
    5b5e:	1f 42 92 01 	mov	&0x0192,r15	
    5b62:	30 40 e2 5e 	br	#0x5ee2	
    5b66:	b2 f0 ef ff 82 01 	and	#-17,	&0x0182	;#0xffef
    5b6c:	82 93 f6 1b 	tst	&0x1bf6	
    5b70:	49 20       	jnz	$+148    	;abs 0x5c04
    5b72:	82 93 f8 1b 	tst	&0x1bf8	
    5b76:	46 20       	jnz	$+142    	;abs 0x5c04
    5b78:	1f 42 ea 18 	mov	&0x18ea,r15	
    5b7c:	3f 50 fd ff 	add	#-3,	r15	;#0xfffd
    5b80:	3f 90 06 00 	cmp	#6,	r15	;#0x0006
    5b84:	2f 2c       	jc	$+96     	;abs 0x5be4
    5b86:	0f 5f       	rla	r15		
    5b88:	10 4f c0 7b 	br	31680(r15)	;0x7bc0(r15)
    5b8c:	f2 b0 10 00 20 00 	bit.b	#16,	&0x0020	;#0x0010
    5b92:	08 24       	jz	$+18     	;abs 0x5ba4
    5b94:	a2 42 ea 18 	mov	#4,	&0x18ea	;r2 As==10
    5b98:	3e 40 07 00 	mov	#7,	r14	;#0x0007
    5b9c:	0f 43       	clr	r15		
    5b9e:	b0 12 3e 4c 	call	#0x4c3e	
    5ba2:	20 3c       	jmp	$+66     	;abs 0x5be4
    5ba4:	b0 12 74 4c 	call	#0x4c74	
    5ba8:	1d 3c       	jmp	$+60     	;abs 0x5be4
    5baa:	7f 40 03 00 	mov.b	#3,	r15	;#0x0003
    5bae:	b0 12 0e 57 	call	#0x570e	
    5bb2:	0f 93       	tst	r15		
    5bb4:	05 24       	jz	$+12     	;abs 0x5bc0
    5bb6:	7f 40 03 00 	mov.b	#3,	r15	;#0x0003
    5bba:	b0 12 5c 56 	call	#0x565c	
    5bbe:	12 3c       	jmp	$+38     	;abs 0x5be4
    5bc0:	b0 12 c6 52 	call	#0x52c6	
    5bc4:	0f 3c       	jmp	$+32     	;abs 0x5be4
    5bc6:	0f 43       	clr	r15		
    5bc8:	0b 3c       	jmp	$+24     	;abs 0x5be0
    5bca:	7f 40 09 00 	mov.b	#9,	r15	;#0x0009
    5bce:	b0 12 34 4a 	call	#0x4a34	
    5bd2:	5f 43       	mov.b	#1,	r15	;r3 As==01
    5bd4:	b0 12 42 46 	call	#0x4642	
    5bd8:	b0 12 48 52 	call	#0x5248	
    5bdc:	3f 40 07 00 	mov	#7,	r15	;#0x0007
    5be0:	b0 12 ac 52 	call	#0x52ac	
    5be4:	92 93 f2 18 	cmp	#1,	&0x18f2	;r3 As==01
    5be8:	02 24       	jz	$+6      	;abs 0x5bee
    5bea:	30 40 e2 5e 	br	#0x5ee2	
    5bee:	a2 43 f2 18 	mov	#2,	&0x18f2	;r3 As==10
    5bf2:	b0 12 66 4e 	call	#0x4e66	
    5bf6:	b0 12 7a 4e 	call	#0x4e7a	
    5bfa:	4f 43       	clr.b	r15		
    5bfc:	b0 12 5c 56 	call	#0x565c	
    5c00:	30 40 e2 5e 	br	#0x5ee2	
    5c04:	b0 12 5a 4b 	call	#0x4b5a	
    5c08:	30 40 e2 5e 	br	#0x5ee2	
    5c0c:	1f 42 84 01 	mov	&0x0184,r15	
    5c10:	8f 10       	swpb	r15		
    5c12:	5f f3       	and.b	#1,	r15	;r3 As==01
    5c14:	02 20       	jnz	$+6      	;abs 0x5c1a
    5c16:	30 40 e2 5e 	br	#0x5ee2	
    5c1a:	18 42 94 01 	mov	&0x0194,r8	
    5c1e:	b2 f0 fe ff 84 01 	and	#-2,	&0x0184	;#0xfffe
    5c24:	b2 f0 fd ff 84 01 	and	#-3,	&0x0184	;#0xfffd
    5c2a:	b0 12 16 4b 	call	#0x4b16	
    5c2e:	0c 4e       	mov	r14,	r12	
    5c30:	0c 88       	sub	r8,	r12	
    5c32:	0d 43       	clr	r13		
    5c34:	06 4e       	mov	r14,	r6	
    5c36:	07 4f       	mov	r15,	r7	
    5c38:	06 8c       	sub	r12,	r6	
    5c3a:	07 7d       	subc	r13,	r7	
    5c3c:	1f 42 ea 18 	mov	&0x18ea,r15	
    5c40:	3f 90 05 00 	cmp	#5,	r15	;#0x0005
    5c44:	04 24       	jz	$+10     	;abs 0x5c4e
    5c46:	3f 90 06 00 	cmp	#6,	r15	;#0x0006
    5c4a:	b8 20       	jnz	$+370    	;abs 0x5dbc
    5c4c:	98 3c       	jmp	$+306    	;abs 0x5d7e
    5c4e:	b2 40 06 00 ea 18 	mov	#6,	&0x18ea	;#0x0006
    5c54:	d2 43 dd 1b 	mov.b	#1,	&0x1bdd	;r3 As==01
    5c58:	c2 43 e8 18 	mov.b	#0,	&0x18e8	;r3 As==00
    5c5c:	6f 43       	mov.b	#2,	r15	;r3 As==10
    5c5e:	b0 12 42 46 	call	#0x4642	
    5c62:	1c 42 e8 1b 	mov	&0x1be8,r12	
    5c66:	cc 46 31 00 	mov.b	r6,	49(r12)	;0x0031(r12)
    5c6a:	0f 46       	mov	r6,	r15	
    5c6c:	0d 47       	mov	r7,	r13	
    5c6e:	8f 10       	swpb	r15		
    5c70:	8d 10       	swpb	r13		
    5c72:	4f ed       	xor.b	r13,	r15	
    5c74:	0f ed       	xor	r13,	r15	
    5c76:	cc 4f 30 00 	mov.b	r15,	48(r12)	;0x0030(r12)
    5c7a:	0f 47       	mov	r7,	r15	
    5c7c:	cc 47 2f 00 	mov.b	r7,	47(r12)	;0x002f(r12)
    5c80:	8f 10       	swpb	r15		
    5c82:	cc 4f 2e 00 	mov.b	r15,	46(r12)	;0x002e(r12)
    5c86:	cc 93 2d 00 	tst.b	45(r12)	;0x002d(r12)
    5c8a:	64 24       	jz	$+202    	;abs 0x5d54
    5c8c:	65 4c       	mov.b	@r12,	r5	
    5c8e:	75 50 fb ff 	add.b	#-5,	r5	;#0xfffb
    5c92:	49 45       	mov.b	r5,	r9	
    5c94:	09 5c       	add	r12,	r9	
    5c96:	6d 49       	mov.b	@r9,	r13	
    5c98:	0a 43       	clr	r10		
    5c9a:	0b 43       	clr	r11		
    5c9c:	0b 4d       	mov	r13,	r11	
    5c9e:	8b 10       	swpb	r11		
    5ca0:	0c 43       	clr	r12		
    5ca2:	0d 43       	clr	r13		
    5ca4:	5d 49 01 00 	mov.b	1(r9),	r13	;0x0001(r9)
    5ca8:	0c da       	bis	r10,	r12	
    5caa:	0d db       	bis	r11,	r13	
    5cac:	5a 49 03 00 	mov.b	3(r9),	r10	;0x0003(r9)
    5cb0:	0b 43       	clr	r11		
    5cb2:	0c da       	bis	r10,	r12	
    5cb4:	0d db       	bis	r11,	r13	
    5cb6:	5a 49 02 00 	mov.b	2(r9),	r10	;0x0002(r9)
    5cba:	4b ea       	xor.b	r10,	r11	
    5cbc:	0b ea       	xor	r10,	r11	
    5cbe:	8b 10       	swpb	r11		
    5cc0:	4a 4a       	mov.b	r10,	r10	
    5cc2:	8a 10       	swpb	r10		
    5cc4:	0c da       	bis	r10,	r12	
    5cc6:	0d db       	bis	r11,	r13	
    5cc8:	0c 86       	sub	r6,	r12	
    5cca:	0d 77       	subc	r7,	r13	
    5ccc:	c9 4c 03 00 	mov.b	r12,	3(r9)	;0x0003(r9)
    5cd0:	0a 4d       	mov	r13,	r10	
    5cd2:	8c 10       	swpb	r12		
    5cd4:	8a 10       	swpb	r10		
    5cd6:	4c ea       	xor.b	r10,	r12	
    5cd8:	0c ea       	xor	r10,	r12	
    5cda:	c9 4c 02 00 	mov.b	r12,	2(r9)	;0x0002(r9)
    5cde:	0f 4d       	mov	r13,	r15	
    5ce0:	c9 4d 01 00 	mov.b	r13,	1(r9)	;0x0001(r9)
    5ce4:	8f 10       	swpb	r15		
    5ce6:	c9 4f 00 00 	mov.b	r15,	0(r9)	;0x0000(r9)
    5cea:	b0 12 82 4a 	call	#0x4a82	
    5cee:	6c 42       	mov.b	#4,	r12	;r2 As==10
    5cf0:	0d 49       	mov	r9,	r13	
    5cf2:	4e 45       	mov.b	r5,	r14	
    5cf4:	0f 43       	clr	r15		
    5cf6:	b0 12 ba 54 	call	#0x54ba	
    5cfa:	b0 12 04 4b 	call	#0x4b04	
    5cfe:	6f 49       	mov.b	@r9,	r15	
    5d00:	0c 43       	clr	r12		
    5d02:	0d 43       	clr	r13		
    5d04:	0d 4f       	mov	r15,	r13	
    5d06:	8d 10       	swpb	r13		
    5d08:	0a 43       	clr	r10		
    5d0a:	0b 43       	clr	r11		
    5d0c:	5b 49 01 00 	mov.b	1(r9),	r11	;0x0001(r9)
    5d10:	0c da       	bis	r10,	r12	
    5d12:	0d db       	bis	r11,	r13	
    5d14:	5a 49 03 00 	mov.b	3(r9),	r10	;0x0003(r9)
    5d18:	0b 43       	clr	r11		
    5d1a:	0c da       	bis	r10,	r12	
    5d1c:	0d db       	bis	r11,	r13	
    5d1e:	5a 49 02 00 	mov.b	2(r9),	r10	;0x0002(r9)
    5d22:	4b ea       	xor.b	r10,	r11	
    5d24:	0b ea       	xor	r10,	r11	
    5d26:	8b 10       	swpb	r11		
    5d28:	4a 4a       	mov.b	r10,	r10	
    5d2a:	8a 10       	swpb	r10		
    5d2c:	0c da       	bis	r10,	r12	
    5d2e:	0d db       	bis	r11,	r13	
    5d30:	0c 56       	add	r6,	r12	
    5d32:	0d 67       	addc	r7,	r13	
    5d34:	c9 4c 03 00 	mov.b	r12,	3(r9)	;0x0003(r9)
    5d38:	0f 4c       	mov	r12,	r15	
    5d3a:	0c 4d       	mov	r13,	r12	
    5d3c:	8f 10       	swpb	r15		
    5d3e:	8c 10       	swpb	r12		
    5d40:	4f ec       	xor.b	r12,	r15	
    5d42:	0f ec       	xor	r12,	r15	
    5d44:	c9 4f 02 00 	mov.b	r15,	2(r9)	;0x0002(r9)
    5d48:	0f 4d       	mov	r13,	r15	
    5d4a:	c9 4d 01 00 	mov.b	r13,	1(r9)	;0x0001(r9)
    5d4e:	8f 10       	swpb	r15		
    5d50:	c9 4f 00 00 	mov.b	r15,	0(r9)	;0x0000(r9)
    5d54:	1d 42 e8 1b 	mov	&0x1be8,r13	
    5d58:	5f 4d 02 00 	mov.b	2(r13),	r15	;0x0002(r13)
    5d5c:	8f 10       	swpb	r15		
    5d5e:	5d 4d 01 00 	mov.b	1(r13),	r13	;0x0001(r13)
    5d62:	0f dd       	bis	r13,	r15	
    5d64:	3f f0 20 00 	and	#32,	r15	;#0x0020
    5d68:	02 24       	jz	$+6      	;abs 0x5d6e
    5d6a:	d2 43 8c 1b 	mov.b	#1,	&0x1b8c	;r3 As==01
    5d6e:	b0 12 48 52 	call	#0x5248	
    5d72:	b2 f0 ef ff 82 01 	and	#-17,	&0x0182	;#0xffef
    5d78:	e2 b3 1c 00 	bit.b	#2,	&0x001c	;r3 As==10
    5d7c:	b2 20       	jnz	$+358    	;abs 0x5ee2
    5d7e:	c2 43 dd 1b 	mov.b	#0,	&0x1bdd	;r3 As==00
    5d82:	5f 43       	mov.b	#1,	r15	;r3 As==01
    5d84:	b0 12 42 46 	call	#0x4642	
    5d88:	1d 42 e8 1b 	mov	&0x1be8,r13	
    5d8c:	5f 4d 02 00 	mov.b	2(r13),	r15	;0x0002(r13)
    5d90:	8f 10       	swpb	r15		
    5d92:	5d 4d 01 00 	mov.b	1(r13),	r13	;0x0001(r13)
    5d96:	0f dd       	bis	r13,	r15	
    5d98:	3f f0 20 00 	and	#32,	r15	;#0x0020
    5d9c:	09 24       	jz	$+20     	;abs 0x5db0
    5d9e:	b2 40 07 00 ea 18 	mov	#7,	&0x18ea	;#0x0007
    5da4:	3e 40 00 01 	mov	#256,	r14	;#0x0100
    5da8:	0f 43       	clr	r15		
    5daa:	b0 12 3e 4c 	call	#0x4c3e	
    5dae:	03 3c       	jmp	$+8      	;abs 0x5db6
    5db0:	0f 43       	clr	r15		
    5db2:	b0 12 ac 52 	call	#0x52ac	
    5db6:	e2 b3 1c 00 	bit.b	#2,	&0x001c	;r3 As==10
    5dba:	93 24       	jz	$+296    	;abs 0x5ee2
    5dbc:	c2 93 e8 18 	tst.b	&0x18e8	
    5dc0:	27 20       	jnz	$+80     	;abs 0x5e10
    5dc2:	c2 93 dd 1b 	tst.b	&0x1bdd	
    5dc6:	24 20       	jnz	$+74     	;abs 0x5e10
    5dc8:	d2 43 dd 1b 	mov.b	#1,	&0x1bdd	;r3 As==01
    5dcc:	6f 43       	mov.b	#2,	r15	;r3 As==10
    5dce:	b0 12 42 46 	call	#0x4642	
    5dd2:	5c 42 1c 00 	mov.b	&0x001c,r12	
    5dd6:	5d 42 ed 1c 	mov.b	&0x1ced,r13	
    5dda:	7d 92       	cmp.b	#8,	r13	;r2 As==11
    5ddc:	0e 2c       	jc	$+30     	;abs 0x5dfa
    5dde:	4f 4d       	mov.b	r13,	r15	
    5de0:	5f 52 4c 1f 	add.b	&0x1f4c,r15	
    5de4:	3f f0 07 00 	and	#7,	r15	;#0x0007
    5de8:	0f 5f       	rla	r15		
    5dea:	0f 5f       	rla	r15		
    5dec:	8f 46 98 1c 	mov	r6,	7320(r15);0x1c98(r15)
    5df0:	8f 47 9a 1c 	mov	r7,	7322(r15);0x1c9a(r15)
    5df4:	5d 53       	inc.b	r13		
    5df6:	c2 4d ed 1c 	mov.b	r13,	&0x1ced	
    5dfa:	d2 43 e8 18 	mov.b	#1,	&0x18e8	;r3 As==01
    5dfe:	82 48 06 1c 	mov	r8,	&0x1c06	
    5e02:	e2 b3 1c 00 	bit.b	#2,	&0x001c	;r3 As==10
    5e06:	6d 20       	jnz	$+220    	;abs 0x5ee2
    5e08:	4e 4c       	mov.b	r12,	r14	
    5e0a:	6e f3       	and.b	#2,	r14	;r3 As==10
    5e0c:	5a 43       	mov.b	#1,	r10	;r3 As==01
    5e0e:	01 20       	jnz	$+4      	;abs 0x5e12
    5e10:	4a 43       	clr.b	r10		
    5e12:	d2 93 dd 1b 	cmp.b	#1,	&0x1bdd	;r3 As==01
    5e16:	65 20       	jnz	$+204    	;abs 0x5ee2
    5e18:	c2 43 dd 1b 	mov.b	#0,	&0x1bdd	;r3 As==00
    5e1c:	5f 43       	mov.b	#1,	r15	;r3 As==01
    5e1e:	b0 12 42 46 	call	#0x4642	
    5e22:	c2 43 e8 18 	mov.b	#0,	&0x18e8	;r3 As==00
    5e26:	4a 93       	tst.b	r10		
    5e28:	5c 20       	jnz	$+186    	;abs 0x5ee2
    5e2a:	0f 48       	mov	r8,	r15	
    5e2c:	1f 82 06 1c 	sub	&0x1c06,r15	
    5e30:	3f 90 0a 00 	cmp	#10,	r15	;#0x000a
    5e34:	56 2c       	jc	$+174    	;abs 0x5ee2
    5e36:	5f 42 ed 1c 	mov.b	&0x1ced,r15	
    5e3a:	4f 93       	tst.b	r15		
    5e3c:	03 24       	jz	$+8      	;abs 0x5e44
    5e3e:	7f 53       	add.b	#-1,	r15	;r3 As==11
    5e40:	c2 4f ed 1c 	mov.b	r15,	&0x1ced	
    5e44:	1f 42 e8 1b 	mov	&0x1be8,r15	
    5e48:	0f 93       	tst	r15		
    5e4a:	4b 24       	jz	$+152    	;abs 0x5ee2
    5e4c:	cf 43 2d 00 	mov.b	#0,	45(r15)	;r3 As==00, 0x002d(r15)
    5e50:	cf 43 31 00 	mov.b	#0,	49(r15)	;r3 As==00, 0x0031(r15)
    5e54:	cf 43 30 00 	mov.b	#0,	48(r15)	;r3 As==00, 0x0030(r15)
    5e58:	cf 43 2f 00 	mov.b	#0,	47(r15)	;r3 As==00, 0x002f(r15)
    5e5c:	ff 40 80 ff 2e 00 	mov.b	#-128,	46(r15)	;#0xff80, 0x002e(r15)
    5e62:	3f 3c       	jmp	$+128    	;abs 0x5ee2
    5e64:	1f 42 86 01 	mov	&0x0186,r15	
    5e68:	8f 10       	swpb	r15		
    5e6a:	5f f3       	and.b	#1,	r15	;r3 As==01
    5e6c:	03 24       	jz	$+8      	;abs 0x5e74
    5e6e:	1f 42 96 01 	mov	&0x0196,r15	
    5e72:	37 3c       	jmp	$+112    	;abs 0x5ee2
    5e74:	b2 f0 ef ff 86 01 	and	#-17,	&0x0186	;#0xffef
    5e7a:	82 93 d8 1b 	tst	&0x1bd8	
    5e7e:	08 20       	jnz	$+18     	;abs 0x5e90
    5e80:	82 93 da 1b 	tst	&0x1bda	
    5e84:	05 20       	jnz	$+12     	;abs 0x5e90
    5e86:	7f 40 09 00 	mov.b	#9,	r15	;#0x0009
    5e8a:	b0 12 96 4a 	call	#0x4a96	
    5e8e:	29 3c       	jmp	$+84     	;abs 0x5ee2
    5e90:	b0 12 70 4d 	call	#0x4d70	
    5e94:	26 3c       	jmp	$+78     	;abs 0x5ee2
    5e96:	1f 42 88 01 	mov	&0x0188,r15	
    5e9a:	8f 10       	swpb	r15		
    5e9c:	5f f3       	and.b	#1,	r15	;r3 As==01
    5e9e:	21 24       	jz	$+68     	;abs 0x5ee2
    5ea0:	1f 42 98 01 	mov	&0x0198,r15	
    5ea4:	1e 3c       	jmp	$+62     	;abs 0x5ee2
    5ea6:	1f 42 8a 01 	mov	&0x018a,r15	
    5eaa:	8f 10       	swpb	r15		
    5eac:	5f f3       	and.b	#1,	r15	;r3 As==01
    5eae:	19 24       	jz	$+52     	;abs 0x5ee2
    5eb0:	1f 42 9a 01 	mov	&0x019a,r15	
    5eb4:	16 3c       	jmp	$+46     	;abs 0x5ee2
    5eb6:	1f 42 8c 01 	mov	&0x018c,r15	
    5eba:	8f 10       	swpb	r15		
    5ebc:	5f f3       	and.b	#1,	r15	;r3 As==01
    5ebe:	11 24       	jz	$+36     	;abs 0x5ee2
    5ec0:	1f 42 9c 01 	mov	&0x019c,r15	
    5ec4:	0e 3c       	jmp	$+30     	;abs 0x5ee2
    5ec6:	1f 42 8e 01 	mov	&0x018e,r15	
    5eca:	8f 10       	swpb	r15		
    5ecc:	5f f3       	and.b	#1,	r15	;r3 As==01
    5ece:	09 24       	jz	$+20     	;abs 0x5ee2
    5ed0:	1f 42 9e 01 	mov	&0x019e,r15	
    5ed4:	06 3c       	jmp	$+14     	;abs 0x5ee2
    5ed6:	92 53 f0 1b 	inc	&0x1bf0	
    5eda:	82 63 f2 1b 	adc	&0x1bf2	
    5ede:	92 53 1a 1c 	inc	&0x1c1a	
    5ee2:	35 41       	pop	r5		
    5ee4:	36 41       	pop	r6		
    5ee6:	37 41       	pop	r7		
    5ee8:	38 41       	pop	r8		
    5eea:	39 41       	pop	r9		
    5eec:	3a 41       	pop	r10		
    5eee:	3b 41       	pop	r11		
    5ef0:	30 41       	ret			

00005ef2 <CC2420TinyosNetworkP__ActiveSend__send.isra.119>:
    5ef2:	0b 12       	push	r11		
    5ef4:	0a 12       	push	r10		
    5ef6:	0b 4f       	mov	r15,	r11	
    5ef8:	0a 42       	mov	r2,	r10	
    5efa:	32 c2       	dint			
    5efc:	03 43       	nop			
    5efe:	b0 12 9c 46 	call	#0x469c	
    5f02:	ff 40 3f 00 00 00 	mov.b	#63,	0(r15)	;#0x003f, 0x0000(r15)
    5f08:	3a b2       	bit	#8,	r10	;r2 As==11
    5f0a:	01 24       	jz	$+4      	;abs 0x5f0e
    5f0c:	32 d2       	eint			
    5f0e:	82 43 52 1f 	mov	#0,	&0x1f52	;r3 As==00
    5f12:	6f 43       	mov.b	#2,	r15	;r3 As==10
    5f14:	b0 12 36 56 	call	#0x5636	
    5f18:	0f 93       	tst	r15		
    5f1a:	6f 20       	jnz	$+224    	;abs 0x5ffa
    5f1c:	5f 42 90 1c 	mov.b	&0x1c90,r15	
    5f20:	4e 4f       	mov.b	r15,	r14	
    5f22:	5e 53       	inc.b	r14		
    5f24:	c2 4e 90 1c 	mov.b	r14,	&0x1c90	
    5f28:	cb 4f 03 00 	mov.b	r15,	3(r11)	;0x0003(r11)
    5f2c:	0a 42       	mov	r2,	r10	
    5f2e:	3a f2       	and	#8,	r10	;r2 As==11
    5f30:	32 c2       	dint			
    5f32:	03 43       	nop			
    5f34:	6f 43       	mov.b	#2,	r15	;r3 As==10
    5f36:	b0 12 68 4a 	call	#0x4a68	
    5f3a:	4f 93       	tst.b	r15		
    5f3c:	04 20       	jnz	$+10     	;abs 0x5f46
    5f3e:	0a 93       	tst	r10		
    5f40:	58 24       	jz	$+178    	;abs 0x5ff2
    5f42:	32 d2       	eint			
    5f44:	56 3c       	jmp	$+174    	;abs 0x5ff2
    5f46:	6f 42       	mov.b	#4,	r15	;r2 As==10
    5f48:	b0 12 a2 4c 	call	#0x4ca2	
    5f4c:	82 4b 0e 1c 	mov	r11,	&0x1c0e	
    5f50:	0a 93       	tst	r10		
    5f52:	01 24       	jz	$+4      	;abs 0x5f56
    5f54:	32 d2       	eint			
    5f56:	5f 4b 02 00 	mov.b	2(r11),	r15	;0x0002(r11)
    5f5a:	8f 10       	swpb	r15		
    5f5c:	5e 4b 01 00 	mov.b	1(r11),	r14	;0x0001(r11)
    5f60:	0f de       	bis	r14,	r15	
    5f62:	3f f0 20 cc 	and	#-13280,r15	;#0xcc20
    5f66:	4e 4f       	mov.b	r15,	r14	
    5f68:	3e d0 41 00 	bis	#65,	r14	;#0x0041
    5f6c:	8f 10       	swpb	r15		
    5f6e:	4f 4f       	mov.b	r15,	r15	
    5f70:	8f 10       	swpb	r15		
    5f72:	0e df       	bis	r15,	r14	
    5f74:	cb 4e 01 00 	mov.b	r14,	1(r11)	;0x0001(r11)
    5f78:	8e 10       	swpb	r14		
    5f7a:	cb 4e 02 00 	mov.b	r14,	2(r11)	;0x0002(r11)
    5f7e:	cb 43 2c 00 	mov.b	#0,	44(r11)	;r3 As==00, 0x002c(r11)
    5f82:	cb 43 28 00 	mov.b	#0,	40(r11)	;r3 As==00, 0x0028(r11)
    5f86:	cb 43 29 00 	mov.b	#0,	41(r11)	;r3 As==00, 0x0029(r11)
    5f8a:	cb 43 31 00 	mov.b	#0,	49(r11)	;r3 As==00, 0x0031(r11)
    5f8e:	cb 43 30 00 	mov.b	#0,	48(r11)	;r3 As==00, 0x0030(r11)
    5f92:	cb 43 2f 00 	mov.b	#0,	47(r11)	;r3 As==00, 0x002f(r11)
    5f96:	fb 40 80 ff 2e 00 	mov.b	#-128,	46(r11)	;#0xff80, 0x002e(r11)
    5f9c:	d2 43 7a 1c 	mov.b	#1,	&0x1c7a	;r3 As==01
    5fa0:	1d 42 0e 1c 	mov	&0x1c0e,r13	
    5fa4:	0f 42       	mov	r2,	r15	
    5fa6:	3f f2       	and	#8,	r15	;r2 As==11
    5fa8:	32 c2       	dint			
    5faa:	03 43       	nop			
    5fac:	1e 42 ea 18 	mov	&0x18ea,r14	
    5fb0:	3e 92       	cmp	#8,	r14	;r2 As==11
    5fb2:	02 24       	jz	$+6      	;abs 0x5fb8
    5fb4:	1e 93       	cmp	#1,	r14	;r3 As==01
    5fb6:	04 24       	jz	$+10     	;abs 0x5fc0
    5fb8:	0f 93       	tst	r15		
    5fba:	22 24       	jz	$+70     	;abs 0x6000
    5fbc:	32 d2       	eint			
    5fbe:	20 3c       	jmp	$+66     	;abs 0x6000
    5fc0:	a2 43 ea 18 	mov	#2,	&0x18ea	;r3 As==10
    5fc4:	d2 43 94 1f 	mov.b	#1,	&0x1f94	;r3 As==01
    5fc8:	82 4d e8 1b 	mov	r13,	&0x1be8	
    5fcc:	c2 43 fe 18 	mov.b	#0,	&0x18fe	;r3 As==00
    5fd0:	0f 93       	tst	r15		
    5fd2:	01 24       	jz	$+4      	;abs 0x5fd6
    5fd4:	32 d2       	eint			
    5fd6:	7f 40 03 00 	mov.b	#3,	r15	;#0x0003
    5fda:	b0 12 0e 57 	call	#0x570e	
    5fde:	0f 93       	tst	r15		
    5fe0:	05 24       	jz	$+12     	;abs 0x5fec
    5fe2:	7f 40 03 00 	mov.b	#3,	r15	;#0x0003
    5fe6:	b0 12 5c 56 	call	#0x565c	
    5fea:	0a 3c       	jmp	$+22     	;abs 0x6000
    5fec:	b0 12 a4 53 	call	#0x53a4	
    5ff0:	07 3c       	jmp	$+16     	;abs 0x6000
    5ff2:	b0 12 f2 4a 	call	#0x4af2	
    5ff6:	1f 43       	mov	#1,	r15	;r3 As==01
    5ff8:	04 3c       	jmp	$+10     	;abs 0x6002
    5ffa:	3f 40 05 00 	mov	#5,	r15	;#0x0005
    5ffe:	01 3c       	jmp	$+4      	;abs 0x6002
    6000:	0f 43       	clr	r15		
    6002:	3a 41       	pop	r10		
    6004:	3b 41       	pop	r11		
    6006:	30 41       	ret			

00006008 <CC2420ActiveMessageP__AMSend__send>:
    6008:	7c 90 1d 00 	cmp.b	#29,	r12	;#0x001d
    600c:	53 2c       	jc	$+168    	;abs 0x60b4
    600e:	cd 4f 0b 00 	mov.b	r15,	11(r13)	;0x000b(r13)
    6012:	cd 4e 06 00 	mov.b	r14,	6(r13)	;0x0006(r13)
    6016:	8e 10       	swpb	r14		
    6018:	cd 4e 07 00 	mov.b	r14,	7(r13)	;0x0007(r13)
    601c:	0f 42       	mov	r2,	r15	
    601e:	32 c2       	dint			
    6020:	03 43       	nop			
    6022:	1e 42 e4 1b 	mov	&0x1be4,r14	
    6026:	3f f2       	and	#8,	r15	;r2 As==11
    6028:	01 24       	jz	$+4      	;abs 0x602c
    602a:	32 d2       	eint			
    602c:	cd 4e 04 00 	mov.b	r14,	4(r13)	;0x0004(r13)
    6030:	8e 10       	swpb	r14		
    6032:	cd 4e 05 00 	mov.b	r14,	5(r13)	;0x0005(r13)
    6036:	0f 42       	mov	r2,	r15	
    6038:	32 c2       	dint			
    603a:	03 43       	nop			
    603c:	1e 42 06 11 	mov	&0x1106,r14	
    6040:	3f f2       	and	#8,	r15	;r2 As==11
    6042:	01 24       	jz	$+4      	;abs 0x6046
    6044:	32 d2       	eint			
    6046:	cd 4e 08 00 	mov.b	r14,	8(r13)	;0x0008(r13)
    604a:	8e 10       	swpb	r14		
    604c:	cd 4e 09 00 	mov.b	r14,	9(r13)	;0x0009(r13)
    6050:	5f 4d 01 00 	mov.b	1(r13),	r15	;0x0001(r13)
    6054:	3f d0 40 88 	bis	#-30656,r15	;#0x8840
    6058:	5e 4d 02 00 	mov.b	2(r13),	r14	;0x0002(r13)
    605c:	8e 10       	swpb	r14		
    605e:	0f de       	bis	r14,	r15	
    6060:	cd 4f 01 00 	mov.b	r15,	1(r13)	;0x0001(r13)
    6064:	8f 10       	swpb	r15		
    6066:	cd 4f 02 00 	mov.b	r15,	2(r13)	;0x0002(r13)
    606a:	4f 4c       	mov.b	r12,	r15	
    606c:	7f 50 0d 00 	add.b	#13,	r15	;#0x000d
    6070:	cd 4f 00 00 	mov.b	r15,	0(r13)	;0x0000(r13)
    6074:	c2 93 03 11 	tst.b	&0x1103	
    6078:	08 24       	jz	$+18     	;abs 0x608a
    607a:	c2 43 03 11 	mov.b	#0,	&0x1103	;r3 As==00
    607e:	0f 4d       	mov	r13,	r15	
    6080:	b0 12 f2 5e 	call	#0x5ef2	
    6084:	0f 93       	tst	r15		
    6086:	0f 20       	jnz	$+32     	;abs 0x60a6
    6088:	30 41       	ret			
    608a:	c2 4c 0c 1c 	mov.b	r12,	&0x1c0c	
    608e:	c2 43 0d 1c 	mov.b	#0,	&0x1c0d	;r3 As==00
    6092:	82 4d e4 18 	mov	r13,	&0x18e4	
    6096:	7f 40 0b 00 	mov.b	#11,	r15	;#0x000b
    609a:	b0 12 96 4a 	call	#0x4a96	
    609e:	c2 93 03 11 	tst.b	&0x1103	
    60a2:	0a 24       	jz	$+22     	;abs 0x60b8
    60a4:	03 3c       	jmp	$+8      	;abs 0x60ac
    60a6:	f2 43 03 11 	mov.b	#-1,	&0x1103	;r3 As==11
    60aa:	30 41       	ret			
    60ac:	c2 43 ee 1b 	mov.b	#0,	&0x1bee	;r3 As==00
    60b0:	0f 43       	clr	r15		
    60b2:	30 41       	ret			
    60b4:	2f 43       	mov	#2,	r15	;r3 As==10
    60b6:	30 41       	ret			
    60b8:	3f 40 09 00 	mov	#9,	r15	;#0x0009
    60bc:	30 41       	ret			

000060be <AMQueueImplP__0__Send__send>:
    60be:	0b 12       	push	r11		
    60c0:	0a 12       	push	r10		
    60c2:	09 12       	push	r9		
    60c4:	08 12       	push	r8		
    60c6:	7f 90 03 00 	cmp.b	#3,	r15	;#0x0003
    60ca:	2a 2c       	jc	$+86     	;abs 0x6120
    60cc:	4b 4f       	mov.b	r15,	r11	
    60ce:	0b 5b       	rla	r11		
    60d0:	3b 50 14 1c 	add	#7188,	r11	;#0x1c14
    60d4:	8b 93 00 00 	tst	0(r11)		;0x0000(r11)
    60d8:	25 20       	jnz	$+76     	;abs 0x6124
    60da:	8b 4e 00 00 	mov	r14,	0(r11)	;0x0000(r11)
    60de:	4c 4d       	mov.b	r13,	r12	
    60e0:	7c 50 0d 00 	add.b	#13,	r12	;#0x000d
    60e4:	ce 4c 00 00 	mov.b	r12,	0(r14)	;0x0000(r14)
    60e8:	f2 90 03 00 00 11 	cmp.b	#3,	&0x1100	;#0x0003
    60ee:	1d 28       	jnc	$+60     	;abs 0x612a
    60f0:	59 4e 0b 00 	mov.b	11(r14),r9	;0x000b(r14)
    60f4:	5a 4e 07 00 	mov.b	7(r14),	r10	;0x0007(r14)
    60f8:	8a 10       	swpb	r10		
    60fa:	58 4e 06 00 	mov.b	6(r14),	r8	;0x0006(r14)
    60fe:	c2 4f 00 11 	mov.b	r15,	&0x1100	
    6102:	4c 4d       	mov.b	r13,	r12	
    6104:	0d 4e       	mov	r14,	r13	
    6106:	0e 4a       	mov	r10,	r14	
    6108:	0e d8       	bis	r8,	r14	
    610a:	4f 49       	mov.b	r9,	r15	
    610c:	b0 12 08 60 	call	#0x6008	
    6110:	0f 93       	tst	r15		
    6112:	0b 24       	jz	$+24     	;abs 0x612a
    6114:	f2 40 03 00 00 11 	mov.b	#3,	&0x1100	;#0x0003
    611a:	8b 43 00 00 	mov	#0,	0(r11)	;r3 As==00, 0x0000(r11)
    611e:	06 3c       	jmp	$+14     	;abs 0x612c
    6120:	1f 43       	mov	#1,	r15	;r3 As==01
    6122:	04 3c       	jmp	$+10     	;abs 0x612c
    6124:	3f 40 05 00 	mov	#5,	r15	;#0x0005
    6128:	01 3c       	jmp	$+4      	;abs 0x612c
    612a:	0f 43       	clr	r15		
    612c:	38 41       	pop	r8		
    612e:	39 41       	pop	r9		
    6130:	3a 41       	pop	r10		
    6132:	3b 41       	pop	r11		
    6134:	30 41       	ret			

00006136 <SenderC__DQICalculate>:
    6136:	0b 12       	push	r11		
    6138:	0a 12       	push	r10		
    613a:	09 12       	push	r9		
    613c:	08 12       	push	r8		
    613e:	07 12       	push	r7		
    6140:	06 12       	push	r6		
    6142:	05 12       	push	r5		
    6144:	04 12       	push	r4		
    6146:	04 41       	mov	r1,	r4	
    6148:	34 50 10 00 	add	#16,	r4	;#0x0010
    614c:	31 50 e6 ff 	add	#-26,	r1	;#0xffe6
    6150:	84 41 ec ff 	mov	r1,	-20(r4)	;0xffec(r4)
    6154:	1d 42 96 1f 	mov	&0x1f96,r13	
    6158:	1d 53       	inc	r13		
    615a:	84 4d de ff 	mov	r13,	-34(r4)	;0xffde(r4)
    615e:	84 4d d8 ff 	mov	r13,	-40(r4)	;0xffd8(r4)
    6162:	94 54 d8 ff d8 ff 	rla	-40(r4)	;0xffd8(r4)
    6168:	1f 44 d8 ff 	mov	-40(r4),r15	;0xffd8(r4)
    616c:	0f 5f       	rla	r15		
    616e:	0f 5f       	rla	r15		
    6170:	1f 54 d8 ff 	add	-40(r4),r15	;0xffd8(r4)
    6174:	2f 53       	incd	r15		
    6176:	01 8f       	sub	r15,	r1	
    6178:	84 41 dc ff 	mov	r1,	-36(r4)	;0xffdc(r4)
    617c:	84 41 e4 ff 	mov	r1,	-28(r4)	;0xffe4(r4)
    6180:	0d 41       	mov	r1,	r13	
    6182:	7e 40 05 00 	mov.b	#5,	r14	;#0x0005
    6186:	1e 3c       	jmp	$+62     	;abs 0x61c4
    6188:	0c 4d       	mov	r13,	r12	
    618a:	0c 5f       	add	r15,	r12	
    618c:	8c 43 00 00 	mov	#0,	0(r12)	;r3 As==00, 0x0000(r12)
    6190:	2f 53       	incd	r15		
    6192:	3f 90 ca 00 	cmp	#202,	r15	;#0x00ca
    6196:	f8 23       	jnz	$-14     	;abs 0x6188
    6198:	7e 53       	add.b	#-1,	r14	;r3 As==11
    619a:	1d 54 d8 ff 	add	-40(r4),r13	;0xffd8(r4)
    619e:	4e 93       	tst.b	r14		
    61a0:	11 20       	jnz	$+36     	;abs 0x61c4
    61a2:	1d 42 e0 1b 	mov	&0x1be0,r13	
    61a6:	1d 82 72 1c 	sub	&0x1c72,r13	
    61aa:	0d 5d       	rla	r13		
    61ac:	84 4d e0 ff 	mov	r13,	-32(r4)	;0xffe0(r4)
    61b0:	b4 40 46 1a e8 ff 	mov	#6726,	-24(r4)	;#0x1a46, 0xffe8(r4)
    61b6:	94 44 e8 ff e6 ff 	mov	-24(r4),-26(r4)	;0xffe8(r4), 0xffe6(r4)
    61bc:	84 43 d6 ff 	mov	#0,	-42(r4)	;r3 As==00, 0xffd6(r4)
    61c0:	09 43       	clr	r9		
    61c2:	b8 3c       	jmp	$+370    	;abs 0x6334
    61c4:	0f 43       	clr	r15		
    61c6:	e0 3f       	jmp	$-62     	;abs 0x6188
    61c8:	1d 44 da ff 	mov	-38(r4),r13	;0xffda(r4)
    61cc:	cd 93 00 00 	tst.b	0(r13)		;0x0000(r13)
    61d0:	9f 20       	jnz	$+320    	;abs 0x6310
    61d2:	0f 45       	mov	r5,	r15	
    61d4:	0f 5f       	rla	r15		
    61d6:	1f 54 e4 ff 	add	-28(r4),r15	;0xffe4(r4)
    61da:	9f 4d 02 00 00 00 	mov	2(r13),	0(r15)	;0x0002(r13), 0x0000(r15)
    61e0:	09 95       	cmp	r5,	r9	
    61e2:	95 24       	jz	$+300    	;abs 0x630e
    61e4:	0f 49       	mov	r9,	r15	
    61e6:	1f 53       	inc	r15		
    61e8:	0f 95       	cmp	r5,	r15	
    61ea:	91 24       	jz	$+292    	;abs 0x630e
    61ec:	c4 49 eb ff 	mov.b	r9,	-21(r4)	;0xffeb(r4)
    61f0:	84 43 e2 ff 	mov	#0,	-30(r4)	;r3 As==00, 0xffe2(r4)
    61f4:	0e 45       	mov	r5,	r14	
    61f6:	16 44 e6 ff 	mov	-26(r4),r6	;0xffe6(r4)
    61fa:	81 3c       	jmp	$+260    	;abs 0x62fe
    61fc:	0f 48       	mov	r8,	r15	
    61fe:	0f 5f       	rla	r15		
    6200:	0f 58       	add	r8,	r15	
    6202:	0f 5f       	rla	r15		
    6204:	3f 50 f0 1c 	add	#7408,	r15	;#0x1cf0
    6208:	e4 9f ea ff 	cmp.b	@r15,	-22(r4)	;0xffea(r4)
    620c:	76 28       	jnc	$+238    	;abs 0x62fa
    620e:	02 12       	push	r2		
    6210:	32 c2       	dint			
    6212:	03 43       	nop			
    6214:	92 44 d6 ff 32 01 	mov	-42(r4),&0x0132	;0xffd6(r4)
    621a:	92 44 de ff 38 01 	mov	-34(r4),&0x0138	;0xffde(r4)
    6220:	1d 42 3a 01 	mov	&0x013a,r13	
    6224:	32 41       	pop	r2		
    6226:	0d 58       	add	r8,	r13	
    6228:	0d 5d       	rla	r13		
    622a:	1d 54 dc ff 	add	-36(r4),r13	;0xffdc(r4)
    622e:	9d 4f 02 00 00 00 	mov	2(r15),	0(r13)	;0x0002(r15), 0x0000(r13)
    6234:	09 98       	cmp	r8,	r9	
    6236:	60 24       	jz	$+194    	;abs 0x62f8
    6238:	0d 49       	mov	r9,	r13	
    623a:	1d 53       	inc	r13		
    623c:	0d 98       	cmp	r8,	r13	
    623e:	5c 24       	jz	$+186    	;abs 0x62f8
    6240:	45 49       	mov.b	r9,	r5	
    6242:	55 53       	inc.b	r5		
    6244:	07 43       	clr	r7		
    6246:	84 4e ee ff 	mov	r14,	-18(r4)	;0xffee(r4)
    624a:	4e 3c       	jmp	$+158    	;abs 0x62e8
    624c:	0f 49       	mov	r9,	r15	
    624e:	0f 5f       	rla	r15		
    6250:	0f 59       	add	r9,	r15	
    6252:	0f 5f       	rla	r15		
    6254:	3f 50 f0 1c 	add	#7408,	r15	;#0x1cf0
    6258:	1a 4f 02 00 	mov	2(r15),	r10	;0x0002(r15)
    625c:	0d 4b       	mov	r11,	r13	
    625e:	0d 89       	sub	r9,	r13	
    6260:	0c 48       	mov	r8,	r12	
    6262:	0c 5c       	rla	r12		
    6264:	0c 58       	add	r8,	r12	
    6266:	0c 5c       	rla	r12		
    6268:	3c 50 f0 1c 	add	#7408,	r12	;#0x1cf0
    626c:	1c 4c 02 00 	mov	2(r12),	r12	;0x0002(r12)
    6270:	0c 8a       	sub	r10,	r12	
    6272:	02 12       	push	r2		
    6274:	32 c2       	dint			
    6276:	03 43       	nop			
    6278:	82 4d 32 01 	mov	r13,	&0x0132	
    627c:	82 4c 38 01 	mov	r12,	&0x0138	
    6280:	1f 42 3a 01 	mov	&0x013a,r15	
    6284:	32 41       	pop	r2		
    6286:	0e 48       	mov	r8,	r14	
    6288:	0e 89       	sub	r9,	r14	
    628a:	b0 12 3e 78 	call	#0x783e	
    628e:	0f 5a       	add	r10,	r15	
    6290:	02 12       	push	r2		
    6292:	32 c2       	dint			
    6294:	03 43       	nop			
    6296:	92 44 d6 ff 32 01 	mov	-42(r4),&0x0132	;0xffd6(r4)
    629c:	92 44 de ff 38 01 	mov	-34(r4),&0x0138	;0xffde(r4)
    62a2:	1c 42 3a 01 	mov	&0x013a,r12	
    62a6:	32 41       	pop	r2		
    62a8:	0c 5b       	add	r11,	r12	
    62aa:	0c 5c       	rla	r12		
    62ac:	1c 54 dc ff 	add	-36(r4),r12	;0xffdc(r4)
    62b0:	8c 4f 00 00 	mov	r15,	0(r12)	;0x0000(r12)
    62b4:	0c 4b       	mov	r11,	r12	
    62b6:	0c 5c       	rla	r12		
    62b8:	0d 4c       	mov	r12,	r13	
    62ba:	0d 5b       	add	r11,	r13	
    62bc:	0d 5d       	rla	r13		
    62be:	3d 50 f0 1c 	add	#7408,	r13	;#0x1cf0
    62c2:	1f 8d 02 00 	sub	2(r13),	r15	;0x0002(r13)
    62c6:	02 12       	push	r2		
    62c8:	32 c2       	dint			
    62ca:	03 43       	nop			
    62cc:	82 4f 32 01 	mov	r15,	&0x0132	
    62d0:	b2 40 e8 03 38 01 	mov	#1000,	&0x0138	;#0x03e8
    62d6:	1f 42 3a 01 	mov	&0x013a,r15	
    62da:	32 41       	pop	r2		
    62dc:	1e 44 e0 ff 	mov	-32(r4),r14	;0xffe0(r4)
    62e0:	b0 12 3e 78 	call	#0x783e	
    62e4:	86 5f 00 00 	add	r15,	0(r6)	;0x0000(r6)
    62e8:	4d 45       	mov.b	r5,	r13	
    62ea:	4d 57       	add.b	r7,	r13	
    62ec:	4b 4d       	mov.b	r13,	r11	
    62ee:	17 53       	inc	r7		
    62f0:	0b 98       	cmp	r8,	r11	
    62f2:	ac 2b       	jnc	$-166    	;abs 0x624c
    62f4:	1e 44 ee ff 	mov	-18(r4),r14	;0xffee(r4)
    62f8:	09 48       	mov	r8,	r9	
    62fa:	94 53 e2 ff 	inc	-30(r4)	;0xffe2(r4)
    62fe:	5f 44 eb ff 	mov.b	-21(r4),r15	;0xffeb(r4)
    6302:	5f 54 e2 ff 	add.b	-30(r4),r15	;0xffe2(r4)
    6306:	48 4f       	mov.b	r15,	r8	
    6308:	0e 98       	cmp	r8,	r14	
    630a:	78 2f       	jc	$-270    	;abs 0x61fc
    630c:	05 4e       	mov	r14,	r5	
    630e:	09 45       	mov	r5,	r9	
    6310:	15 53       	inc	r5		
    6312:	b4 50 06 00 da ff 	add	#6,	-38(r4)	;#0x0006, 0xffda(r4)
    6318:	35 90 64 00 	cmp	#100,	r5	;#0x0064
    631c:	55 23       	jnz	$-340    	;abs 0x61c8
    631e:	94 53 d6 ff 	inc	-42(r4)	;0xffd6(r4)
    6322:	94 54 d8 ff e4 ff 	add	-40(r4),-28(r4)	;0xffd8(r4), 0xffe4(r4)
    6328:	a4 53 e6 ff 	incd	-26(r4)	;0xffe6(r4)
    632c:	b4 90 05 00 d6 ff 	cmp	#5,	-42(r4)	;#0x0005, 0xffd6(r4)
    6332:	09 24       	jz	$+20     	;abs 0x6346
    6334:	1d 44 d6 ff 	mov	-42(r4),r13	;0xffd6(r4)
    6338:	c4 4d ea ff 	mov.b	r13,	-22(r4)	;0xffea(r4)
    633c:	b4 40 f0 1c da ff 	mov	#7408,	-38(r4)	;#0x1cf0, 0xffda(r4)
    6342:	05 43       	clr	r5		
    6344:	41 3f       	jmp	$-380    	;abs 0x61c8
    6346:	c2 93 e2 1b 	tst.b	&0x1be2	
    634a:	ac 20       	jnz	$+346    	;abs 0x64a4
    634c:	5d 42 59 1f 	mov.b	&0x1f59,r13	
    6350:	0f 43       	clr	r15		
    6352:	0e 43       	clr	r14		
    6354:	5d 9f f0 1c 	cmp.b	7408(r15),r13	;0x1cf0(r15)
    6358:	01 28       	jnc	$+4      	;abs 0x635c
    635a:	1e 53       	inc	r14		
    635c:	3f 50 06 00 	add	#6,	r15	;#0x0006
    6360:	3f 90 58 02 	cmp	#600,	r15	;#0x0258
    6364:	f7 23       	jnz	$-16     	;abs 0x6354
    6366:	0d 43       	clr	r13		
    6368:	1c 44 e8 ff 	mov	-24(r4),r12	;0xffe8(r4)
    636c:	3b 4c       	mov	@r12+,	r11	
    636e:	0f 4d       	mov	r13,	r15	
    6370:	3f 50 05 00 	add	#5,	r15	;#0x0005
    6374:	0f 5f       	rla	r15		
    6376:	3f 50 a0 1b 	add	#7072,	r15	;#0x1ba0
    637a:	cf 4b 0d 00 	mov.b	r11,	13(r15)	;0x000d(r15)
    637e:	3f 50 0c 00 	add	#12,	r15	;#0x000c
    6382:	8b 10       	swpb	r11		
    6384:	cf 4b 00 00 	mov.b	r11,	0(r15)	;0x0000(r15)
    6388:	1d 53       	inc	r13		
    638a:	3d 90 05 00 	cmp	#5,	r13	;#0x0005
    638e:	ee 23       	jnz	$-34     	;abs 0x636c
    6390:	1f 42 de 18 	mov	&0x18de,r15	
    6394:	c2 4f ad 1b 	mov.b	r15,	&0x1bad	
    6398:	8f 10       	swpb	r15		
    639a:	c2 4f ac 1b 	mov.b	r15,	&0x1bac	
    639e:	1f 42 6e 1c 	mov	&0x1c6e,r15	
    63a2:	0d 4f       	mov	r15,	r13	
    63a4:	1d 53       	inc	r13		
    63a6:	82 4d 6e 1c 	mov	r13,	&0x1c6e	
    63aa:	c2 4f af 1b 	mov.b	r15,	&0x1baf	
    63ae:	8f 10       	swpb	r15		
    63b0:	c2 4f ae 1b 	mov.b	r15,	&0x1bae	
    63b4:	c2 4e b1 1b 	mov.b	r14,	&0x1bb1	
    63b8:	8e 10       	swpb	r14		
    63ba:	c2 4e b0 1b 	mov.b	r14,	&0x1bb0	
    63be:	1f 42 52 1a 	mov	&0x1a52,r15	
    63c2:	c2 4f b3 1b 	mov.b	r15,	&0x1bb3	
    63c6:	8f 10       	swpb	r15		
    63c8:	c2 4f b2 1b 	mov.b	r15,	&0x1bb2	
    63cc:	1f 42 8a 1b 	mov	&0x1b8a,r15	
    63d0:	c2 4f b5 1b 	mov.b	r15,	&0x1bb5	
    63d4:	8f 10       	swpb	r15		
    63d6:	c2 4f b4 1b 	mov.b	r15,	&0x1bb4	
    63da:	f2 43 a6 1b 	mov.b	#-1,	&0x1ba6	;r3 As==11
    63de:	f2 43 a7 1b 	mov.b	#-1,	&0x1ba7	;r3 As==11
    63e2:	d2 43 ab 1b 	mov.b	#1,	&0x1bab	;r3 As==01
    63e6:	7d 40 14 00 	mov.b	#20,	r13	;#0x0014
    63ea:	3e 40 a0 1b 	mov	#7072,	r14	;#0x1ba0
    63ee:	5f 43       	mov.b	#1,	r15	;r3 As==01
    63f0:	b0 12 be 60 	call	#0x60be	
    63f4:	0f 93       	tst	r15		
    63f6:	04 20       	jnz	$+10     	;abs 0x6400
    63f8:	d2 43 e2 1b 	mov.b	#1,	&0x1be2	;r3 As==01
    63fc:	b0 12 8e 4e 	call	#0x4e8e	
    6400:	3f 40 14 00 	mov	#20,	r15	;#0x0014
    6404:	b0 12 1e 7a 	call	#0x7a1e	
    6408:	0b 4f       	mov	r15,	r11	
    640a:	5f 42 ac 1b 	mov.b	&0x1bac,r15	
    640e:	8f 10       	swpb	r15		
    6410:	5e 42 ad 1b 	mov.b	&0x1bad,r14	
    6414:	0f de       	bis	r14,	r15	
    6416:	cb 4f 01 00 	mov.b	r15,	1(r11)	;0x0001(r11)
    641a:	8f 10       	swpb	r15		
    641c:	cb 4f 00 00 	mov.b	r15,	0(r11)	;0x0000(r11)
    6420:	5f 42 ae 1b 	mov.b	&0x1bae,r15	
    6424:	8f 10       	swpb	r15		
    6426:	5e 42 af 1b 	mov.b	&0x1baf,r14	
    642a:	0f de       	bis	r14,	r15	
    642c:	cb 4f 03 00 	mov.b	r15,	3(r11)	;0x0003(r11)
    6430:	8f 10       	swpb	r15		
    6432:	cb 4f 02 00 	mov.b	r15,	2(r11)	;0x0002(r11)
    6436:	5f 42 b0 1b 	mov.b	&0x1bb0,r15	
    643a:	8f 10       	swpb	r15		
    643c:	5e 42 b1 1b 	mov.b	&0x1bb1,r14	
    6440:	0f de       	bis	r14,	r15	
    6442:	cb 4f 05 00 	mov.b	r15,	5(r11)	;0x0005(r11)
    6446:	8f 10       	swpb	r15		
    6448:	cb 4f 04 00 	mov.b	r15,	4(r11)	;0x0004(r11)
    644c:	5f 42 b2 1b 	mov.b	&0x1bb2,r15	
    6450:	8f 10       	swpb	r15		
    6452:	5e 42 b3 1b 	mov.b	&0x1bb3,r14	
    6456:	0f de       	bis	r14,	r15	
    6458:	cb 4f 07 00 	mov.b	r15,	7(r11)	;0x0007(r11)
    645c:	8f 10       	swpb	r15		
    645e:	cb 4f 06 00 	mov.b	r15,	6(r11)	;0x0006(r11)
    6462:	5f 42 b4 1b 	mov.b	&0x1bb4,r15	
    6466:	8f 10       	swpb	r15		
    6468:	5e 42 b5 1b 	mov.b	&0x1bb5,r14	
    646c:	0f de       	bis	r14,	r15	
    646e:	cb 4f 09 00 	mov.b	r15,	9(r11)	;0x0009(r11)
    6472:	8f 10       	swpb	r15		
    6474:	cb 4f 08 00 	mov.b	r15,	8(r11)	;0x0008(r11)
    6478:	1f 42 0a 1c 	mov	&0x1c0a,r15	
    647c:	bf 90 05 00 04 00 	cmp	#5,	4(r15)	;#0x0005, 0x0004(r15)
    6482:	02 20       	jnz	$+6      	;abs 0x6488
    6484:	b0 12 20 49 	call	#0x4920	
    6488:	5f 42 ae 1b 	mov.b	&0x1bae,r15	
    648c:	8f 10       	swpb	r15		
    648e:	5d 42 af 1b 	mov.b	&0x1baf,r13	
    6492:	0c 43       	clr	r12		
    6494:	0d df       	bis	r15,	r13	
    6496:	0e 4b       	mov	r11,	r14	
    6498:	1f 42 0a 1c 	mov	&0x1c0a,r15	
    649c:	b0 12 4a 49 	call	#0x494a	
    64a0:	b0 12 e2 46 	call	#0x46e2	
    64a4:	11 44 ec ff 	mov	-20(r4),r1	;0xffec(r4)
    64a8:	31 50 1a 00 	add	#26,	r1	;#0x001a
    64ac:	34 41       	pop	r4		
    64ae:	35 41       	pop	r5		
    64b0:	36 41       	pop	r6		
    64b2:	37 41       	pop	r7		
    64b4:	38 41       	pop	r8		
    64b6:	39 41       	pop	r9		
    64b8:	3a 41       	pop	r10		
    64ba:	3b 41       	pop	r11		
    64bc:	30 41       	ret			

000064be <VirtualizeTimerC__0__fireTimers>:
    64be:	0b 12       	push	r11		
    64c0:	0a 12       	push	r10		
    64c2:	09 12       	push	r9		
    64c4:	08 12       	push	r8		
    64c6:	07 12       	push	r7		
    64c8:	06 12       	push	r6		
    64ca:	05 12       	push	r5		
    64cc:	31 50 f4 ff 	add	#-12,	r1	;#0xfff4
    64d0:	06 4e       	mov	r14,	r6	
    64d2:	07 4f       	mov	r15,	r7	
    64d4:	05 43       	clr	r5		
    64d6:	0e 45       	mov	r5,	r14	
    64d8:	0e 5e       	rla	r14		
    64da:	0f 4e       	mov	r14,	r15	
    64dc:	0f 5f       	rla	r15		
    64de:	0f 5f       	rla	r15		
    64e0:	0f 5e       	add	r14,	r15	
    64e2:	3f 50 50 1c 	add	#7248,	r15	;#0x1c50
    64e6:	5e 4f 08 00 	mov.b	8(r15),	r14	;0x0008(r15)
    64ea:	6e b3       	bit.b	#2,	r14	;r3 As==10
    64ec:	02 20       	jnz	$+6      	;abs 0x64f2
    64ee:	30 40 5e 6b 	br	#0x6b5e	
    64f2:	2a 4f       	mov	@r15,	r10	
    64f4:	1b 4f 02 00 	mov	2(r15),	r11	;0x0002(r15)
    64f8:	1c 4f 04 00 	mov	4(r15),	r12	;0x0004(r15)
    64fc:	1d 4f 06 00 	mov	6(r15),	r13	;0x0006(r15)
    6500:	08 46       	mov	r6,	r8	
    6502:	09 47       	mov	r7,	r9	
    6504:	08 8a       	sub	r10,	r8	
    6506:	09 7b       	subc	r11,	r9	
    6508:	09 9d       	cmp	r13,	r9	
    650a:	02 2c       	jc	$+6      	;abs 0x6510
    650c:	30 40 5e 6b 	br	#0x6b5e	
    6510:	04 20       	jnz	$+10     	;abs 0x651a
    6512:	08 9c       	cmp	r12,	r8	
    6514:	02 2c       	jc	$+6      	;abs 0x651a
    6516:	30 40 5e 6b 	br	#0x6b5e	
    651a:	5e f3       	and.b	#1,	r14	;r3 As==01
    651c:	04 24       	jz	$+10     	;abs 0x6526
    651e:	ff f0 fd ff 08 00 	and.b	#-3,	8(r15)	;#0xfffd, 0x0008(r15)
    6524:	08 3c       	jmp	$+18     	;abs 0x6536
    6526:	08 4c       	mov	r12,	r8	
    6528:	09 4d       	mov	r13,	r9	
    652a:	08 5a       	add	r10,	r8	
    652c:	09 6b       	addc	r11,	r9	
    652e:	8f 48 00 00 	mov	r8,	0(r15)	;0x0000(r15)
    6532:	8f 49 02 00 	mov	r9,	2(r15)	;0x0002(r15)
    6536:	55 93       	cmp.b	#1,	r5	;r3 As==01
    6538:	06 24       	jz	$+14     	;abs 0x6546
    653a:	65 93       	cmp.b	#2,	r5	;r3 As==10
    653c:	02 24       	jz	$+6      	;abs 0x6542
    653e:	30 40 6a 6b 	br	#0x6b6a	
    6542:	30 40 52 69 	br	#0x6952	
    6546:	c2 93 7b 1c 	tst.b	&0x1c7b	
    654a:	07 20       	jnz	$+16     	;abs 0x655a
    654c:	c2 93 ec 1c 	tst.b	&0x1cec	
    6550:	04 20       	jnz	$+10     	;abs 0x655a
    6552:	82 43 96 1f 	mov	#0,	&0x1f96	;r3 As==00
    6556:	d2 43 7b 1c 	mov.b	#1,	&0x1c7b	;r3 As==01
    655a:	b0 12 52 7b 	call	#0x7b52	
    655e:	3e 40 0a 00 	mov	#10,	r14	;#0x000a
    6562:	b0 12 92 78 	call	#0x7892	
    6566:	7f 90 06 00 	cmp.b	#6,	r15	;#0x0006
    656a:	03 24       	jz	$+8      	;abs 0x6572
    656c:	02 28       	jnc	$+6      	;abs 0x6572
    656e:	30 40 a2 67 	br	#0x67a2	
    6572:	18 42 48 1f 	mov	&0x1f48,r8	
    6576:	0f 48       	mov	r8,	r15	
    6578:	0f 5f       	rla	r15		
    657a:	1a 4f 0e 11 	mov	4366(r15),r10	;0x110e(r15)
    657e:	1d 42 12 1c 	mov	&0x1c12,r13	
    6582:	82 4d 5a 1f 	mov	r13,	&0x1f5a	
    6586:	1e 42 56 1f 	mov	&0x1f56,r14	
    658a:	82 4e 12 1c 	mov	r14,	&0x1c12	
    658e:	1b 42 08 1c 	mov	&0x1c08,r11	
    6592:	82 4b 56 1f 	mov	r11,	&0x1f56	
    6596:	1f 42 54 1a 	mov	&0x1a54,r15	
    659a:	82 4f 08 1c 	mov	r15,	&0x1c08	
    659e:	82 4a 54 1a 	mov	r10,	&0x1a54	
    65a2:	0d 93       	tst	r13		
    65a4:	56 24       	jz	$+174    	;abs 0x6652
    65a6:	0e 9b       	cmp	r11,	r14	
    65a8:	06 2c       	jc	$+14     	;abs 0x65b6
    65aa:	0f 9b       	cmp	r11,	r15	
    65ac:	04 2c       	jc	$+10     	;abs 0x65b6
    65ae:	0d 9e       	cmp	r14,	r13	
    65b0:	02 2c       	jc	$+6      	;abs 0x65b6
    65b2:	0a 9f       	cmp	r15,	r10	
    65b4:	4e 28       	jnc	$+158    	;abs 0x6652
    65b6:	0b 9e       	cmp	r14,	r11	
    65b8:	06 2c       	jc	$+14     	;abs 0x65c6
    65ba:	0b 9f       	cmp	r15,	r11	
    65bc:	04 2c       	jc	$+10     	;abs 0x65c6
    65be:	0e 9d       	cmp	r13,	r14	
    65c0:	02 2c       	jc	$+6      	;abs 0x65c6
    65c2:	0f 9a       	cmp	r10,	r15	
    65c4:	46 28       	jnc	$+142    	;abs 0x6652
    65c6:	0e 9b       	cmp	r11,	r14	
    65c8:	02 28       	jnc	$+6      	;abs 0x65ce
    65ca:	0b 9e       	cmp	r14,	r11	
    65cc:	0a 28       	jnc	$+22     	;abs 0x65e2
    65ce:	0f 9b       	cmp	r11,	r15	
    65d0:	42 28       	jnc	$+134    	;abs 0x6656
    65d2:	0e 9b       	cmp	r11,	r14	
    65d4:	02 2c       	jc	$+6      	;abs 0x65da
    65d6:	0b 9f       	cmp	r15,	r11	
    65d8:	3e 2c       	jc	$+126    	;abs 0x6656
    65da:	0b 9e       	cmp	r14,	r11	
    65dc:	02 28       	jnc	$+6      	;abs 0x65e2
    65de:	0e 9b       	cmp	r11,	r14	
    65e0:	06 28       	jnc	$+14     	;abs 0x65ee
    65e2:	0b 9f       	cmp	r15,	r11	
    65e4:	38 28       	jnc	$+114    	;abs 0x6656
    65e6:	0b 9e       	cmp	r14,	r11	
    65e8:	02 2c       	jc	$+6      	;abs 0x65ee
    65ea:	0f 9b       	cmp	r11,	r15	
    65ec:	34 2c       	jc	$+106    	;abs 0x6656
    65ee:	0c 4e       	mov	r14,	r12	
    65f0:	0c 8d       	sub	r13,	r12	
    65f2:	0c 93       	tst	r12		
    65f4:	02 34       	jge	$+6      	;abs 0x65fa
    65f6:	3c e3       	inv	r12		
    65f8:	1c 53       	inc	r12		
    65fa:	09 4b       	mov	r11,	r9	
    65fc:	09 8e       	sub	r14,	r9	
    65fe:	0e 49       	mov	r9,	r14	
    6600:	09 93       	tst	r9		
    6602:	02 34       	jge	$+6      	;abs 0x6608
    6604:	3e e3       	inv	r14		
    6606:	1e 53       	inc	r14		
    6608:	0d 4f       	mov	r15,	r13	
    660a:	0d 8b       	sub	r11,	r13	
    660c:	0d 93       	tst	r13		
    660e:	02 34       	jge	$+6      	;abs 0x6614
    6610:	3d e3       	inv	r13		
    6612:	1d 53       	inc	r13		
    6614:	0a 8f       	sub	r15,	r10	
    6616:	0f 4a       	mov	r10,	r15	
    6618:	0a 93       	tst	r10		
    661a:	02 34       	jge	$+6      	;abs 0x6620
    661c:	3f e3       	inv	r15		
    661e:	1f 53       	inc	r15		
    6620:	0e 9c       	cmp	r12,	r14	
    6622:	02 2c       	jc	$+6      	;abs 0x6628
    6624:	0d 9f       	cmp	r15,	r13	
    6626:	19 28       	jnc	$+52     	;abs 0x665a
    6628:	0c 9e       	cmp	r14,	r12	
    662a:	02 2c       	jc	$+6      	;abs 0x6630
    662c:	0f 9d       	cmp	r13,	r15	
    662e:	15 28       	jnc	$+44     	;abs 0x665a
    6630:	0f 4c       	mov	r12,	r15	
    6632:	12 c3       	clrc			
    6634:	0f 10       	rrc	r15		
    6636:	0e 9f       	cmp	r15,	r14	
    6638:	05 2c       	jc	$+12     	;abs 0x6644
    663a:	0f 4d       	mov	r13,	r15	
    663c:	12 c3       	clrc			
    663e:	0f 10       	rrc	r15		
    6640:	0e 9f       	cmp	r15,	r14	
    6642:	0f 28       	jnc	$+32     	;abs 0x6662
    6644:	0c 5c       	rla	r12		
    6646:	0c 9e       	cmp	r14,	r12	
    6648:	0a 2c       	jc	$+22     	;abs 0x665e
    664a:	0d 5d       	rla	r13		
    664c:	0d 9e       	cmp	r14,	r13	
    664e:	09 28       	jnc	$+20     	;abs 0x6662
    6650:	06 3c       	jmp	$+14     	;abs 0x665e
    6652:	4a 43       	clr.b	r10		
    6654:	08 3c       	jmp	$+18     	;abs 0x6666
    6656:	5a 43       	mov.b	#1,	r10	;r3 As==01
    6658:	06 3c       	jmp	$+14     	;abs 0x6666
    665a:	6a 43       	mov.b	#2,	r10	;r3 As==10
    665c:	04 3c       	jmp	$+10     	;abs 0x6666
    665e:	6a 42       	mov.b	#4,	r10	;r2 As==10
    6660:	02 3c       	jmp	$+6      	;abs 0x6666
    6662:	7a 40 03 00 	mov.b	#3,	r10	;#0x0003
    6666:	28 83       	decd	r8		
    6668:	c2 93 7b 1c 	tst.b	&0x1c7b	
    666c:	2f 24       	jz	$+96     	;abs 0x66cc
    666e:	1e 42 96 1f 	mov	&0x1f96,r14	
    6672:	0e 93       	tst	r14		
    6674:	02 20       	jnz	$+6      	;abs 0x667a
    6676:	82 48 52 1a 	mov	r8,	&0x1a52	
    667a:	0f 4e       	mov	r14,	r15	
    667c:	0f 5f       	rla	r15		
    667e:	0f 5e       	add	r14,	r15	
    6680:	0f 5f       	rla	r15		
    6682:	3f 50 f0 1c 	add	#7408,	r15	;#0x1cf0
    6686:	cf 4a 00 00 	mov.b	r10,	0(r15)	;0x0000(r15)
    668a:	8f 4b 02 00 	mov	r11,	2(r15)	;0x0002(r15)
    668e:	8f 48 04 00 	mov	r8,	4(r15)	;0x0004(r15)
    6692:	1e 53       	inc	r14		
    6694:	82 4e 96 1f 	mov	r14,	&0x1f96	
    6698:	3e 90 64 00 	cmp	#100,	r14	;#0x0064
    669c:	09 28       	jnc	$+20     	;abs 0x66b0
    669e:	c2 43 7b 1c 	mov.b	#0,	&0x1c7b	;r3 As==00
    66a2:	d2 43 ec 1c 	mov.b	#1,	&0x1cec	;r3 As==01
    66a6:	82 48 8a 1b 	mov	r8,	&0x1b8a	
    66aa:	b0 12 36 61 	call	#0x6136	
    66ae:	0e 3c       	jmp	$+30     	;abs 0x66cc
    66b0:	1f 42 e0 1b 	mov	&0x1be0,r15	
    66b4:	0f 9b       	cmp	r11,	r15	
    66b6:	01 2c       	jc	$+4      	;abs 0x66ba
    66b8:	0f 4b       	mov	r11,	r15	
    66ba:	82 4f e0 1b 	mov	r15,	&0x1be0	
    66be:	1f 42 72 1c 	mov	&0x1c72,r15	
    66c2:	0b 9f       	cmp	r15,	r11	
    66c4:	01 2c       	jc	$+4      	;abs 0x66c8
    66c6:	0f 4b       	mov	r11,	r15	
    66c8:	82 4f 72 1c 	mov	r15,	&0x1c72	
    66cc:	c2 9a 59 1f 	cmp.b	r10,	&0x1f59	
    66d0:	2f 28       	jnc	$+96     	;abs 0x6730
    66d2:	1f 42 88 1b 	mov	&0x1b88,r15	
    66d6:	3f 90 32 00 	cmp	#50,	r15	;#0x0032
    66da:	58 24       	jz	$+178    	;abs 0x678c
    66dc:	1f 53       	inc	r15		
    66de:	82 4f 88 1b 	mov	r15,	&0x1b88	
    66e2:	0e 4f       	mov	r15,	r14	
    66e4:	0e 5e       	rla	r14		
    66e6:	0f 5e       	add	r14,	r15	
    66e8:	0f 5f       	rla	r15		
    66ea:	3f 50 56 1a 	add	#6742,	r15	;#0x1a56
    66ee:	cf 4a 00 00 	mov.b	r10,	0(r15)	;0x0000(r15)
    66f2:	8f 4b 02 00 	mov	r11,	2(r15)	;0x0002(r15)
    66f6:	8f 48 04 00 	mov	r8,	4(r15)	;0x0004(r15)
    66fa:	1d 42 88 1b 	mov	&0x1b88,r13	
    66fe:	06 3c       	jmp	$+14     	;abs 0x670c
    6700:	0e 4b       	mov	r11,	r14	
    6702:	3f 40 56 1a 	mov	#6742,	r15	;#0x1a56
    6706:	b0 12 1a 47 	call	#0x471a	
    670a:	0d 4b       	mov	r11,	r13	
    670c:	2d 93       	cmp	#2,	r13	;r3 As==10
    670e:	3e 28       	jnc	$+126    	;abs 0x678c
    6710:	0b 4d       	mov	r13,	r11	
    6712:	12 c3       	clrc			
    6714:	0b 10       	rrc	r11		
    6716:	0f 4b       	mov	r11,	r15	
    6718:	0f 5f       	rla	r15		
    671a:	0f 5b       	add	r11,	r15	
    671c:	0f 5f       	rla	r15		
    671e:	0e 4d       	mov	r13,	r14	
    6720:	0e 5e       	rla	r14		
    6722:	0e 5d       	add	r13,	r14	
    6724:	0e 5e       	rla	r14		
    6726:	de 9f 56 1a 56 1a 	cmp.b	6742(r15),6742(r14);0x1a56(r15), 0x1a56(r14)
    672c:	e9 2b       	jnc	$-44     	;abs 0x6700
    672e:	2e 3c       	jmp	$+94     	;abs 0x678c
    6730:	1f 42 32 1a 	mov	&0x1a32,r15	
    6734:	3f 90 32 00 	cmp	#50,	r15	;#0x0032
    6738:	29 24       	jz	$+84     	;abs 0x678c
    673a:	1f 53       	inc	r15		
    673c:	82 4f 32 1a 	mov	r15,	&0x1a32	
    6740:	0e 4f       	mov	r15,	r14	
    6742:	0e 5e       	rla	r14		
    6744:	0f 5e       	add	r14,	r15	
    6746:	0f 5f       	rla	r15		
    6748:	3f 50 00 19 	add	#6400,	r15	;#0x1900
    674c:	cf 4a 00 00 	mov.b	r10,	0(r15)	;0x0000(r15)
    6750:	8f 4b 02 00 	mov	r11,	2(r15)	;0x0002(r15)
    6754:	8f 48 04 00 	mov	r8,	4(r15)	;0x0004(r15)
    6758:	1d 42 32 1a 	mov	&0x1a32,r13	
    675c:	06 3c       	jmp	$+14     	;abs 0x676a
    675e:	0e 4b       	mov	r11,	r14	
    6760:	3f 40 00 19 	mov	#6400,	r15	;#0x1900
    6764:	b0 12 1a 47 	call	#0x471a	
    6768:	0d 4b       	mov	r11,	r13	
    676a:	2d 93       	cmp	#2,	r13	;r3 As==10
    676c:	0f 28       	jnc	$+32     	;abs 0x678c
    676e:	0b 4d       	mov	r13,	r11	
    6770:	12 c3       	clrc			
    6772:	0b 10       	rrc	r11		
    6774:	0f 4b       	mov	r11,	r15	
    6776:	0f 5f       	rla	r15		
    6778:	0f 5b       	add	r11,	r15	
    677a:	0f 5f       	rla	r15		
    677c:	0e 4d       	mov	r13,	r14	
    677e:	0e 5e       	rla	r14		
    6780:	0e 5d       	add	r13,	r14	
    6782:	0e 5e       	rla	r14		
    6784:	de 9f 00 19 00 19 	cmp.b	6400(r15),6400(r14);0x1900(r15), 0x1900(r14)
    678a:	e9 2b       	jnc	$-44     	;abs 0x675e
    678c:	3e 40 e8 03 	mov	#1000,	r14	;#0x03e8
    6790:	1f 42 48 1f 	mov	&0x1f48,r15	
    6794:	1f 53       	inc	r15		
    6796:	b0 12 58 78 	call	#0x7858	
    679a:	82 4f 48 1f 	mov	r15,	&0x1f48	
    679e:	30 40 6a 6b 	br	#0x6b6a	
    67a2:	c2 93 e2 1b 	tst.b	&0x1be2	
    67a6:	02 24       	jz	$+6      	;abs 0x67ac
    67a8:	30 40 6a 6b 	br	#0x6b6a	
    67ac:	b2 90 05 00 32 1a 	cmp	#5,	&0x1a32	;#0x0005
    67b2:	06 2c       	jc	$+14     	;abs 0x67c0
    67b4:	b2 90 05 00 88 1b 	cmp	#5,	&0x1b88	;#0x0005
    67ba:	02 2c       	jc	$+6      	;abs 0x67c0
    67bc:	30 40 6a 6b 	br	#0x6b6a	
    67c0:	5a 43       	mov.b	#1,	r10	;r3 As==01
    67c2:	b2 90 05 00 88 1b 	cmp	#5,	&0x1b88	;#0x0005
    67c8:	01 2c       	jc	$+4      	;abs 0x67cc
    67ca:	4a 43       	clr.b	r10		
    67cc:	0b 43       	clr	r11		
    67ce:	4a 93       	tst.b	r10		
    67d0:	03 24       	jz	$+8      	;abs 0x67d8
    67d2:	3f 40 56 1a 	mov	#6742,	r15	;#0x1a56
    67d6:	02 3c       	jmp	$+6      	;abs 0x67dc
    67d8:	3f 40 00 19 	mov	#6400,	r15	;#0x1900
    67dc:	b0 12 62 4f 	call	#0x4f62	
    67e0:	81 4c 06 00 	mov	r12,	6(r1)	;0x0006(r1)
    67e4:	81 4d 08 00 	mov	r13,	8(r1)	;0x0008(r1)
    67e8:	81 4e 0a 00 	mov	r14,	10(r1)	;0x000a(r1)
    67ec:	3d 40 06 00 	mov	#6,	r13	;#0x0006
    67f0:	0e 41       	mov	r1,	r14	
    67f2:	3e 50 06 00 	add	#6,	r14	;#0x0006
    67f6:	0f 41       	mov	r1,	r15	
    67f8:	b0 12 ba 78 	call	#0x78ba	
    67fc:	1e 41 02 00 	mov	2(r1),	r14	;0x0002(r1)
    6800:	0f 4b       	mov	r11,	r15	
    6802:	2f 53       	incd	r15		
    6804:	0f 5f       	rla	r15		
    6806:	3f 50 60 1f 	add	#8032,	r15	;#0x1f60
    680a:	cf 4e 0e 00 	mov.b	r14,	14(r15)	;0x000e(r15)
    680e:	3f 50 0d 00 	add	#13,	r15	;#0x000d
    6812:	8e 10       	swpb	r14		
    6814:	cf 4e 00 00 	mov.b	r14,	0(r15)	;0x0000(r15)
    6818:	1e 41 04 00 	mov	4(r1),	r14	;0x0004(r1)
    681c:	0f 4b       	mov	r11,	r15	
    681e:	3f 50 07 00 	add	#7,	r15	;#0x0007
    6822:	0f 5f       	rla	r15		
    6824:	3f 50 60 1f 	add	#8032,	r15	;#0x1f60
    6828:	cf 4e 0e 00 	mov.b	r14,	14(r15)	;0x000e(r15)
    682c:	3f 50 0d 00 	add	#13,	r15	;#0x000d
    6830:	8e 10       	swpb	r14		
    6832:	cf 4e 00 00 	mov.b	r14,	0(r15)	;0x0000(r15)
    6836:	1b 53       	inc	r11		
    6838:	3b 90 05 00 	cmp	#5,	r11	;#0x0005
    683c:	c8 23       	jnz	$-110    	;abs 0x67ce
    683e:	1f 42 de 18 	mov	&0x18de,r15	
    6842:	c2 4f 6d 1f 	mov.b	r15,	&0x1f6d	
    6846:	8f 10       	swpb	r15		
    6848:	c2 4f 6c 1f 	mov.b	r15,	&0x1f6c	
    684c:	1f 42 6e 1c 	mov	&0x1c6e,r15	
    6850:	0d 4f       	mov	r15,	r13	
    6852:	1d 53       	inc	r13		
    6854:	82 4d 6e 1c 	mov	r13,	&0x1c6e	
    6858:	c2 4f 6f 1f 	mov.b	r15,	&0x1f6f	
    685c:	8f 10       	swpb	r15		
    685e:	c2 4f 6e 1f 	mov.b	r15,	&0x1f6e	
    6862:	c2 4a 70 1f 	mov.b	r10,	&0x1f70	
    6866:	f2 43 66 1f 	mov.b	#-1,	&0x1f66	;r3 As==11
    686a:	f2 43 67 1f 	mov.b	#-1,	&0x1f67	;r3 As==11
    686e:	f2 40 03 00 6b 1f 	mov.b	#3,	&0x1f6b	;#0x0003
    6874:	7d 40 19 00 	mov.b	#25,	r13	;#0x0019
    6878:	3e 40 60 1f 	mov	#8032,	r14	;#0x1f60
    687c:	6f 43       	mov.b	#2,	r15	;r3 As==10
    687e:	b0 12 be 60 	call	#0x60be	
    6882:	0f 93       	tst	r15		
    6884:	04 20       	jnz	$+10     	;abs 0x688e
    6886:	d2 43 e2 1b 	mov.b	#1,	&0x1be2	;r3 As==01
    688a:	b0 12 a2 4e 	call	#0x4ea2	
    688e:	3f 40 19 00 	mov	#25,	r15	;#0x0019
    6892:	b0 12 1e 7a 	call	#0x7a1e	
    6896:	0b 4f       	mov	r15,	r11	
    6898:	5f 42 6c 1f 	mov.b	&0x1f6c,r15	
    689c:	8f 10       	swpb	r15		
    689e:	5e 42 6d 1f 	mov.b	&0x1f6d,r14	
    68a2:	0f de       	bis	r14,	r15	
    68a4:	cb 4f 01 00 	mov.b	r15,	1(r11)	;0x0001(r11)
    68a8:	8f 10       	swpb	r15		
    68aa:	cb 4f 00 00 	mov.b	r15,	0(r11)	;0x0000(r11)
    68ae:	5f 42 6e 1f 	mov.b	&0x1f6e,r15	
    68b2:	8f 10       	swpb	r15		
    68b4:	5e 42 6f 1f 	mov.b	&0x1f6f,r14	
    68b8:	0f de       	bis	r14,	r15	
    68ba:	cb 4f 03 00 	mov.b	r15,	3(r11)	;0x0003(r11)
    68be:	8f 10       	swpb	r15		
    68c0:	cb 4f 02 00 	mov.b	r15,	2(r11)	;0x0002(r11)
    68c4:	db 42 70 1f 04 00 	mov.b	&0x1f70,4(r11)	;0x0004(r11)
    68ca:	0c 43       	clr	r12		
    68cc:	0e 4c       	mov	r12,	r14	
    68ce:	2e 53       	incd	r14		
    68d0:	0e 5e       	rla	r14		
    68d2:	0d 4e       	mov	r14,	r13	
    68d4:	3d 50 60 1f 	add	#8032,	r13	;#0x1f60
    68d8:	3d 50 0d 00 	add	#13,	r13	;#0x000d
    68dc:	6f 4d       	mov.b	@r13,	r15	
    68de:	8f 10       	swpb	r15		
    68e0:	5d 4d 01 00 	mov.b	1(r13),	r13	;0x0001(r13)
    68e4:	0f dd       	bis	r13,	r15	
    68e6:	0e 5b       	add	r11,	r14	
    68e8:	ce 4f 02 00 	mov.b	r15,	2(r14)	;0x0002(r14)
    68ec:	1e 53       	inc	r14		
    68ee:	8f 10       	swpb	r15		
    68f0:	ce 4f 00 00 	mov.b	r15,	0(r14)	;0x0000(r14)
    68f4:	0e 4c       	mov	r12,	r14	
    68f6:	3e 50 07 00 	add	#7,	r14	;#0x0007
    68fa:	0e 5e       	rla	r14		
    68fc:	0d 4e       	mov	r14,	r13	
    68fe:	3d 50 60 1f 	add	#8032,	r13	;#0x1f60
    6902:	3d 50 0d 00 	add	#13,	r13	;#0x000d
    6906:	6f 4d       	mov.b	@r13,	r15	
    6908:	8f 10       	swpb	r15		
    690a:	5d 4d 01 00 	mov.b	1(r13),	r13	;0x0001(r13)
    690e:	0f dd       	bis	r13,	r15	
    6910:	0e 5b       	add	r11,	r14	
    6912:	ce 4f 02 00 	mov.b	r15,	2(r14)	;0x0002(r14)
    6916:	1e 53       	inc	r14		
    6918:	8f 10       	swpb	r15		
    691a:	ce 4f 00 00 	mov.b	r15,	0(r14)	;0x0000(r14)
    691e:	1c 53       	inc	r12		
    6920:	3c 90 05 00 	cmp	#5,	r12	;#0x0005
    6924:	d3 23       	jnz	$-88     	;abs 0x68cc
    6926:	1f 42 92 1c 	mov	&0x1c92,r15	
    692a:	bf 90 0f 00 04 00 	cmp	#15,	4(r15)	;#0x000f, 0x0004(r15)
    6930:	02 20       	jnz	$+6      	;abs 0x6936
    6932:	b0 12 20 49 	call	#0x4920	
    6936:	5f 42 6e 1f 	mov.b	&0x1f6e,r15	
    693a:	8f 10       	swpb	r15		
    693c:	5d 42 6f 1f 	mov.b	&0x1f6f,r13	
    6940:	0c 43       	clr	r12		
    6942:	0d df       	bis	r15,	r13	
    6944:	0e 4b       	mov	r11,	r14	
    6946:	1f 42 92 1c 	mov	&0x1c92,r15	
    694a:	b0 12 4a 49 	call	#0x494a	
    694e:	30 40 6a 6b 	br	#0x6b6a	
    6952:	1f 42 10 1c 	mov	&0x1c10,r15	
    6956:	1f b3       	bit	#1,	r15	;r3 As==01
    6958:	78 20       	jnz	$+242    	;abs 0x6a4a
    695a:	1f 42 92 1c 	mov	&0x1c92,r15	
    695e:	8f 93 04 00 	tst	4(r15)		;0x0004(r15)
    6962:	02 20       	jnz	$+6      	;abs 0x6968
    6964:	30 40 58 6b 	br	#0x6b58	
    6968:	2e 4f       	mov	@r15,	r14	
    696a:	1a 4e 04 00 	mov	4(r14),	r10	;0x0004(r14)
    696e:	b0 12 20 49 	call	#0x4920	
    6972:	0b 4f       	mov	r15,	r11	
    6974:	3a 90 03 00 	cmp	#3,	r10	;#0x0003
    6978:	0d 2c       	jc	$+28     	;abs 0x6994
    697a:	5f 4f 02 00 	mov.b	2(r15),	r15	;0x0002(r15)
    697e:	8f 10       	swpb	r15		
    6980:	5d 4b 03 00 	mov.b	3(r11),	r13	;0x0003(r11)
    6984:	0c 4a       	mov	r10,	r12	
    6986:	1c 53       	inc	r12		
    6988:	0d df       	bis	r15,	r13	
    698a:	0e 4b       	mov	r11,	r14	
    698c:	1f 42 92 1c 	mov	&0x1c92,r15	
    6990:	b0 12 4a 49 	call	#0x494a	
    6994:	0c 43       	clr	r12		
    6996:	0e 4c       	mov	r12,	r14	
    6998:	2e 53       	incd	r14		
    699a:	0e 5e       	rla	r14		
    699c:	0d 4b       	mov	r11,	r13	
    699e:	0d 5e       	add	r14,	r13	
    69a0:	1d 53       	inc	r13		
    69a2:	6f 4d       	mov.b	@r13,	r15	
    69a4:	8f 10       	swpb	r15		
    69a6:	5d 4d 01 00 	mov.b	1(r13),	r13	;0x0001(r13)
    69aa:	0f dd       	bis	r13,	r15	
    69ac:	3e 50 60 1f 	add	#8032,	r14	;#0x1f60
    69b0:	ce 4f 0e 00 	mov.b	r15,	14(r14)	;0x000e(r14)
    69b4:	3e 50 0d 00 	add	#13,	r14	;#0x000d
    69b8:	8f 10       	swpb	r15		
    69ba:	ce 4f 00 00 	mov.b	r15,	0(r14)	;0x0000(r14)
    69be:	0e 4c       	mov	r12,	r14	
    69c0:	3e 50 07 00 	add	#7,	r14	;#0x0007
    69c4:	0e 5e       	rla	r14		
    69c6:	0d 4b       	mov	r11,	r13	
    69c8:	0d 5e       	add	r14,	r13	
    69ca:	1d 53       	inc	r13		
    69cc:	6f 4d       	mov.b	@r13,	r15	
    69ce:	8f 10       	swpb	r15		
    69d0:	5d 4d 01 00 	mov.b	1(r13),	r13	;0x0001(r13)
    69d4:	0f dd       	bis	r13,	r15	
    69d6:	3e 50 60 1f 	add	#8032,	r14	;#0x1f60
    69da:	ce 4f 0e 00 	mov.b	r15,	14(r14)	;0x000e(r14)
    69de:	3e 50 0d 00 	add	#13,	r14	;#0x000d
    69e2:	8f 10       	swpb	r15		
    69e4:	ce 4f 00 00 	mov.b	r15,	0(r14)	;0x0000(r14)
    69e8:	1c 53       	inc	r12		
    69ea:	3c 90 05 00 	cmp	#5,	r12	;#0x0005
    69ee:	d3 23       	jnz	$-88     	;abs 0x6996
    69f0:	6f 4b       	mov.b	@r11,	r15	
    69f2:	8f 10       	swpb	r15		
    69f4:	5e 4b 01 00 	mov.b	1(r11),	r14	;0x0001(r11)
    69f8:	0f de       	bis	r14,	r15	
    69fa:	c2 4f 6d 1f 	mov.b	r15,	&0x1f6d	
    69fe:	8f 10       	swpb	r15		
    6a00:	c2 4f 6c 1f 	mov.b	r15,	&0x1f6c	
    6a04:	5f 4b 02 00 	mov.b	2(r11),	r15	;0x0002(r11)
    6a08:	8f 10       	swpb	r15		
    6a0a:	5e 4b 03 00 	mov.b	3(r11),	r14	;0x0003(r11)
    6a0e:	0f de       	bis	r14,	r15	
    6a10:	c2 4f 6f 1f 	mov.b	r15,	&0x1f6f	
    6a14:	8f 10       	swpb	r15		
    6a16:	c2 4f 6e 1f 	mov.b	r15,	&0x1f6e	
    6a1a:	d2 4b 04 00 70 1f 	mov.b	4(r11),	&0x1f70	;0x0004(r11)
    6a20:	f2 43 66 1f 	mov.b	#-1,	&0x1f66	;r3 As==11
    6a24:	f2 43 67 1f 	mov.b	#-1,	&0x1f67	;r3 As==11
    6a28:	f2 40 03 00 6b 1f 	mov.b	#3,	&0x1f6b	;#0x0003
    6a2e:	7d 40 19 00 	mov.b	#25,	r13	;#0x0019
    6a32:	3e 40 60 1f 	mov	#8032,	r14	;#0x1f60
    6a36:	6f 43       	mov.b	#2,	r15	;r3 As==10
    6a38:	b0 12 be 60 	call	#0x60be	
    6a3c:	0f 93       	tst	r15		
    6a3e:	86 20       	jnz	$+270    	;abs 0x6b4c
    6a40:	d2 43 e2 1b 	mov.b	#1,	&0x1be2	;r3 As==01
    6a44:	b0 12 a2 4e 	call	#0x4ea2	
    6a48:	81 3c       	jmp	$+260    	;abs 0x6b4c
    6a4a:	3e 40 05 00 	mov	#5,	r14	;#0x0005
    6a4e:	b0 12 58 78 	call	#0x7858	
    6a52:	0f 93       	tst	r15		
    6a54:	81 20       	jnz	$+260    	;abs 0x6b58
    6a56:	1f 42 0a 1c 	mov	&0x1c0a,r15	
    6a5a:	8f 93 04 00 	tst	4(r15)		;0x0004(r15)
    6a5e:	7c 24       	jz	$+250    	;abs 0x6b58
    6a60:	2e 4f       	mov	@r15,	r14	
    6a62:	1a 4e 04 00 	mov	4(r14),	r10	;0x0004(r14)
    6a66:	b0 12 20 49 	call	#0x4920	
    6a6a:	0b 4f       	mov	r15,	r11	
    6a6c:	3a 90 03 00 	cmp	#3,	r10	;#0x0003
    6a70:	0d 2c       	jc	$+28     	;abs 0x6a8c
    6a72:	5f 4f 02 00 	mov.b	2(r15),	r15	;0x0002(r15)
    6a76:	8f 10       	swpb	r15		
    6a78:	5d 4b 03 00 	mov.b	3(r11),	r13	;0x0003(r11)
    6a7c:	0c 4a       	mov	r10,	r12	
    6a7e:	1c 53       	inc	r12		
    6a80:	0d df       	bis	r15,	r13	
    6a82:	0e 4b       	mov	r11,	r14	
    6a84:	1f 42 0a 1c 	mov	&0x1c0a,r15	
    6a88:	b0 12 4a 49 	call	#0x494a	
    6a8c:	0d 43       	clr	r13		
    6a8e:	0e 4d       	mov	r13,	r14	
    6a90:	3e 50 05 00 	add	#5,	r14	;#0x0005
    6a94:	0e 5e       	rla	r14		
    6a96:	0c 4b       	mov	r11,	r12	
    6a98:	0c 5e       	add	r14,	r12	
    6a9a:	6f 4c       	mov.b	@r12,	r15	
    6a9c:	8f 10       	swpb	r15		
    6a9e:	5c 4c 01 00 	mov.b	1(r12),	r12	;0x0001(r12)
    6aa2:	0f dc       	bis	r12,	r15	
    6aa4:	3e 50 a0 1b 	add	#7072,	r14	;#0x1ba0
    6aa8:	ce 4f 0d 00 	mov.b	r15,	13(r14)	;0x000d(r14)
    6aac:	3e 50 0c 00 	add	#12,	r14	;#0x000c
    6ab0:	8f 10       	swpb	r15		
    6ab2:	ce 4f 00 00 	mov.b	r15,	0(r14)	;0x0000(r14)
    6ab6:	1d 53       	inc	r13		
    6ab8:	3d 90 05 00 	cmp	#5,	r13	;#0x0005
    6abc:	e8 23       	jnz	$-46     	;abs 0x6a8e
    6abe:	6f 4b       	mov.b	@r11,	r15	
    6ac0:	8f 10       	swpb	r15		
    6ac2:	5e 4b 01 00 	mov.b	1(r11),	r14	;0x0001(r11)
    6ac6:	0f de       	bis	r14,	r15	
    6ac8:	c2 4f ad 1b 	mov.b	r15,	&0x1bad	
    6acc:	8f 10       	swpb	r15		
    6ace:	c2 4f ac 1b 	mov.b	r15,	&0x1bac	
    6ad2:	5f 4b 02 00 	mov.b	2(r11),	r15	;0x0002(r11)
    6ad6:	8f 10       	swpb	r15		
    6ad8:	5e 4b 03 00 	mov.b	3(r11),	r14	;0x0003(r11)
    6adc:	0f de       	bis	r14,	r15	
    6ade:	c2 4f af 1b 	mov.b	r15,	&0x1baf	
    6ae2:	8f 10       	swpb	r15		
    6ae4:	c2 4f ae 1b 	mov.b	r15,	&0x1bae	
    6ae8:	5f 4b 04 00 	mov.b	4(r11),	r15	;0x0004(r11)
    6aec:	8f 10       	swpb	r15		
    6aee:	5e 4b 05 00 	mov.b	5(r11),	r14	;0x0005(r11)
    6af2:	0f de       	bis	r14,	r15	
    6af4:	c2 4f b1 1b 	mov.b	r15,	&0x1bb1	
    6af8:	8f 10       	swpb	r15		
    6afa:	c2 4f b0 1b 	mov.b	r15,	&0x1bb0	
    6afe:	5f 4b 06 00 	mov.b	6(r11),	r15	;0x0006(r11)
    6b02:	8f 10       	swpb	r15		
    6b04:	5e 4b 07 00 	mov.b	7(r11),	r14	;0x0007(r11)
    6b08:	0f de       	bis	r14,	r15	
    6b0a:	c2 4f b3 1b 	mov.b	r15,	&0x1bb3	
    6b0e:	8f 10       	swpb	r15		
    6b10:	c2 4f b2 1b 	mov.b	r15,	&0x1bb2	
    6b14:	5f 4b 08 00 	mov.b	8(r11),	r15	;0x0008(r11)
    6b18:	8f 10       	swpb	r15		
    6b1a:	5e 4b 09 00 	mov.b	9(r11),	r14	;0x0009(r11)
    6b1e:	0f de       	bis	r14,	r15	
    6b20:	c2 4f b5 1b 	mov.b	r15,	&0x1bb5	
    6b24:	8f 10       	swpb	r15		
    6b26:	c2 4f b4 1b 	mov.b	r15,	&0x1bb4	
    6b2a:	f2 43 a6 1b 	mov.b	#-1,	&0x1ba6	;r3 As==11
    6b2e:	f2 43 a7 1b 	mov.b	#-1,	&0x1ba7	;r3 As==11
    6b32:	d2 43 ab 1b 	mov.b	#1,	&0x1bab	;r3 As==01
    6b36:	7d 40 14 00 	mov.b	#20,	r13	;#0x0014
    6b3a:	3e 40 a0 1b 	mov	#7072,	r14	;#0x1ba0
    6b3e:	5f 43       	mov.b	#1,	r15	;r3 As==01
    6b40:	b0 12 be 60 	call	#0x60be	
    6b44:	0f 93       	tst	r15		
    6b46:	02 20       	jnz	$+6      	;abs 0x6b4c
    6b48:	d2 43 e2 1b 	mov.b	#1,	&0x1be2	;r3 As==01
    6b4c:	3a 90 03 00 	cmp	#3,	r10	;#0x0003
    6b50:	03 28       	jnc	$+8      	;abs 0x6b58
    6b52:	0f 4b       	mov	r11,	r15	
    6b54:	b0 12 26 7b 	call	#0x7b26	
    6b58:	92 53 10 1c 	inc	&0x1c10	
    6b5c:	06 3c       	jmp	$+14     	;abs 0x6b6a
    6b5e:	15 53       	inc	r5		
    6b60:	35 90 03 00 	cmp	#3,	r5	;#0x0003
    6b64:	02 24       	jz	$+6      	;abs 0x6b6a
    6b66:	30 40 d6 64 	br	#0x64d6	
    6b6a:	7f 40 0a 00 	mov.b	#10,	r15	;#0x000a
    6b6e:	b0 12 96 4a 	call	#0x4a96	
    6b72:	31 50 0c 00 	add	#12,	r1	;#0x000c
    6b76:	35 41       	pop	r5		
    6b78:	36 41       	pop	r6		
    6b7a:	37 41       	pop	r7		
    6b7c:	38 41       	pop	r8		
    6b7e:	39 41       	pop	r9		
    6b80:	3a 41       	pop	r10		
    6b82:	3b 41       	pop	r11		
    6b84:	30 41       	ret			

00006b86 <AMQueueImplP__0__sendDone.isra.130>:
    6b86:	0b 12       	push	r11		
    6b88:	0a 12       	push	r10		
    6b8a:	09 12       	push	r9		
    6b8c:	08 12       	push	r8		
    6b8e:	49 4f       	mov.b	r15,	r9	
    6b90:	08 4e       	mov	r14,	r8	
    6b92:	4d 4f       	mov.b	r15,	r13	
    6b94:	0d 5d       	rla	r13		
    6b96:	8d 43 14 1c 	mov	#0,	7188(r13);r3 As==00, 0x1c14(r13)
    6b9a:	5f 42 00 11 	mov.b	&0x1100,r15	
    6b9e:	5f 53       	inc.b	r15		
    6ba0:	c2 4f 00 11 	mov.b	r15,	&0x1100	
    6ba4:	7f 90 03 00 	cmp.b	#3,	r15	;#0x0003
    6ba8:	02 28       	jnc	$+6      	;abs 0x6bae
    6baa:	c2 43 00 11 	mov.b	#0,	&0x1100	;r3 As==00
    6bae:	5c 42 00 11 	mov.b	&0x1100,r12	
    6bb2:	7a 40 03 00 	mov.b	#3,	r10	;#0x0003
    6bb6:	4b 4c       	mov.b	r12,	r11	
    6bb8:	0d 4b       	mov	r11,	r13	
    6bba:	0d 5d       	rla	r13		
    6bbc:	8d 93 14 1c 	tst	7188(r13)	;0x1c14(r13)
    6bc0:	13 24       	jz	$+40     	;abs 0x6be8
    6bc2:	4d 4c       	mov.b	r12,	r13	
    6bc4:	12 c3       	clrc			
    6bc6:	4d 10       	rrc.b	r13		
    6bc8:	12 c3       	clrc			
    6bca:	4d 10       	rrc.b	r13		
    6bcc:	12 c3       	clrc			
    6bce:	4d 10       	rrc.b	r13		
    6bd0:	4d 4d       	mov.b	r13,	r13	
    6bd2:	5d 4d 50 1f 	mov.b	8016(r13),r13	;0x1f50(r13)
    6bd6:	7b f0 07 00 	and.b	#7,	r11	;#0x0007
    6bda:	4b 93       	tst.b	r11		
    6bdc:	03 24       	jz	$+8      	;abs 0x6be4
    6bde:	0d 11       	rra	r13		
    6be0:	7b 53       	add.b	#-1,	r11	;r3 As==11
    6be2:	fb 3f       	jmp	$-8      	;abs 0x6bda
    6be4:	1d f3       	and	#1,	r13	;r3 As==01
    6be6:	08 24       	jz	$+18     	;abs 0x6bf8
    6be8:	5c 53       	inc.b	r12		
    6bea:	7c 90 03 00 	cmp.b	#3,	r12	;#0x0003
    6bee:	01 28       	jnc	$+4      	;abs 0x6bf2
    6bf0:	4c 43       	clr.b	r12		
    6bf2:	7a 53       	add.b	#-1,	r10	;r3 As==11
    6bf4:	e0 23       	jnz	$-62     	;abs 0x6bb6
    6bf6:	28 3c       	jmp	$+82     	;abs 0x6c48
    6bf8:	c2 4c 00 11 	mov.b	r12,	&0x1100	
    6bfc:	5d 42 00 11 	mov.b	&0x1100,r13	
    6c00:	7d 90 03 00 	cmp.b	#3,	r13	;#0x0003
    6c04:	18 2c       	jc	$+50     	;abs 0x6c36
    6c06:	4d 4d       	mov.b	r13,	r13	
    6c08:	0d 5d       	rla	r13		
    6c0a:	1d 4d 14 1c 	mov	7188(r13),r13	;0x1c14(r13)
    6c0e:	5b 4d 07 00 	mov.b	7(r13),	r11	;0x0007(r13)
    6c12:	8b 10       	swpb	r11		
    6c14:	5a 4d 06 00 	mov.b	6(r13),	r10	;0x0006(r13)
    6c18:	6c 4d       	mov.b	@r13,	r12	
    6c1a:	7c 50 f3 ff 	add.b	#-13,	r12	;#0xfff3
    6c1e:	0e 4b       	mov	r11,	r14	
    6c20:	0e da       	bis	r10,	r14	
    6c22:	5f 4d 0b 00 	mov.b	11(r13),r15	;0x000b(r13)
    6c26:	b0 12 08 60 	call	#0x6008	
    6c2a:	0f 93       	tst	r15		
    6c2c:	04 24       	jz	$+10     	;abs 0x6c36
    6c2e:	7f 40 0d 00 	mov.b	#13,	r15	;#0x000d
    6c32:	b0 12 96 4a 	call	#0x4a96	
    6c36:	0e 48       	mov	r8,	r14	
    6c38:	4f 49       	mov.b	r9,	r15	
    6c3a:	b0 12 86 55 	call	#0x5586	
    6c3e:	38 41       	pop	r8		
    6c40:	39 41       	pop	r9		
    6c42:	3a 41       	pop	r10		
    6c44:	3b 41       	pop	r11		
    6c46:	30 41       	ret			
    6c48:	f2 40 03 00 00 11 	mov.b	#3,	&0x1100	;#0x0003
    6c4e:	d6 3f       	jmp	$-82     	;abs 0x6bfc

00006c50 <CC2420ActiveMessageP__AMSend__sendDone.isra.132>:
    6c50:	0d 4f       	mov	r15,	r13	
    6c52:	5f 42 00 11 	mov.b	&0x1100,r15	
    6c56:	7f 90 03 00 	cmp.b	#3,	r15	;#0x0003
    6c5a:	08 2c       	jc	$+18     	;abs 0x6c6c
    6c5c:	4e 4f       	mov.b	r15,	r14	
    6c5e:	0e 5e       	rla	r14		
    6c60:	1e 4e 14 1c 	mov	7188(r14),r14	;0x1c14(r14)
    6c64:	0e 9d       	cmp	r13,	r14	
    6c66:	02 20       	jnz	$+6      	;abs 0x6c6c
    6c68:	b0 12 86 6b 	call	#0x6b86	
    6c6c:	30 41       	ret			

00006c6e <SchedulerBasicP__TaskBasic__runTask>:
    6c6e:	0b 12       	push	r11		
    6c70:	0a 12       	push	r10		
    6c72:	09 12       	push	r9		
    6c74:	08 12       	push	r8		
    6c76:	07 12       	push	r7		
    6c78:	06 12       	push	r6		
    6c7a:	31 82       	sub	#8,	r1	;r2 As==11
    6c7c:	7f 90 0e 00 	cmp.b	#14,	r15	;#0x000e
    6c80:	02 28       	jnc	$+6      	;abs 0x6c86
    6c82:	30 40 78 74 	br	#0x7478	
    6c86:	4f 4f       	mov.b	r15,	r15	
    6c88:	0f 5f       	rla	r15		
    6c8a:	10 4f cc 7b 	br	31692(r15)	;0x7bcc(r15)
    6c8e:	0b 42       	mov	r2,	r11	
    6c90:	32 c2       	dint			
    6c92:	03 43       	nop			
    6c94:	5f 43       	mov.b	#1,	r15	;r3 As==01
    6c96:	b0 12 42 46 	call	#0x4642	
    6c9a:	92 43 ea 18 	mov	#1,	&0x18ea	;r3 As==01
    6c9e:	c2 43 e8 18 	mov.b	#0,	&0x18e8	;r3 As==00
    6ca2:	c2 43 8c 1b 	mov.b	#0,	&0x1b8c	;r3 As==00
    6ca6:	c2 43 d5 1b 	mov.b	#0,	&0x1bd5	;r3 As==00
    6caa:	3b b2       	bit	#8,	r11	;r2 As==11
    6cac:	01 24       	jz	$+4      	;abs 0x6cb0
    6cae:	32 d2       	eint			
    6cb0:	0b 42       	mov	r2,	r11	
    6cb2:	32 c2       	dint			
    6cb4:	03 43       	nop			
    6cb6:	b0 12 70 47 	call	#0x4770	
    6cba:	92 43 9c 1b 	mov	#1,	&0x1b9c	;r3 As==01
    6cbe:	c2 43 de 1b 	mov.b	#0,	&0x1bde	;r3 As==00
    6cc2:	f2 f0 fe ff 25 00 	and.b	#-2,	&0x0025	;#0xfffe
    6cc8:	f2 f0 fe ff 23 00 	and.b	#-2,	&0x0023	;#0xfffe
    6cce:	d2 d3 24 00 	bis.b	#1,	&0x0024	;r3 As==01
    6cd2:	d2 d3 25 00 	bis.b	#1,	&0x0025	;r3 As==01
    6cd6:	3b b2       	bit	#8,	r11	;r2 As==11
    6cd8:	01 24       	jz	$+4      	;abs 0x6cdc
    6cda:	32 d2       	eint			
    6cdc:	0b 42       	mov	r2,	r11	
    6cde:	3b f2       	and	#8,	r11	;r2 As==11
    6ce0:	32 c2       	dint			
    6ce2:	03 43       	nop			
    6ce4:	a2 92 f2 18 	cmp	#4,	&0x18f2	;r2 As==10
    6ce8:	04 20       	jnz	$+10     	;abs 0x6cf2
    6cea:	7f 40 03 00 	mov.b	#3,	r15	;#0x0003
    6cee:	b0 12 34 4a 	call	#0x4a34	
    6cf2:	0b 93       	tst	r11		
    6cf4:	01 24       	jz	$+4      	;abs 0x6cf8
    6cf6:	32 d2       	eint			
    6cf8:	0b 42       	mov	r2,	r11	
    6cfa:	32 c2       	dint			
    6cfc:	03 43       	nop			
    6cfe:	b0 12 04 4b 	call	#0x4b04	
    6d02:	4f 43       	clr.b	r15		
    6d04:	b0 12 90 51 	call	#0x5190	
    6d08:	3b b2       	bit	#8,	r11	;r2 As==11
    6d0a:	01 24       	jz	$+4      	;abs 0x6d0e
    6d0c:	32 d2       	eint			
    6d0e:	6f 43       	mov.b	#2,	r15	;r3 As==10
    6d10:	b0 12 a2 4c 	call	#0x4ca2	
    6d14:	3d 40 32 00 	mov	#50,	r13	;#0x0032
    6d18:	0e 43       	clr	r14		
    6d1a:	5f 43       	mov.b	#1,	r15	;r3 As==01
    6d1c:	b0 12 22 4d 	call	#0x4d22	
    6d20:	3d 40 0a 00 	mov	#10,	r13	;#0x000a
    6d24:	0e 43       	clr	r14		
    6d26:	6f 43       	mov.b	#2,	r15	;r3 As==10
    6d28:	b0 12 22 4d 	call	#0x4d22	
    6d2c:	30 40 78 74 	br	#0x7478	
    6d30:	4f 43       	clr.b	r15		
    6d32:	b0 12 a2 4c 	call	#0x4ca2	
    6d36:	30 40 78 74 	br	#0x7478	
    6d3a:	0f 42       	mov	r2,	r15	
    6d3c:	32 c2       	dint			
    6d3e:	03 43       	nop			
    6d40:	3f f2       	and	#8,	r15	;r2 As==11
    6d42:	01 24       	jz	$+4      	;abs 0x6d46
    6d44:	32 d2       	eint			
    6d46:	7f 40 03 00 	mov.b	#3,	r15	;#0x0003
    6d4a:	b0 12 68 4a 	call	#0x4a68	
    6d4e:	4f 93       	tst.b	r15		
    6d50:	3c 24       	jz	$+122    	;abs 0x6dca
    6d52:	0b 42       	mov	r2,	r11	
    6d54:	32 c2       	dint			
    6d56:	03 43       	nop			
    6d58:	82 43 ea 18 	mov	#0,	&0x18ea	;r3 As==00
    6d5c:	b2 f0 ef ff 82 01 	and	#-17,	&0x0182	;#0xffef
    6d62:	b2 f0 ef ff 84 01 	and	#-17,	&0x0184	;#0xffef
    6d68:	f2 f0 fd ff 1f 00 	and.b	#-3,	&0x001f	;#0xfffd
    6d6e:	7f 40 03 00 	mov.b	#3,	r15	;#0x0003
    6d72:	b0 12 90 51 	call	#0x5190	
    6d76:	b0 12 04 4b 	call	#0x4b04	
    6d7a:	3b b2       	bit	#8,	r11	;r2 As==11
    6d7c:	01 24       	jz	$+4      	;abs 0x6d80
    6d7e:	32 d2       	eint			
    6d80:	0b 42       	mov	r2,	r11	
    6d82:	32 c2       	dint			
    6d84:	03 43       	nop			
    6d86:	82 43 9c 1b 	mov	#0,	&0x1b9c	;r3 As==00
    6d8a:	b0 12 70 47 	call	#0x4770	
    6d8e:	b0 12 04 4b 	call	#0x4b04	
    6d92:	f2 f0 fe ff 25 00 	and.b	#-2,	&0x0025	;#0xfffe
    6d98:	f2 f0 fe ff 23 00 	and.b	#-2,	&0x0023	;#0xfffe
    6d9e:	3b b2       	bit	#8,	r11	;r2 As==11
    6da0:	01 24       	jz	$+4      	;abs 0x6da4
    6da2:	32 d2       	eint			
    6da4:	82 43 f2 18 	mov	#0,	&0x18f2	;r3 As==00
    6da8:	b0 12 66 4e 	call	#0x4e66	
    6dac:	0f 42       	mov	r2,	r15	
    6dae:	32 c2       	dint			
    6db0:	03 43       	nop			
    6db2:	f2 f0 df ff 1d 00 	and.b	#-33,	&0x001d	;#0xffdf
    6db8:	3f f2       	and	#8,	r15	;r2 As==11
    6dba:	01 24       	jz	$+4      	;abs 0x6dbe
    6dbc:	32 d2       	eint			
    6dbe:	b0 12 7a 4e 	call	#0x4e7a	
    6dc2:	5f 43       	mov.b	#1,	r15	;r3 As==01
    6dc4:	b0 12 96 4a 	call	#0x4a96	
    6dc8:	03 3c       	jmp	$+8      	;abs 0x6dd0
    6dca:	6f 43       	mov.b	#2,	r15	;r3 As==10
    6dcc:	b0 12 a2 4c 	call	#0x4ca2	
    6dd0:	1b 42 0e 1c 	mov	&0x1c0e,r11	
    6dd4:	b0 12 f2 4a 	call	#0x4af2	
    6dd8:	82 93 52 1f 	tst	&0x1f52	
    6ddc:	02 24       	jz	$+6      	;abs 0x6de2
    6dde:	30 40 78 74 	br	#0x7478	
    6de2:	f2 43 03 11 	mov.b	#-1,	&0x1103	;r3 As==11
    6de6:	0f 4b       	mov	r11,	r15	
    6de8:	30 40 0e 74 	br	#0x740e	
    6dec:	0b 42       	mov	r2,	r11	
    6dee:	3b f2       	and	#8,	r11	;r2 As==11
    6df0:	32 c2       	dint			
    6df2:	03 43       	nop			
    6df4:	c2 93 5e 1f 	tst.b	&0x1f5e	
    6df8:	5c 20       	jnz	$+186    	;abs 0x6eb2
    6dfa:	d2 43 5e 1f 	mov.b	#1,	&0x1f5e	;r3 As==01
    6dfe:	a2 92 f2 18 	cmp	#4,	&0x18f2	;r2 As==10
    6e02:	04 20       	jnz	$+10     	;abs 0x6e0c
    6e04:	5f 43       	mov.b	#1,	r15	;r3 As==01
    6e06:	b0 12 5c 56 	call	#0x565c	
    6e0a:	53 3c       	jmp	$+168    	;abs 0x6eb2
    6e0c:	6f 42       	mov.b	#4,	r15	;r2 As==10
    6e0e:	b0 12 96 4a 	call	#0x4a96	
    6e12:	4f 3c       	jmp	$+160    	;abs 0x6eb2
    6e14:	0f 42       	mov	r2,	r15	
    6e16:	32 c2       	dint			
    6e18:	03 43       	nop			
    6e1a:	c2 43 5e 1f 	mov.b	#0,	&0x1f5e	;r3 As==00
    6e1e:	30 40 e0 73 	br	#0x73e0	
    6e22:	0e 42       	mov	r2,	r14	
    6e24:	32 c2       	dint			
    6e26:	03 43       	nop			
    6e28:	5f 42 0c 11 	mov.b	&0x110c,r15	
    6e2c:	3e f2       	and	#8,	r14	;r2 As==11
    6e2e:	01 24       	jz	$+4      	;abs 0x6e32
    6e30:	32 d2       	eint			
    6e32:	7f 90 05 00 	cmp.b	#5,	r15	;#0x0005
    6e36:	02 28       	jnc	$+6      	;abs 0x6e3c
    6e38:	30 40 78 74 	br	#0x7478	
    6e3c:	4f 4f       	mov.b	r15,	r15	
    6e3e:	0f 5f       	rla	r15		
    6e40:	10 4f e8 7b 	br	31720(r15)	;0x7be8(r15)
    6e44:	b0 12 82 4a 	call	#0x4a82	
    6e48:	0b 42       	mov	r2,	r11	
    6e4a:	3b f2       	and	#8,	r11	;r2 As==11
    6e4c:	32 c2       	dint			
    6e4e:	03 43       	nop			
    6e50:	a2 93 f2 18 	cmp	#2,	&0x18f2	;r3 As==10
    6e54:	2e 20       	jnz	$+94     	;abs 0x6eb2
    6e56:	b2 40 03 00 f2 18 	mov	#3,	&0x18f2	;#0x0003
    6e5c:	3e 40 18 00 	mov	#24,	r14	;#0x0018
    6e60:	7f 40 1d 00 	mov.b	#29,	r15	;#0x001d
    6e64:	b0 12 5c 53 	call	#0x535c	
    6e68:	f2 f0 ef ff 25 00 	and.b	#-17,	&0x0025	;#0xffef
    6e6e:	f2 f0 ef ff 23 00 	and.b	#-17,	&0x0023	;#0xffef
    6e74:	f2 f0 ef ff 24 00 	and.b	#-17,	&0x0024	;#0xffef
    6e7a:	f2 d0 10 00 25 00 	bis.b	#16,	&0x0025	;#0x0010
    6e80:	5f 43       	mov.b	#1,	r15	;r3 As==01
    6e82:	b0 12 34 4a 	call	#0x4a34	
    6e86:	3e 40 7f 02 	mov	#639,	r14	;#0x027f
    6e8a:	7f 40 1c 00 	mov.b	#28,	r15	;#0x001c
    6e8e:	b0 12 5c 53 	call	#0x535c	
    6e92:	b0 12 38 54 	call	#0x5438	
    6e96:	b0 12 66 54 	call	#0x5466	
    6e9a:	3e 40 56 2a 	mov	#10838,	r14	;#0x2a56
    6e9e:	7f 40 17 00 	mov.b	#23,	r15	;#0x0017
    6ea2:	b0 12 5c 53 	call	#0x535c	
    6ea6:	3e 40 ff 80 	mov	#-32513,r14	;#0x80ff
    6eaa:	7f 40 15 00 	mov.b	#21,	r15	;#0x0015
    6eae:	b0 12 5c 53 	call	#0x535c	
    6eb2:	0b 93       	tst	r11		
    6eb4:	02 20       	jnz	$+6      	;abs 0x6eba
    6eb6:	30 40 78 74 	br	#0x7478	
    6eba:	30 40 e4 73 	br	#0x73e4	
    6ebe:	b0 12 82 4a 	call	#0x4a82	
    6ec2:	7f 40 06 00 	mov.b	#6,	r15	;#0x0006
    6ec6:	b0 12 34 4a 	call	#0x4a34	
    6eca:	b0 12 38 54 	call	#0x5438	
    6ece:	b0 12 66 54 	call	#0x5466	
    6ed2:	b0 12 34 55 	call	#0x5534	
    6ed6:	b0 12 04 4b 	call	#0x4b04	
    6eda:	b0 12 82 4a 	call	#0x4a82	
    6ede:	7f 40 03 00 	mov.b	#3,	r15	;#0x0003
    6ee2:	b0 12 34 4a 	call	#0x4a34	
    6ee6:	b0 12 04 4b 	call	#0x4b04	
    6eea:	5f 43       	mov.b	#1,	r15	;r3 As==01
    6eec:	b0 12 90 51 	call	#0x5190	
    6ef0:	6f 42       	mov.b	#4,	r15	;r2 As==10
    6ef2:	78 3c       	jmp	$+242    	;abs 0x6fe4
    6ef4:	b0 12 82 4a 	call	#0x4a82	
    6ef8:	0b 42       	mov	r2,	r11	
    6efa:	3b f2       	and	#8,	r11	;r2 As==11
    6efc:	32 c2       	dint			
    6efe:	03 43       	nop			
    6f00:	b0 12 1c 4a 	call	#0x4a1c	
    6f04:	4f 93       	tst.b	r15		
    6f06:	04 24       	jz	$+10     	;abs 0x6f10
    6f08:	0b 93       	tst	r11		
    6f0a:	0f 24       	jz	$+32     	;abs 0x6f2a
    6f0c:	32 d2       	eint			
    6f0e:	0d 3c       	jmp	$+28     	;abs 0x6f2a
    6f10:	0b 93       	tst	r11		
    6f12:	01 24       	jz	$+4      	;abs 0x6f16
    6f14:	32 d2       	eint			
    6f16:	7f 40 53 00 	mov.b	#83,	r15	;#0x0053
    6f1a:	b0 12 dc 45 	call	#0x45dc	
    6f1e:	4f 43       	clr.b	r15		
    6f20:	b0 12 dc 45 	call	#0x45dc	
    6f24:	4f 43       	clr.b	r15		
    6f26:	b0 12 dc 45 	call	#0x45dc	
    6f2a:	b0 12 04 4b 	call	#0x4b04	
    6f2e:	6f 43       	mov.b	#2,	r15	;r3 As==10
    6f30:	b0 12 90 51 	call	#0x5190	
    6f34:	30 40 78 74 	br	#0x7478	
    6f38:	0e 42       	mov	r2,	r14	
    6f3a:	32 c2       	dint			
    6f3c:	03 43       	nop			
    6f3e:	5f 42 ea 18 	mov.b	&0x18ea,r15	
    6f42:	3e f2       	and	#8,	r14	;r2 As==11
    6f44:	01 24       	jz	$+4      	;abs 0x6f48
    6f46:	32 d2       	eint			
    6f48:	6f 92       	cmp.b	#4,	r15	;r2 As==10
    6f4a:	08 24       	jz	$+18     	;abs 0x6f5c
    6f4c:	7f 92       	cmp.b	#8,	r15	;r2 As==11
    6f4e:	0a 24       	jz	$+22     	;abs 0x6f64
    6f50:	6f 93       	cmp.b	#2,	r15	;r3 As==10
    6f52:	20 20       	jnz	$+66     	;abs 0x6f94
    6f54:	b0 12 a4 53 	call	#0x53a4	
    6f58:	30 40 78 74 	br	#0x7478	
    6f5c:	b0 12 c6 52 	call	#0x52c6	
    6f60:	30 40 78 74 	br	#0x7478	
    6f64:	b0 12 82 4a 	call	#0x4a82	
    6f68:	7f 40 09 00 	mov.b	#9,	r15	;#0x0009
    6f6c:	b0 12 34 4a 	call	#0x4a34	
    6f70:	b0 12 04 4b 	call	#0x4b04	
    6f74:	b0 12 48 52 	call	#0x5248	
    6f78:	0f 42       	mov	r2,	r15	
    6f7a:	32 c2       	dint			
    6f7c:	03 43       	nop			
    6f7e:	92 43 ea 18 	mov	#1,	&0x18ea	;r3 As==01
    6f82:	3f f2       	and	#8,	r15	;r2 As==11
    6f84:	01 24       	jz	$+4      	;abs 0x6f88
    6f86:	32 d2       	eint			
    6f88:	3f 40 03 00 	mov	#3,	r15	;#0x0003
    6f8c:	b0 12 94 52 	call	#0x5294	
    6f90:	30 40 78 74 	br	#0x7478	
    6f94:	b0 12 48 52 	call	#0x5248	
    6f98:	30 40 78 74 	br	#0x7478	
    6f9c:	b0 12 e0 50 	call	#0x50e0	
    6fa0:	30 40 78 74 	br	#0x7478	
    6fa4:	0b 42       	mov	r2,	r11	
    6fa6:	32 c2       	dint			
    6fa8:	03 43       	nop			
    6faa:	b0 12 26 58 	call	#0x5826	
    6fae:	30 40 de 73 	br	#0x73de	
    6fb2:	0f 42       	mov	r2,	r15	
    6fb4:	32 c2       	dint			
    6fb6:	03 43       	nop			
    6fb8:	d2 42 08 11 09 11 	mov.b	&0x1108,&0x1109	
    6fbe:	f2 43 08 11 	mov.b	#-1,	&0x1108	;r3 As==11
    6fc2:	e2 42 df 1b 	mov.b	#4,	&0x1bdf	;r2 As==10
    6fc6:	3f f2       	and	#8,	r15	;r2 As==11
    6fc8:	01 24       	jz	$+4      	;abs 0x6fcc
    6fca:	32 d2       	eint			
    6fcc:	c2 93 09 11 	tst.b	&0x1109	
    6fd0:	02 20       	jnz	$+6      	;abs 0x6fd6
    6fd2:	b0 12 be 55 	call	#0x55be	
    6fd6:	c2 93 09 11 	tst.b	&0x1109	
    6fda:	02 24       	jz	$+6      	;abs 0x6fe0
    6fdc:	30 40 78 74 	br	#0x7478	
    6fe0:	7f 40 05 00 	mov.b	#5,	r15	;#0x0005
    6fe4:	b0 12 96 4a 	call	#0x4a96	
    6fe8:	30 40 78 74 	br	#0x7478	
    6fec:	1f 42 f8 18 	mov	&0x18f8,r15	
    6ff0:	6a 4f       	mov.b	@r15,	r10	
    6ff2:	4d 4a       	mov.b	r10,	r13	
    6ff4:	0d 5f       	add	r15,	r13	
    6ff6:	6e 4d       	mov.b	@r13,	r14	
    6ff8:	4e 5e       	rla.b	r14		
    6ffa:	0e 43       	clr	r14		
    6ffc:	0e 6e       	rlc	r14		
    6ffe:	cf 4e 2b 00 	mov.b	r14,	43(r15)	;0x002b(r15)
    7002:	6e 4d       	mov.b	@r13,	r14	
    7004:	7e f0 7f 00 	and.b	#127,	r14	;#0x007f
    7008:	cf 4e 29 00 	mov.b	r14,	41(r15)	;0x0029(r15)
    700c:	df 4d ff ff 28 00 	mov.b	-1(r13),40(r15)	;0xffff(r13), 0x0028(r15)
    7012:	5e 4f 02 00 	mov.b	2(r15),	r14	;0x0002(r15)
    7016:	5c 4f 01 00 	mov.b	1(r15),	r12	;0x0001(r15)
    701a:	0d 42       	mov	r2,	r13	
    701c:	32 c2       	dint			
    701e:	03 43       	nop			
    7020:	5b 42 d6 1b 	mov.b	&0x1bd6,r11	
    7024:	3d f2       	and	#8,	r13	;r2 As==11
    7026:	01 24       	jz	$+4      	;abs 0x702a
    7028:	32 d2       	eint			
    702a:	4b 93       	tst.b	r11		
    702c:	4a 24       	jz	$+150    	;abs 0x70c2
    702e:	4e 4e       	mov.b	r14,	r14	
    7030:	8e 10       	swpb	r14		
    7032:	4d 4c       	mov.b	r12,	r13	
    7034:	0e dd       	bis	r13,	r14	
    7036:	8e 10       	swpb	r14		
    7038:	4e 4e       	mov.b	r14,	r14	
    703a:	12 c3       	clrc			
    703c:	0e 10       	rrc	r14		
    703e:	12 c3       	clrc			
    7040:	0e 10       	rrc	r14		
    7042:	3e f0 03 00 	and	#3,	r14	;#0x0003
    7046:	2e 93       	cmp	#2,	r14	;r3 As==10
    7048:	21 20       	jnz	$+68     	;abs 0x708c
    704a:	5e 4f 07 00 	mov.b	7(r15),	r14	;0x0007(r15)
    704e:	8e 10       	swpb	r14		
    7050:	5d 4f 06 00 	mov.b	6(r15),	r13	;0x0006(r15)
    7054:	0e dd       	bis	r13,	r14	
    7056:	0d 42       	mov	r2,	r13	
    7058:	32 c2       	dint			
    705a:	03 43       	nop			
    705c:	1c 42 00 1c 	mov	&0x1c00,r12	
    7060:	3d f2       	and	#8,	r13	;r2 As==11
    7062:	01 24       	jz	$+4      	;abs 0x7066
    7064:	32 d2       	eint			
    7066:	0e 9c       	cmp	r12,	r14	
    7068:	0b 24       	jz	$+24     	;abs 0x7080
    706a:	5e 4f 07 00 	mov.b	7(r15),	r14	;0x0007(r15)
    706e:	8e 10       	swpb	r14		
    7070:	5f 4f 06 00 	mov.b	6(r15),	r15	;0x0006(r15)
    7074:	0e df       	bis	r15,	r14	
    7076:	1f 43       	mov	#1,	r15	;r3 As==01
    7078:	3e 93       	cmp	#-1,	r14	;r3 As==11
    707a:	03 24       	jz	$+8      	;abs 0x7082
    707c:	0f 43       	clr	r15		
    707e:	01 3c       	jmp	$+4      	;abs 0x7082
    7080:	1f 43       	mov	#1,	r15	;r3 As==01
    7082:	0f 93       	tst	r15		
    7084:	02 20       	jnz	$+6      	;abs 0x708a
    7086:	30 40 d8 72 	br	#0x72d8	
    708a:	1b 3c       	jmp	$+56     	;abs 0x70c2
    708c:	3e 90 03 00 	cmp	#3,	r14	;#0x0003
    7090:	02 24       	jz	$+6      	;abs 0x7096
    7092:	30 40 d8 72 	br	#0x72d8	
    7096:	91 42 86 1c 00 00 	mov	&0x1c86,0(r1)	;0x0000(r1)
    709c:	91 42 88 1c 02 00 	mov	&0x1c88,2(r1)	;0x0002(r1)
    70a2:	91 42 8a 1c 04 00 	mov	&0x1c8a,4(r1)	;0x0004(r1)
    70a8:	91 42 8c 1c 06 00 	mov	&0x1c8c,6(r1)	;0x0006(r1)
    70ae:	3d 42       	mov	#8,	r13	;r2 As==11
    70b0:	0e 41       	mov	r1,	r14	
    70b2:	3f 50 06 00 	add	#6,	r15	;#0x0006
    70b6:	b0 12 9a 78 	call	#0x789a	
    70ba:	0f 93       	tst	r15		
    70bc:	02 24       	jz	$+6      	;abs 0x70c2
    70be:	30 40 d8 72 	br	#0x72d8	
    70c2:	7a 90 0d 00 	cmp.b	#13,	r10	;#0x000d
    70c6:	02 2c       	jc	$+6      	;abs 0x70cc
    70c8:	30 40 d8 72 	br	#0x72d8	
    70cc:	1b 42 f8 18 	mov	&0x18f8,r11	
    70d0:	5e 4b 02 00 	mov.b	2(r11),	r14	;0x0002(r11)
    70d4:	8e 10       	swpb	r14		
    70d6:	5f 4b 01 00 	mov.b	1(r11),	r15	;0x0001(r11)
    70da:	0e df       	bis	r15,	r14	
    70dc:	0f 4e       	mov	r14,	r15	
    70de:	8f 10       	swpb	r15		
    70e0:	4f 4f       	mov.b	r15,	r15	
    70e2:	12 c3       	clrc			
    70e4:	0f 10       	rrc	r15		
    70e6:	12 c3       	clrc			
    70e8:	0f 10       	rrc	r15		
    70ea:	3f f0 03 00 	and	#3,	r15	;#0x0003
    70ee:	08 4b       	mov	r11,	r8	
    70f0:	38 50 06 00 	add	#6,	r8	;#0x0006
    70f4:	8e 10       	swpb	r14		
    70f6:	4e 4e       	mov.b	r14,	r14	
    70f8:	7d 40 06 00 	mov.b	#6,	r13	;#0x0006
    70fc:	12 c3       	clrc			
    70fe:	0e 10       	rrc	r14		
    7100:	7d 53       	add.b	#-1,	r13	;r3 As==11
    7102:	fc 23       	jnz	$-6      	;abs 0x70fc
    7104:	3e 90 03 00 	cmp	#3,	r14	;#0x0003
    7108:	02 24       	jz	$+6      	;abs 0x710e
    710a:	2e 43       	mov	#2,	r14	;r3 As==10
    710c:	01 3c       	jmp	$+4      	;abs 0x7110
    710e:	3e 42       	mov	#8,	r14	;r2 As==11
    7110:	3f 90 03 00 	cmp	#3,	r15	;#0x0003
    7114:	02 24       	jz	$+6      	;abs 0x711a
    7116:	2f 43       	mov	#2,	r15	;r3 As==10
    7118:	01 3c       	jmp	$+4      	;abs 0x711c
    711a:	3f 42       	mov	#8,	r15	;r2 As==11
    711c:	08 5f       	add	r15,	r8	
    711e:	0d 43       	clr	r13		
    7120:	0f 43       	clr	r15		
    7122:	0c 48       	mov	r8,	r12	
    7124:	0c 5f       	add	r15,	r12	
    7126:	6c 4c       	mov.b	@r12,	r12	
    7128:	0d 5c       	add	r12,	r13	
    712a:	1f 53       	inc	r15		
    712c:	0f 9e       	cmp	r14,	r15	
    712e:	f9 3b       	jl	$-12     	;abs 0x7122
    7130:	57 4b 03 00 	mov.b	3(r11),	r7	;0x0003(r11)
    7134:	f2 43 54 1f 	mov.b	#-1,	&0x1f54	;r3 As==11
    7138:	0c 42       	mov	r2,	r12	
    713a:	3c f2       	and	#8,	r12	;r2 As==11
    713c:	32 c2       	dint			
    713e:	03 43       	nop			
    7140:	58 42 54 1f 	mov.b	&0x1f54,r8	
    7144:	3f 40 34 1a 	mov	#6708,	r15	;#0x1a34
    7148:	0e 43       	clr	r14		
    714a:	2d 9f       	cmp	@r15,	r13	
    714c:	0a 20       	jnz	$+22     	;abs 0x7162
    714e:	cf 97 02 00 	cmp.b	r7,	2(r15)	;0x0002(r15)
    7152:	06 20       	jnz	$+14     	;abs 0x7160
    7154:	c2 48 54 1f 	mov.b	r8,	&0x1f54	
    7158:	0c 93       	tst	r12		
    715a:	bc 24       	jz	$+378    	;abs 0x72d4
    715c:	32 d2       	eint			
    715e:	ba 3c       	jmp	$+374    	;abs 0x72d4
    7160:	48 4e       	mov.b	r14,	r8	
    7162:	1e 53       	inc	r14		
    7164:	2f 52       	add	#4,	r15	;r2 As==10
    7166:	2e 92       	cmp	#4,	r14	;r2 As==10
    7168:	f0 23       	jnz	$-30     	;abs 0x714a
    716a:	c2 48 54 1f 	mov.b	r8,	&0x1f54	
    716e:	0c 93       	tst	r12		
    7170:	02 20       	jnz	$+6      	;abs 0x7176
    7172:	30 40 60 74 	br	#0x7460	
    7176:	32 d2       	eint			
    7178:	30 40 60 74 	br	#0x7460	
    717c:	c2 9f e6 18 	cmp.b	r15,	&0x18e6	
    7180:	04 20       	jnz	$+10     	;abs 0x718a
    7182:	5f 42 e6 18 	mov.b	&0x18e6,r15	
    7186:	5c 43       	mov.b	#1,	r12	;r3 As==01
    7188:	01 3c       	jmp	$+4      	;abs 0x718c
    718a:	4c 43       	clr.b	r12		
    718c:	4f 4f       	mov.b	r15,	r15	
    718e:	0f 5f       	rla	r15		
    7190:	0f 5f       	rla	r15		
    7192:	8f 4d 34 1a 	mov	r13,	6708(r15);0x1a34(r15)
    7196:	cf 47 36 1a 	mov.b	r7,	6710(r15);0x1a36(r15)
    719a:	4c 93       	tst.b	r12		
    719c:	07 24       	jz	$+16     	;abs 0x71ac
    719e:	5f 42 e6 18 	mov.b	&0x18e6,r15	
    71a2:	5f 53       	inc.b	r15		
    71a4:	7f f0 03 00 	and.b	#3,	r15	;#0x0003
    71a8:	c2 4f e6 18 	mov.b	r15,	&0x18e6	
    71ac:	0e 93       	tst	r14		
    71ae:	01 24       	jz	$+4      	;abs 0x71b2
    71b0:	32 d2       	eint			
    71b2:	08 42       	mov	r2,	r8	
    71b4:	32 c2       	dint			
    71b6:	03 43       	nop			
    71b8:	0f 4b       	mov	r11,	r15	
    71ba:	b0 12 9c 46 	call	#0x469c	
    71be:	6f 4f       	mov.b	@r15,	r15	
    71c0:	38 b2       	bit	#8,	r8	;r2 As==11
    71c2:	01 24       	jz	$+4      	;abs 0x71c6
    71c4:	32 d2       	eint			
    71c6:	cb 93 2b 00 	tst.b	43(r11)	;0x002b(r11)
    71ca:	84 24       	jz	$+266    	;abs 0x72d4
    71cc:	7f 90 3f 00 	cmp.b	#63,	r15	;#0x003f
    71d0:	81 20       	jnz	$+260    	;abs 0x72d4
    71d2:	5f 4b 07 00 	mov.b	7(r11),	r15	;0x0007(r11)
    71d6:	8f 10       	swpb	r15		
    71d8:	5e 4b 06 00 	mov.b	6(r11),	r14	;0x0006(r11)
    71dc:	0f de       	bis	r14,	r15	
    71de:	0e 42       	mov	r2,	r14	
    71e0:	32 c2       	dint			
    71e2:	03 43       	nop			
    71e4:	1d 42 06 11 	mov	&0x1106,r13	
    71e8:	3e f2       	and	#8,	r14	;r2 As==11
    71ea:	01 24       	jz	$+4      	;abs 0x71ee
    71ec:	32 d2       	eint			
    71ee:	0f 9d       	cmp	r13,	r15	
    71f0:	0b 24       	jz	$+24     	;abs 0x7208
    71f2:	5f 4b 07 00 	mov.b	7(r11),	r15	;0x0007(r11)
    71f6:	8f 10       	swpb	r15		
    71f8:	5e 4b 06 00 	mov.b	6(r11),	r14	;0x0006(r11)
    71fc:	0f de       	bis	r14,	r15	
    71fe:	1e 43       	mov	#1,	r14	;r3 As==01
    7200:	3f 93       	cmp	#-1,	r15	;r3 As==11
    7202:	03 24       	jz	$+8      	;abs 0x720a
    7204:	0e 43       	clr	r14		
    7206:	01 3c       	jmp	$+4      	;abs 0x720a
    7208:	1e 43       	mov	#1,	r14	;r3 As==01
    720a:	0e 93       	tst	r14		
    720c:	63 24       	jz	$+200    	;abs 0x72d4
    720e:	7a 50 f3 ff 	add.b	#-13,	r10	;#0xfff3
    7212:	5f 4b 0b 00 	mov.b	11(r11),r15	;0x000b(r11)
    7216:	4f 93       	tst.b	r15		
    7218:	03 24       	jz	$+8      	;abs 0x7220
    721a:	6f 93       	cmp.b	#2,	r15	;r3 As==10
    721c:	5b 20       	jnz	$+184    	;abs 0x72d4
    721e:	2a 3c       	jmp	$+86     	;abs 0x7274
    7220:	7a 90 06 00 	cmp.b	#6,	r10	;#0x0006
    7224:	57 20       	jnz	$+176    	;abs 0x72d4
    7226:	5f 4b 0c 00 	mov.b	12(r11),r15	;0x000c(r11)
    722a:	8f 10       	swpb	r15		
    722c:	5e 4b 0d 00 	mov.b	13(r11),r14	;0x000d(r11)
    7230:	0f de       	bis	r14,	r15	
    7232:	1f 92 de 18 	cmp	&0x18de,r15	
    7236:	4e 20       	jnz	$+158    	;abs 0x72d4
    7238:	5f 4b 10 00 	mov.b	16(r11),r15	;0x0010(r11)
    723c:	8f 10       	swpb	r15		
    723e:	5e 4b 11 00 	mov.b	17(r11),r14	;0x0011(r11)
    7242:	0f de       	bis	r14,	r15	
    7244:	0f 93       	tst	r15		
    7246:	09 20       	jnz	$+20     	;abs 0x725a
    7248:	5f 4b 0e 00 	mov.b	14(r11),r15	;0x000e(r11)
    724c:	8f 10       	swpb	r15		
    724e:	5e 4b 0f 00 	mov.b	15(r11),r14	;0x000f(r11)
    7252:	0e df       	bis	r15,	r14	
    7254:	1f 42 0a 1c 	mov	&0x1c0a,r15	
    7258:	0a 3c       	jmp	$+22     	;abs 0x726e
    725a:	1f 93       	cmp	#1,	r15	;r3 As==01
    725c:	3b 20       	jnz	$+120    	;abs 0x72d4
    725e:	5f 4b 0e 00 	mov.b	14(r11),r15	;0x000e(r11)
    7262:	8f 10       	swpb	r15		
    7264:	5e 4b 0f 00 	mov.b	15(r11),r14	;0x000f(r11)
    7268:	0e df       	bis	r15,	r14	
    726a:	1f 42 92 1c 	mov	&0x1c92,r15	
    726e:	b0 12 4e 77 	call	#0x774e	
    7272:	30 3c       	jmp	$+98     	;abs 0x72d4
    7274:	6a 92       	cmp.b	#4,	r10	;r2 As==10
    7276:	2e 20       	jnz	$+94     	;abs 0x72d4
    7278:	1e 42 de 18 	mov	&0x18de,r14	
    727c:	5f 4b 0c 00 	mov.b	12(r11),r15	;0x000c(r11)
    7280:	8f 10       	swpb	r15		
    7282:	5d 4b 0d 00 	mov.b	13(r11),r13	;0x000d(r11)
    7286:	0f dd       	bis	r13,	r15	
    7288:	0f 9e       	cmp	r14,	r15	
    728a:	24 20       	jnz	$+74     	;abs 0x72d4
    728c:	5f 4b 0e 00 	mov.b	14(r11),r15	;0x000e(r11)
    7290:	8f 10       	swpb	r15		
    7292:	5d 4b 0f 00 	mov.b	15(r11),r13	;0x000f(r11)
    7296:	0f dd       	bis	r13,	r15	
    7298:	1f 93       	cmp	#1,	r15	;r3 As==01
    729a:	02 20       	jnz	$+6      	;abs 0x72a0
    729c:	d2 53 59 1f 	inc.b	&0x1f59	
    72a0:	c2 4e 29 1c 	mov.b	r14,	&0x1c29	
    72a4:	8e 10       	swpb	r14		
    72a6:	c2 4e 28 1c 	mov.b	r14,	&0x1c28	
    72aa:	e2 43 2d 1c 	mov.b	#2,	&0x1c2d	;r3 As==10
    72ae:	c2 43 2c 1c 	mov.b	#0,	&0x1c2c	;r3 As==00
    72b2:	f2 43 22 1c 	mov.b	#-1,	&0x1c22	;r3 As==11
    72b6:	f2 43 23 1c 	mov.b	#-1,	&0x1c23	;r3 As==11
    72ba:	c2 43 27 1c 	mov.b	#0,	&0x1c27	;r3 As==00
    72be:	7d 40 06 00 	mov.b	#6,	r13	;#0x0006
    72c2:	3e 40 1c 1c 	mov	#7196,	r14	;#0x1c1c
    72c6:	4f 43       	clr.b	r15		
    72c8:	b0 12 be 60 	call	#0x60be	
    72cc:	0f 93       	tst	r15		
    72ce:	02 20       	jnz	$+6      	;abs 0x72d4
    72d0:	d2 43 e2 1b 	mov.b	#1,	&0x1be2	;r3 As==01
    72d4:	82 4b f8 18 	mov	r11,	&0x18f8	
    72d8:	0f 42       	mov	r2,	r15	
    72da:	32 c2       	dint			
    72dc:	03 43       	nop			
    72de:	c2 43 de 1b 	mov.b	#0,	&0x1bde	;r3 As==00
    72e2:	3f f2       	and	#8,	r15	;r2 As==11
    72e4:	01 24       	jz	$+4      	;abs 0x72e8
    72e6:	32 d2       	eint			
    72e8:	b0 12 ae 57 	call	#0x57ae	
    72ec:	c5 3c       	jmp	$+396    	;abs 0x7478
    72ee:	c2 93 d4 1b 	tst.b	&0x1bd4	
    72f2:	28 20       	jnz	$+82     	;abs 0x7344
    72f4:	1e 42 94 1c 	mov	&0x1c94,r14	
    72f8:	1f 42 96 1c 	mov	&0x1c96,r15	
    72fc:	0b 42       	mov	r2,	r11	
    72fe:	32 c2       	dint			
    7300:	03 43       	nop			
    7302:	1c 42 d8 1b 	mov	&0x1bd8,r12	
    7306:	1d 42 da 1b 	mov	&0x1bda,r13	
    730a:	1c 52 fa 18 	add	&0x18fa,r12	
    730e:	1d 62 fc 18 	addc	&0x18fc,r13	
    7312:	3b f2       	and	#8,	r11	;r2 As==11
    7314:	01 24       	jz	$+4      	;abs 0x7318
    7316:	32 d2       	eint			
    7318:	82 4e 94 1c 	mov	r14,	&0x1c94	
    731c:	82 4f 96 1c 	mov	r15,	&0x1c96	
    7320:	c2 43 d4 1b 	mov.b	#0,	&0x1bd4	;r3 As==00
    7324:	0b 42       	mov	r2,	r11	
    7326:	32 c2       	dint			
    7328:	03 43       	nop			
    732a:	82 4c fa 18 	mov	r12,	&0x18fa	
    732e:	82 4d fc 18 	mov	r13,	&0x18fc	
    7332:	82 4e d8 1b 	mov	r14,	&0x1bd8	
    7336:	82 4f da 1b 	mov	r15,	&0x1bda	
    733a:	b0 12 70 4d 	call	#0x4d70	
    733e:	3b b2       	bit	#8,	r11	;r2 As==11
    7340:	01 24       	jz	$+4      	;abs 0x7344
    7342:	32 d2       	eint			
    7344:	b0 12 b4 4c 	call	#0x4cb4	
    7348:	34 3c       	jmp	$+106    	;abs 0x73b2
    734a:	b0 12 b4 4c 	call	#0x4cb4	
    734e:	b2 f0 ef ff 86 01 	and	#-17,	&0x0186	;#0xffef
    7354:	46 43       	clr.b	r6		
    7356:	3c 43       	mov	#-1,	r12	;r3 As==11
    7358:	3d 40 ff 7f 	mov	#32767,	r13	;#0x7fff
    735c:	07 43       	clr	r7		
    735e:	0a 47       	mov	r7,	r10	
    7360:	0a 5a       	rla	r10		
    7362:	0b 4a       	mov	r10,	r11	
    7364:	0b 5b       	rla	r11		
    7366:	0b 5b       	rla	r11		
    7368:	0b 5a       	add	r10,	r11	
    736a:	3b 50 50 1c 	add	#7248,	r11	;#0x1c50
    736e:	eb b3 08 00 	bit.b	#2,	8(r11)	;r3 As==10, 0x0008(r11)
    7372:	13 24       	jz	$+40     	;abs 0x739a
    7374:	08 4e       	mov	r14,	r8	
    7376:	09 4f       	mov	r15,	r9	
    7378:	28 8b       	sub	@r11,	r8	
    737a:	19 7b 02 00 	subc	2(r11),	r9	;0x0002(r11)
    737e:	1a 4b 04 00 	mov	4(r11),	r10	;0x0004(r11)
    7382:	1b 4b 06 00 	mov	6(r11),	r11	;0x0006(r11)
    7386:	0a 88       	sub	r8,	r10	
    7388:	0b 79       	subc	r9,	r11	
    738a:	0b 9d       	cmp	r13,	r11	
    738c:	03 38       	jl	$+8      	;abs 0x7394
    738e:	05 20       	jnz	$+12     	;abs 0x739a
    7390:	0a 9c       	cmp	r12,	r10	
    7392:	03 2c       	jc	$+8      	;abs 0x739a
    7394:	0c 4a       	mov	r10,	r12	
    7396:	0d 4b       	mov	r11,	r13	
    7398:	56 43       	mov.b	#1,	r6	;r3 As==01
    739a:	17 53       	inc	r7		
    739c:	37 90 03 00 	cmp	#3,	r7	;#0x0003
    73a0:	de 23       	jnz	$-66     	;abs 0x735e
    73a2:	46 93       	tst.b	r6		
    73a4:	69 24       	jz	$+212    	;abs 0x7478
    73a6:	0d 93       	tst	r13		
    73a8:	04 38       	jl	$+10     	;abs 0x73b2
    73aa:	1d 93       	cmp	#1,	r13	;r3 As==01
    73ac:	05 34       	jge	$+12     	;abs 0x73b8
    73ae:	1c 93       	cmp	#1,	r12	;r3 As==01
    73b0:	03 2c       	jc	$+8      	;abs 0x73b8
    73b2:	b0 12 be 64 	call	#0x64be	
    73b6:	60 3c       	jmp	$+194    	;abs 0x7478
    73b8:	82 4c 94 1c 	mov	r12,	&0x1c94	
    73bc:	82 4d 96 1c 	mov	r13,	&0x1c96	
    73c0:	d2 43 d4 1b 	mov.b	#1,	&0x1bd4	;r3 As==01
    73c4:	0b 42       	mov	r2,	r11	
    73c6:	32 c2       	dint			
    73c8:	03 43       	nop			
    73ca:	82 4e fa 18 	mov	r14,	&0x18fa	
    73ce:	82 4f fc 18 	mov	r15,	&0x18fc	
    73d2:	82 4c d8 1b 	mov	r12,	&0x1bd8	
    73d6:	82 4d da 1b 	mov	r13,	&0x1bda	
    73da:	b0 12 70 4d 	call	#0x4d70	
    73de:	0f 4b       	mov	r11,	r15	
    73e0:	3f f2       	and	#8,	r15	;r2 As==11
    73e2:	4a 24       	jz	$+150    	;abs 0x7478
    73e4:	32 d2       	eint			
    73e6:	48 3c       	jmp	$+146    	;abs 0x7478
    73e8:	5f 42 ee 1b 	mov.b	&0x1bee,r15	
    73ec:	5f 92 03 11 	cmp.b	&0x1103,r15	
    73f0:	43 24       	jz	$+136    	;abs 0x7478
    73f2:	c2 4f 03 11 	mov.b	r15,	&0x1103	
    73f6:	4f 93       	tst.b	r15		
    73f8:	0d 20       	jnz	$+28     	;abs 0x7414
    73fa:	1f 42 e4 18 	mov	&0x18e4,r15	
    73fe:	b0 12 f2 5e 	call	#0x5ef2	
    7402:	4f 93       	tst.b	r15		
    7404:	39 24       	jz	$+116    	;abs 0x7478
    7406:	f2 43 03 11 	mov.b	#-1,	&0x1103	;r3 As==11
    740a:	1f 42 e4 18 	mov	&0x18e4,r15	
    740e:	b0 12 50 6c 	call	#0x6c50	
    7412:	32 3c       	jmp	$+102    	;abs 0x7478
    7414:	f2 43 03 11 	mov.b	#-1,	&0x1103	;r3 As==11
    7418:	2f 3c       	jmp	$+96     	;abs 0x7478
    741a:	c2 93 50 1f 	tst.b	&0x1f50	
    741e:	2c 24       	jz	$+90     	;abs 0x7478
    7420:	3a 40 14 1c 	mov	#7188,	r10	;#0x1c14
    7424:	48 43       	clr.b	r8		
    7426:	5b 43       	mov.b	#1,	r11	;r3 As==01
    7428:	5f 42 50 1f 	mov.b	&0x1f50,r15	
    742c:	4b bf       	bit.b	r15,	r11	
    742e:	09 24       	jz	$+20     	;abs 0x7442
    7430:	2e 4a       	mov	@r10,	r14	
    7432:	8a 43 00 00 	mov	#0,	0(r10)	;r3 As==00, 0x0000(r10)
    7436:	4f cb       	bic.b	r11,	r15	
    7438:	c2 4f 50 1f 	mov.b	r15,	&0x1f50	
    743c:	4f 48       	mov.b	r8,	r15	
    743e:	b0 12 86 55 	call	#0x5586	
    7442:	4b 5b       	rla.b	r11		
    7444:	58 53       	inc.b	r8		
    7446:	2a 53       	incd	r10		
    7448:	78 92       	cmp.b	#8,	r8	;r2 As==11
    744a:	ee 23       	jnz	$-34     	;abs 0x7428
    744c:	15 3c       	jmp	$+44     	;abs 0x7478
    744e:	5f 42 00 11 	mov.b	&0x1100,r15	
    7452:	4e 4f       	mov.b	r15,	r14	
    7454:	0e 5e       	rla	r14		
    7456:	1e 4e 14 1c 	mov	7188(r14),r14	;0x1c14(r14)
    745a:	b0 12 86 6b 	call	#0x6b86	
    745e:	0c 3c       	jmp	$+26     	;abs 0x7478
    7460:	5f 42 54 1f 	mov.b	&0x1f54,r15	
    7464:	0e 42       	mov	r2,	r14	
    7466:	3e f2       	and	#8,	r14	;r2 As==11
    7468:	32 c2       	dint			
    746a:	03 43       	nop			
    746c:	7f 93       	cmp.b	#-1,	r15	;r3 As==11
    746e:	02 24       	jz	$+6      	;abs 0x7474
    7470:	30 40 7c 71 	br	#0x717c	
    7474:	30 40 82 71 	br	#0x7182	
    7478:	31 52       	add	#8,	r1	;r2 As==11
    747a:	36 41       	pop	r6		
    747c:	37 41       	pop	r7		
    747e:	38 41       	pop	r8		
    7480:	39 41       	pop	r9		
    7482:	3a 41       	pop	r10		
    7484:	3b 41       	pop	r11		
    7486:	30 41       	ret			

00007488 <RealMainP__Scheduler__runNextTask>:
    7488:	f2 93 ee 1c 	cmp.b	#-1,	&0x1cee	;r3 As==11
    748c:	08 24       	jz	$+18     	;abs 0x749e
    748e:	b0 12 c8 4e 	call	#0x4ec8	
    7492:	7f 93       	cmp.b	#-1,	r15	;r3 As==11
    7494:	06 24       	jz	$+14     	;abs 0x74a2
    7496:	b0 12 6e 6c 	call	#0x6c6e	
    749a:	5f 43       	mov.b	#1,	r15	;r3 As==01
    749c:	30 41       	ret			
    749e:	4f 43       	clr.b	r15		
    74a0:	30 41       	ret			
    74a2:	4f 43       	clr.b	r15		
    74a4:	30 41       	ret			

000074a6 <__nesc_atomic_start>:
    74a6:	0f 42       	mov	r2,	r15	
    74a8:	32 c2       	dint			
    74aa:	03 43       	nop			
    74ac:	3f f2       	and	#8,	r15	;r2 As==11
    74ae:	30 41       	ret			

000074b0 <__nesc_atomic_end>:
    74b0:	0f 93       	tst	r15		
    74b2:	01 24       	jz	$+4      	;abs 0x74b6
    74b4:	32 d2       	eint			
    74b6:	30 41       	ret			

000074b8 <sig_TIMERA0_VECTOR>:
    74b8:	0f 12       	push	r15		
    74ba:	0e 12       	push	r14		
    74bc:	0d 12       	push	r13		
    74be:	0c 12       	push	r12		
    74c0:	4f 43       	clr.b	r15		
    74c2:	b0 12 e6 4e 	call	#0x4ee6	
    74c6:	3c 41       	pop	r12		
    74c8:	3d 41       	pop	r13		
    74ca:	3e 41       	pop	r14		
    74cc:	3f 41       	pop	r15		
    74ce:	b1 c0 f0 00 00 00 	bic	#240,	0(r1)	;#0x00f0, 0x0000(r1)
    74d4:	00 13       	reti			

000074d6 <sig_TIMERA1_VECTOR>:
    74d6:	0f 12       	push	r15		
    74d8:	0e 12       	push	r14		
    74da:	0d 12       	push	r13		
    74dc:	0c 12       	push	r12		
    74de:	1f 42 2e 01 	mov	&0x012e,r15	
    74e2:	4f 4f       	mov.b	r15,	r15	
    74e4:	12 c3       	clrc			
    74e6:	4f 10       	rrc.b	r15		
    74e8:	b0 12 e6 4e 	call	#0x4ee6	
    74ec:	3c 41       	pop	r12		
    74ee:	3d 41       	pop	r13		
    74f0:	3e 41       	pop	r14		
    74f2:	3f 41       	pop	r15		
    74f4:	b1 c0 f0 00 00 00 	bic	#240,	0(r1)	;#0x00f0, 0x0000(r1)
    74fa:	00 13       	reti			

000074fc <sig_TIMERB0_VECTOR>:
    74fc:	0f 12       	push	r15		
    74fe:	0e 12       	push	r14		
    7500:	0d 12       	push	r13		
    7502:	0c 12       	push	r12		
    7504:	4f 43       	clr.b	r15		
    7506:	b0 12 36 5b 	call	#0x5b36	
    750a:	3c 41       	pop	r12		
    750c:	3d 41       	pop	r13		
    750e:	3e 41       	pop	r14		
    7510:	3f 41       	pop	r15		
    7512:	b1 c0 f0 00 00 00 	bic	#240,	0(r1)	;#0x00f0, 0x0000(r1)
    7518:	00 13       	reti			

0000751a <sig_TIMERB1_VECTOR>:
    751a:	0f 12       	push	r15		
    751c:	0e 12       	push	r14		
    751e:	0d 12       	push	r13		
    7520:	0c 12       	push	r12		
    7522:	1f 42 1e 01 	mov	&0x011e,r15	
    7526:	4f 4f       	mov.b	r15,	r15	
    7528:	12 c3       	clrc			
    752a:	4f 10       	rrc.b	r15		
    752c:	b0 12 36 5b 	call	#0x5b36	
    7530:	3c 41       	pop	r12		
    7532:	3d 41       	pop	r13		
    7534:	3e 41       	pop	r14		
    7536:	3f 41       	pop	r15		
    7538:	b1 c0 f0 00 00 00 	bic	#240,	0(r1)	;#0x00f0, 0x0000(r1)
    753e:	00 13       	reti			

00007540 <sig_PORT1_VECTOR>:
    7540:	0f 12       	push	r15		
    7542:	0e 12       	push	r14		
    7544:	0d 12       	push	r13		
    7546:	0c 12       	push	r12		
    7548:	21 83       	decd	r1		
    754a:	5e 42 23 00 	mov.b	&0x0023,r14	
    754e:	5f 42 25 00 	mov.b	&0x0025,r15	
    7552:	4f fe       	and.b	r14,	r15	
    7554:	c1 4f 00 00 	mov.b	r15,	0(r1)	;0x0000(r1)
    7558:	6f 41       	mov.b	@r1,	r15	
    755a:	1f f3       	and	#1,	r15	;r3 As==01
    755c:	0e 24       	jz	$+30     	;abs 0x757a
    755e:	f2 f0 fe ff 23 00 	and.b	#-2,	&0x0023	;#0xfffe
    7564:	92 93 9c 1b 	cmp	#1,	&0x1b9c	;r3 As==01
    7568:	05 20       	jnz	$+12     	;abs 0x7574
    756a:	a2 43 9c 1b 	mov	#2,	&0x1b9c	;r3 As==10
    756e:	b0 12 88 57 	call	#0x5788	
    7572:	54 3c       	jmp	$+170    	;abs 0x761c
    7574:	d2 53 d7 1b 	inc.b	&0x1bd7	
    7578:	51 3c       	jmp	$+164    	;abs 0x761c
    757a:	6f 41       	mov.b	@r1,	r15	
    757c:	2f f3       	and	#2,	r15	;r3 As==10
    757e:	05 24       	jz	$+12     	;abs 0x758a
    7580:	5f 42 23 00 	mov.b	&0x0023,r15	
    7584:	7f f0 fd ff 	and.b	#-3,	r15	;#0xfffd
    7588:	47 3c       	jmp	$+144    	;abs 0x7618
    758a:	6f 41       	mov.b	@r1,	r15	
    758c:	2f f2       	and	#4,	r15	;r2 As==10
    758e:	05 24       	jz	$+12     	;abs 0x759a
    7590:	5f 42 23 00 	mov.b	&0x0023,r15	
    7594:	7f f0 fb ff 	and.b	#-5,	r15	;#0xfffb
    7598:	3f 3c       	jmp	$+128    	;abs 0x7618
    759a:	6f 41       	mov.b	@r1,	r15	
    759c:	3f f2       	and	#8,	r15	;r2 As==11
    759e:	05 24       	jz	$+12     	;abs 0x75aa
    75a0:	5f 42 23 00 	mov.b	&0x0023,r15	
    75a4:	7f f0 f7 ff 	and.b	#-9,	r15	;#0xfff7
    75a8:	37 3c       	jmp	$+112    	;abs 0x7618
    75aa:	6f 41       	mov.b	@r1,	r15	
    75ac:	3f f0 10 00 	and	#16,	r15	;#0x0010
    75b0:	1a 24       	jz	$+54     	;abs 0x75e6
    75b2:	f2 f0 ef ff 23 00 	and.b	#-17,	&0x0023	;#0xffef
    75b8:	a2 42 f2 18 	mov	#4,	&0x18f2	;r2 As==10
    75bc:	f2 f0 ef ff 25 00 	and.b	#-17,	&0x0025	;#0xffef
    75c2:	f2 f0 ef ff 23 00 	and.b	#-17,	&0x0023	;#0xffef
    75c8:	0e 43       	clr	r14		
    75ca:	7f 40 1d 00 	mov.b	#29,	r15	;#0x001d
    75ce:	b0 12 5c 53 	call	#0x535c	
    75d2:	b0 12 34 55 	call	#0x5534	
    75d6:	b0 12 04 4b 	call	#0x4b04	
    75da:	b0 12 82 4a 	call	#0x4a82	
    75de:	4f 43       	clr.b	r15		
    75e0:	b0 12 96 4a 	call	#0x4a96	
    75e4:	1b 3c       	jmp	$+56     	;abs 0x761c
    75e6:	6f 41       	mov.b	@r1,	r15	
    75e8:	3f f0 20 00 	and	#32,	r15	;#0x0020
    75ec:	05 24       	jz	$+12     	;abs 0x75f8
    75ee:	5f 42 23 00 	mov.b	&0x0023,r15	
    75f2:	7f f0 df ff 	and.b	#-33,	r15	;#0xffdf
    75f6:	10 3c       	jmp	$+34     	;abs 0x7618
    75f8:	6f 41       	mov.b	@r1,	r15	
    75fa:	3f f0 40 00 	and	#64,	r15	;#0x0040
    75fe:	05 24       	jz	$+12     	;abs 0x760a
    7600:	5f 42 23 00 	mov.b	&0x0023,r15	
    7604:	7f f0 bf ff 	and.b	#-65,	r15	;#0xffbf
    7608:	07 3c       	jmp	$+16     	;abs 0x7618
    760a:	6f 41       	mov.b	@r1,	r15	
    760c:	4f 93       	tst.b	r15		
    760e:	06 34       	jge	$+14     	;abs 0x761c
    7610:	5f 42 23 00 	mov.b	&0x0023,r15	
    7614:	7f f0 7f 00 	and.b	#127,	r15	;#0x007f
    7618:	c2 4f 23 00 	mov.b	r15,	&0x0023	
    761c:	21 53       	incd	r1		
    761e:	3c 41       	pop	r12		
    7620:	3d 41       	pop	r13		
    7622:	3e 41       	pop	r14		
    7624:	3f 41       	pop	r15		
    7626:	b1 c0 f0 00 00 00 	bic	#240,	0(r1)	;#0x00f0, 0x0000(r1)
    762c:	00 13       	reti			

0000762e <sig_PORT2_VECTOR>:
    762e:	0f 12       	push	r15		
    7630:	0e 12       	push	r14		
    7632:	21 83       	decd	r1		
    7634:	5e 42 2b 00 	mov.b	&0x002b,r14	
    7638:	5f 42 2d 00 	mov.b	&0x002d,r15	
    763c:	4f fe       	and.b	r14,	r15	
    763e:	c1 4f 00 00 	mov.b	r15,	0(r1)	;0x0000(r1)
    7642:	6f 41       	mov.b	@r1,	r15	
    7644:	1f f3       	and	#1,	r15	;r3 As==01
    7646:	05 24       	jz	$+12     	;abs 0x7652
    7648:	5f 42 2b 00 	mov.b	&0x002b,r15	
    764c:	7f f0 fe ff 	and.b	#-2,	r15	;#0xfffe
    7650:	3a 3c       	jmp	$+118    	;abs 0x76c6
    7652:	6f 41       	mov.b	@r1,	r15	
    7654:	2f f3       	and	#2,	r15	;r3 As==10
    7656:	05 24       	jz	$+12     	;abs 0x7662
    7658:	5f 42 2b 00 	mov.b	&0x002b,r15	
    765c:	7f f0 fd ff 	and.b	#-3,	r15	;#0xfffd
    7660:	32 3c       	jmp	$+102    	;abs 0x76c6
    7662:	6f 41       	mov.b	@r1,	r15	
    7664:	2f f2       	and	#4,	r15	;r2 As==10
    7666:	05 24       	jz	$+12     	;abs 0x7672
    7668:	5f 42 2b 00 	mov.b	&0x002b,r15	
    766c:	7f f0 fb ff 	and.b	#-5,	r15	;#0xfffb
    7670:	2a 3c       	jmp	$+86     	;abs 0x76c6
    7672:	6f 41       	mov.b	@r1,	r15	
    7674:	3f f2       	and	#8,	r15	;r2 As==11
    7676:	05 24       	jz	$+12     	;abs 0x7682
    7678:	5f 42 2b 00 	mov.b	&0x002b,r15	
    767c:	7f f0 f7 ff 	and.b	#-9,	r15	;#0xfff7
    7680:	22 3c       	jmp	$+70     	;abs 0x76c6
    7682:	6f 41       	mov.b	@r1,	r15	
    7684:	3f f0 10 00 	and	#16,	r15	;#0x0010
    7688:	05 24       	jz	$+12     	;abs 0x7694
    768a:	5f 42 2b 00 	mov.b	&0x002b,r15	
    768e:	7f f0 ef ff 	and.b	#-17,	r15	;#0xffef
    7692:	19 3c       	jmp	$+52     	;abs 0x76c6
    7694:	6f 41       	mov.b	@r1,	r15	
    7696:	3f f0 20 00 	and	#32,	r15	;#0x0020
    769a:	05 24       	jz	$+12     	;abs 0x76a6
    769c:	5f 42 2b 00 	mov.b	&0x002b,r15	
    76a0:	7f f0 df ff 	and.b	#-33,	r15	;#0xffdf
    76a4:	10 3c       	jmp	$+34     	;abs 0x76c6
    76a6:	6f 41       	mov.b	@r1,	r15	
    76a8:	3f f0 40 00 	and	#64,	r15	;#0x0040
    76ac:	05 24       	jz	$+12     	;abs 0x76b8
    76ae:	5f 42 2b 00 	mov.b	&0x002b,r15	
    76b2:	7f f0 bf ff 	and.b	#-65,	r15	;#0xffbf
    76b6:	07 3c       	jmp	$+16     	;abs 0x76c6
    76b8:	6f 41       	mov.b	@r1,	r15	
    76ba:	4f 93       	tst.b	r15		
    76bc:	06 34       	jge	$+14     	;abs 0x76ca
    76be:	5f 42 2b 00 	mov.b	&0x002b,r15	
    76c2:	7f f0 7f 00 	and.b	#127,	r15	;#0x007f
    76c6:	c2 4f 2b 00 	mov.b	r15,	&0x002b	
    76ca:	21 53       	incd	r1		
    76cc:	3e 41       	pop	r14		
    76ce:	3f 41       	pop	r15		
    76d0:	b1 c0 f0 00 00 00 	bic	#240,	0(r1)	;#0x00f0, 0x0000(r1)
    76d6:	00 13       	reti			

000076d8 <sig_UART0RX_VECTOR>:
    76d8:	0f 12       	push	r15		
    76da:	0e 12       	push	r14		
    76dc:	0d 12       	push	r13		
    76de:	0c 12       	push	r12		
    76e0:	5e 42 76 00 	mov.b	&0x0076,r14	
    76e4:	c2 93 df 1b 	tst.b	&0x1bdf	
    76e8:	19 24       	jz	$+52     	;abs 0x771c
    76ea:	15 3c       	jmp	$+44     	;abs 0x7716
    76ec:	1f 42 70 1c 	mov	&0x1c70,r15	
    76f0:	0f 93       	tst	r15		
    76f2:	04 24       	jz	$+10     	;abs 0x76fc
    76f4:	1f 52 4a 1f 	add	&0x1f4a,r15	
    76f8:	cf 4e ff ff 	mov.b	r14,	-1(r15)	;0xffff(r15)
    76fc:	92 92 4e 1f 4a 1f 	cmp	&0x1f4e,&0x1f4a	
    7702:	03 2c       	jc	$+8      	;abs 0x770a
    7704:	b0 12 9a 49 	call	#0x499a	
    7708:	09 3c       	jmp	$+20     	;abs 0x771c
    770a:	f2 f0 bf ff 00 00 	and.b	#-65,	&0x0000	;#0xffbf
    7710:	b0 12 26 58 	call	#0x5826	
    7714:	03 3c       	jmp	$+8      	;abs 0x771c
    7716:	c2 93 09 11 	tst.b	&0x1109	
    771a:	e8 27       	jz	$-46     	;abs 0x76ec
    771c:	3c 41       	pop	r12		
    771e:	3d 41       	pop	r13		
    7720:	3e 41       	pop	r14		
    7722:	3f 41       	pop	r15		
    7724:	b1 c0 f0 00 00 00 	bic	#240,	0(r1)	;#0x00f0, 0x0000(r1)
    772a:	00 13       	reti			

0000772c <sig_UART0TX_VECTOR>:
    772c:	0f 12       	push	r15		
    772e:	5f 42 70 00 	mov.b	&0x0070,r15	
    7732:	3f f0 20 00 	and	#32,	r15	;#0x0020
    7736:	06 24       	jz	$+14     	;abs 0x7744
    7738:	5f 42 70 00 	mov.b	&0x0070,r15	
    773c:	2f f2       	and	#4,	r15	;r2 As==10
    773e:	02 24       	jz	$+6      	;abs 0x7744
    7740:	5f 42 70 00 	mov.b	&0x0070,r15	
    7744:	3f 41       	pop	r15		
    7746:	b1 c0 f0 00 00 00 	bic	#240,	0(r1)	;#0x00f0, 0x0000(r1)
    774c:	00 13       	reti			

0000774e <qACK_dequeue>:
    774e:	0b 12       	push	r11		
    7750:	0a 12       	push	r10		
    7752:	0a 4f       	mov	r15,	r10	
    7754:	2f 4f       	mov	@r15,	r15	
    7756:	0f 93       	tst	r15		
    7758:	18 24       	jz	$+50     	;abs 0x778a
    775a:	1b 4f 06 00 	mov	6(r15),	r11	;0x0006(r15)
    775e:	13 3c       	jmp	$+40     	;abs 0x7786
    7760:	8b 9e 02 00 	cmp	r14,	2(r11)	;0x0002(r11)
    7764:	0d 20       	jnz	$+28     	;abs 0x7780
    7766:	9f 4b 06 00 06 00 	mov	6(r11),	6(r15)	;0x0006(r11), 0x0006(r15)
    776c:	2f 4b       	mov	@r11,	r15	
    776e:	b0 12 26 7b 	call	#0x7b26	
    7772:	0f 4b       	mov	r11,	r15	
    7774:	b0 12 26 7b 	call	#0x7b26	
    7778:	ba 53 04 00 	add	#-1,	4(r10)	;r3 As==11, 0x0004(r10)
    777c:	5f 43       	mov.b	#1,	r15	;r3 As==01
    777e:	06 3c       	jmp	$+14     	;abs 0x778c
    7780:	0f 4b       	mov	r11,	r15	
    7782:	1b 4b 06 00 	mov	6(r11),	r11	;0x0006(r11)
    7786:	0b 93       	tst	r11		
    7788:	eb 23       	jnz	$-40     	;abs 0x7760
    778a:	4f 43       	clr.b	r15		
    778c:	3a 41       	pop	r10		
    778e:	3b 41       	pop	r11		
    7790:	30 41       	ret			

00007792 <__umulsidi3>:
    7792:	0b 12       	push	r11		
    7794:	0a 12       	push	r10		
    7796:	09 12       	push	r9		
    7798:	08 12       	push	r8		
    779a:	07 12       	push	r7		
    779c:	06 12       	push	r6		
    779e:	05 12       	push	r5		
    77a0:	04 12       	push	r4		
    77a2:	08 4c       	mov	r12,	r8	
    77a4:	09 4d       	mov	r13,	r9	
    77a6:	0a 43       	clr	r10		
    77a8:	0b 43       	clr	r11		
    77aa:	0c 4e       	mov	r14,	r12	
    77ac:	0d 4f       	mov	r15,	r13	
    77ae:	0e 43       	clr	r14		
    77b0:	0f 43       	clr	r15		
    77b2:	b0 12 fe 77 	call	#0x77fe	
    77b6:	34 41       	pop	r4		
    77b8:	35 41       	pop	r5		
    77ba:	36 41       	pop	r6		
    77bc:	37 41       	pop	r7		
    77be:	38 41       	pop	r8		
    77c0:	39 41       	pop	r9		
    77c2:	3a 41       	pop	r10		
    77c4:	3b 41       	pop	r11		
    77c6:	30 41       	ret			

000077c8 <__muldi3>:
    77c8:	0b 12       	push	r11		
    77ca:	0a 12       	push	r10		
    77cc:	09 12       	push	r9		
    77ce:	08 12       	push	r8		
    77d0:	07 12       	push	r7		
    77d2:	06 12       	push	r6		
    77d4:	05 12       	push	r5		
    77d6:	04 12       	push	r4		
    77d8:	18 41 12 00 	mov	18(r1),	r8	;0x0012(r1)
    77dc:	19 41 14 00 	mov	20(r1),	r9	;0x0014(r1)
    77e0:	1a 41 16 00 	mov	22(r1),	r10	;0x0016(r1)
    77e4:	1b 41 18 00 	mov	24(r1),	r11	;0x0018(r1)
    77e8:	b0 12 fe 77 	call	#0x77fe	
    77ec:	34 41       	pop	r4		
    77ee:	35 41       	pop	r5		
    77f0:	36 41       	pop	r6		
    77f2:	37 41       	pop	r7		
    77f4:	38 41       	pop	r8		
    77f6:	39 41       	pop	r9		
    77f8:	3a 41       	pop	r10		
    77fa:	3b 41       	pop	r11		
    77fc:	30 41       	ret			

000077fe <__xabi_muldi3>:
    77fe:	04 43       	clr	r4		
    7800:	05 43       	clr	r5		
    7802:	06 43       	clr	r6		
    7804:	07 43       	clr	r7		
    7806:	0e 3c       	jmp	$+30     	;abs 0x7824
    7808:	12 c3       	clrc			
    780a:	0b 10       	rrc	r11		
    780c:	0a 10       	rrc	r10		
    780e:	09 10       	rrc	r9		
    7810:	08 10       	rrc	r8		
    7812:	04 28       	jnc	$+10     	;abs 0x781c
    7814:	04 5c       	add	r12,	r4	
    7816:	05 6d       	addc	r13,	r5	
    7818:	06 6e       	addc	r14,	r6	
    781a:	07 6f       	addc	r15,	r7	
    781c:	0c 5c       	rla	r12		
    781e:	0d 6d       	rlc	r13		
    7820:	0e 6e       	rlc	r14		
    7822:	0f 6f       	rlc	r15		
    7824:	08 93       	tst	r8		
    7826:	f0 23       	jnz	$-30     	;abs 0x7808
    7828:	09 93       	tst	r9		
    782a:	ee 23       	jnz	$-34     	;abs 0x7808
    782c:	0a 93       	tst	r10		
    782e:	ec 23       	jnz	$-38     	;abs 0x7808
    7830:	0b 93       	tst	r11		
    7832:	ea 23       	jnz	$-42     	;abs 0x7808
    7834:	0c 44       	mov	r4,	r12	
    7836:	0d 45       	mov	r5,	r13	
    7838:	0e 46       	mov	r6,	r14	
    783a:	0f 47       	mov	r7,	r15	
    783c:	30 41       	ret			

0000783e <__udivhi3>:
    783e:	7c 40 10 00 	mov.b	#16,	r12	;#0x0010
    7842:	0d 4e       	mov	r14,	r13	
    7844:	0e 43       	clr	r14		
    7846:	0f 5f       	rla	r15		
    7848:	0e 6e       	rlc	r14		
    784a:	0e 9d       	cmp	r13,	r14	
    784c:	02 28       	jnc	$+6      	;abs 0x7852
    784e:	0e 8d       	sub	r13,	r14	
    7850:	1f d3       	bis	#1,	r15	;r3 As==01
    7852:	1c 83       	dec	r12		
    7854:	f8 23       	jnz	$-14     	;abs 0x7846
    7856:	30 41       	ret			

00007858 <__umodhi3>:
    7858:	b0 12 3e 78 	call	#0x783e	
    785c:	0f 4e       	mov	r14,	r15	
    785e:	30 41       	ret			

00007860 <__divhi3>:
    7860:	0d 43       	clr	r13		
    7862:	0f 93       	tst	r15		
    7864:	04 34       	jge	$+10     	;abs 0x786e
    7866:	3d 40 03 00 	mov	#3,	r13	;#0x0003
    786a:	3f e3       	inv	r15		
    786c:	1f 53       	inc	r15		
    786e:	0e 93       	tst	r14		
    7870:	03 34       	jge	$+8      	;abs 0x7878
    7872:	5d e3       	xor.b	#1,	r13	;r3 As==01
    7874:	3e e3       	inv	r14		
    7876:	1e 53       	inc	r14		
    7878:	0d 12       	push	r13		
    787a:	b0 12 3e 78 	call	#0x783e	
    787e:	3d 41       	pop	r13		
    7880:	6d b3       	bit.b	#2,	r13	;r3 As==10
    7882:	02 24       	jz	$+6      	;abs 0x7888
    7884:	3e e3       	inv	r14		
    7886:	1e 53       	inc	r14		
    7888:	5d b3       	bit.b	#1,	r13	;r3 As==01
    788a:	02 24       	jz	$+6      	;abs 0x7890
    788c:	3f e3       	inv	r15		
    788e:	1f 53       	inc	r15		
    7890:	30 41       	ret			

00007892 <__modhi3>:
    7892:	b0 12 60 78 	call	#0x7860	
    7896:	0f 4e       	mov	r14,	r15	
    7898:	30 41       	ret			

0000789a <memcmp>:
    789a:	0b 12       	push	r11		
    789c:	0d 93       	tst	r13		
    789e:	0a 24       	jz	$+22     	;abs 0x78b4
    78a0:	7b 4f       	mov.b	@r15+,	r11	
    78a2:	7c 4e       	mov.b	@r14+,	r12	
    78a4:	4b 9c       	cmp.b	r12,	r11	
    78a6:	04 24       	jz	$+10     	;abs 0x78b0
    78a8:	4f 4b       	mov.b	r11,	r15	
    78aa:	4e 4c       	mov.b	r12,	r14	
    78ac:	0f 8e       	sub	r14,	r15	
    78ae:	03 3c       	jmp	$+8      	;abs 0x78b6
    78b0:	3d 53       	add	#-1,	r13	;r3 As==11
    78b2:	f4 3f       	jmp	$-22     	;abs 0x789c
    78b4:	0f 43       	clr	r15		
    78b6:	3b 41       	pop	r11		
    78b8:	30 41       	ret			

000078ba <memcpy>:
    78ba:	0b 12       	push	r11		
    78bc:	0a 12       	push	r10		
    78be:	09 12       	push	r9		
    78c0:	08 12       	push	r8		
    78c2:	07 12       	push	r7		
    78c4:	0d 93       	tst	r13		
    78c6:	70 24       	jz	$+226    	;abs 0x79a8
    78c8:	0f 9e       	cmp	r14,	r15	
    78ca:	6e 24       	jz	$+222    	;abs 0x79a8
    78cc:	34 2c       	jc	$+106    	;abs 0x7936
    78ce:	0c 4e       	mov	r14,	r12	
    78d0:	0c df       	bis	r15,	r12	
    78d2:	1c f3       	and	#1,	r12	;r3 As==01
    78d4:	1b 24       	jz	$+56     	;abs 0x790c
    78d6:	0c 4e       	mov	r14,	r12	
    78d8:	0c ef       	xor	r15,	r12	
    78da:	1c f3       	and	#1,	r12	;r3 As==01
    78dc:	07 20       	jnz	$+16     	;abs 0x78ec
    78de:	2d 93       	cmp	#2,	r13	;r3 As==10
    78e0:	07 28       	jnc	$+16     	;abs 0x78f0
    78e2:	0b 4e       	mov	r14,	r11	
    78e4:	1b f3       	and	#1,	r11	;r3 As==01
    78e6:	2c 43       	mov	#2,	r12	;r3 As==10
    78e8:	0c 8b       	sub	r11,	r12	
    78ea:	03 3c       	jmp	$+8      	;abs 0x78f2
    78ec:	0c 4d       	mov	r13,	r12	
    78ee:	01 3c       	jmp	$+4      	;abs 0x78f2
    78f0:	1c 43       	mov	#1,	r12	;r3 As==01
    78f2:	0d 8c       	sub	r12,	r13	
    78f4:	0a 4c       	mov	r12,	r10	
    78f6:	09 4e       	mov	r14,	r9	
    78f8:	0b 4f       	mov	r15,	r11	
    78fa:	fb 49 00 00 	mov.b	@r9+,	0(r11)	;0x0000(r11)
    78fe:	1b 53       	inc	r11		
    7900:	3a 53       	add	#-1,	r10	;r3 As==11
    7902:	fb 23       	jnz	$-8      	;abs 0x78fa
    7904:	0a 4f       	mov	r15,	r10	
    7906:	0a 5c       	add	r12,	r10	
    7908:	0e 5c       	add	r12,	r14	
    790a:	01 3c       	jmp	$+4      	;abs 0x790e
    790c:	0a 4f       	mov	r15,	r10	
    790e:	0b 4d       	mov	r13,	r11	
    7910:	12 c3       	clrc			
    7912:	0b 10       	rrc	r11		
    7914:	0b 24       	jz	$+24     	;abs 0x792c
    7916:	09 4b       	mov	r11,	r9	
    7918:	08 4e       	mov	r14,	r8	
    791a:	0c 4a       	mov	r10,	r12	
    791c:	bc 48 00 00 	mov	@r8+,	0(r12)	;0x0000(r12)
    7920:	2c 53       	incd	r12		
    7922:	39 53       	add	#-1,	r9	;r3 As==11
    7924:	fb 23       	jnz	$-8      	;abs 0x791c
    7926:	0b 5b       	rla	r11		
    7928:	0e 5b       	add	r11,	r14	
    792a:	0a 5b       	add	r11,	r10	
    792c:	1d f3       	and	#1,	r13	;r3 As==01
    792e:	3c 24       	jz	$+122    	;abs 0x79a8
    7930:	ea 4e 00 00 	mov.b	@r14,	0(r10)	;0x0000(r10)
    7934:	39 3c       	jmp	$+116    	;abs 0x79a8
    7936:	0e 5d       	add	r13,	r14	
    7938:	0c 4f       	mov	r15,	r12	
    793a:	0c 5d       	add	r13,	r12	
    793c:	0b 4c       	mov	r12,	r11	
    793e:	0b de       	bis	r14,	r11	
    7940:	1b f3       	and	#1,	r11	;r3 As==01
    7942:	1b 24       	jz	$+56     	;abs 0x797a
    7944:	0b 4c       	mov	r12,	r11	
    7946:	0b ee       	xor	r14,	r11	
    7948:	1b f3       	and	#1,	r11	;r3 As==01
    794a:	06 20       	jnz	$+14     	;abs 0x7958
    794c:	3d 90 03 00 	cmp	#3,	r13	;#0x0003
    7950:	03 28       	jnc	$+8      	;abs 0x7958
    7952:	0b 4e       	mov	r14,	r11	
    7954:	1b f3       	and	#1,	r11	;r3 As==01
    7956:	01 3c       	jmp	$+4      	;abs 0x795a
    7958:	0b 4d       	mov	r13,	r11	
    795a:	0d 8b       	sub	r11,	r13	
    795c:	09 4e       	mov	r14,	r9	
    795e:	0a 4c       	mov	r12,	r10	
    7960:	08 4b       	mov	r11,	r8	
    7962:	08 8c       	sub	r12,	r8	
    7964:	3a 53       	add	#-1,	r10	;r3 As==11
    7966:	39 53       	add	#-1,	r9	;r3 As==11
    7968:	ea 49 00 00 	mov.b	@r9,	0(r10)	;0x0000(r10)
    796c:	07 4a       	mov	r10,	r7	
    796e:	07 58       	add	r8,	r7	
    7970:	f9 23       	jnz	$-12     	;abs 0x7964
    7972:	3b e3       	inv	r11		
    7974:	1b 53       	inc	r11		
    7976:	0c 5b       	add	r11,	r12	
    7978:	0e 5b       	add	r11,	r14	
    797a:	0b 4d       	mov	r13,	r11	
    797c:	12 c3       	clrc			
    797e:	0b 10       	rrc	r11		
    7980:	0e 24       	jz	$+30     	;abs 0x799e
    7982:	0a 4b       	mov	r11,	r10	
    7984:	08 4e       	mov	r14,	r8	
    7986:	09 4c       	mov	r12,	r9	
    7988:	28 83       	decd	r8		
    798a:	29 83       	decd	r9		
    798c:	a9 48 00 00 	mov	@r8,	0(r9)	;0x0000(r9)
    7990:	3a 53       	add	#-1,	r10	;r3 As==11
    7992:	fa 23       	jnz	$-10     	;abs 0x7988
    7994:	0a 8b       	sub	r11,	r10	
    7996:	0b 4a       	mov	r10,	r11	
    7998:	0b 5b       	rla	r11		
    799a:	0e 5b       	add	r11,	r14	
    799c:	0c 5b       	add	r11,	r12	
    799e:	1d f3       	and	#1,	r13	;r3 As==01
    79a0:	03 24       	jz	$+8      	;abs 0x79a8
    79a2:	dc 4e ff ff ff ff 	mov.b	-1(r14),-1(r12)	;0xffff(r14), 0xffff(r12)
    79a8:	37 41       	pop	r7		
    79aa:	38 41       	pop	r8		
    79ac:	39 41       	pop	r9		
    79ae:	3a 41       	pop	r10		
    79b0:	3b 41       	pop	r11		
    79b2:	30 41       	ret			

000079b4 <memset>:
    79b4:	0b 12       	push	r11		
    79b6:	0a 12       	push	r10		
    79b8:	09 12       	push	r9		
    79ba:	08 12       	push	r8		
    79bc:	3d 90 06 00 	cmp	#6,	r13	;#0x0006
    79c0:	09 2c       	jc	$+20     	;abs 0x79d4
    79c2:	0c 4f       	mov	r15,	r12	
    79c4:	04 3c       	jmp	$+10     	;abs 0x79ce
    79c6:	cc 4e 00 00 	mov.b	r14,	0(r12)	;0x0000(r12)
    79ca:	1c 53       	inc	r12		
    79cc:	3d 53       	add	#-1,	r13	;r3 As==11
    79ce:	0d 93       	tst	r13		
    79d0:	fa 23       	jnz	$-10     	;abs 0x79c6
    79d2:	20 3c       	jmp	$+66     	;abs 0x7a14
    79d4:	4e 4e       	mov.b	r14,	r14	
    79d6:	4b 4e       	mov.b	r14,	r11	
    79d8:	0b 93       	tst	r11		
    79da:	03 24       	jz	$+8      	;abs 0x79e2
    79dc:	0c 4b       	mov	r11,	r12	
    79de:	8c 10       	swpb	r12		
    79e0:	0b dc       	bis	r12,	r11	
    79e2:	1f b3       	bit	#1,	r15	;r3 As==01
    79e4:	06 24       	jz	$+14     	;abs 0x79f2
    79e6:	3d 53       	add	#-1,	r13	;r3 As==11
    79e8:	cf 4e 00 00 	mov.b	r14,	0(r15)	;0x0000(r15)
    79ec:	09 4f       	mov	r15,	r9	
    79ee:	19 53       	inc	r9		
    79f0:	01 3c       	jmp	$+4      	;abs 0x79f4
    79f2:	09 4f       	mov	r15,	r9	
    79f4:	0c 4d       	mov	r13,	r12	
    79f6:	12 c3       	clrc			
    79f8:	0c 10       	rrc	r12		
    79fa:	0a 49       	mov	r9,	r10	
    79fc:	08 4c       	mov	r12,	r8	
    79fe:	8a 4b 00 00 	mov	r11,	0(r10)	;0x0000(r10)
    7a02:	2a 53       	incd	r10		
    7a04:	38 53       	add	#-1,	r8	;r3 As==11
    7a06:	fb 23       	jnz	$-8      	;abs 0x79fe
    7a08:	0c 5c       	rla	r12		
    7a0a:	0c 59       	add	r9,	r12	
    7a0c:	1d f3       	and	#1,	r13	;r3 As==01
    7a0e:	02 24       	jz	$+6      	;abs 0x7a14
    7a10:	cc 4e 00 00 	mov.b	r14,	0(r12)	;0x0000(r12)
    7a14:	38 41       	pop	r8		
    7a16:	39 41       	pop	r9		
    7a18:	3a 41       	pop	r10		
    7a1a:	3b 41       	pop	r11		
    7a1c:	30 41       	ret			

00007a1e <malloc>:
    7a1e:	0b 12       	push	r11		
    7a20:	0a 12       	push	r10		
    7a22:	09 12       	push	r9		
    7a24:	08 12       	push	r8		
    7a26:	07 12       	push	r7		
    7a28:	06 12       	push	r6		
    7a2a:	05 12       	push	r5		
    7a2c:	04 12       	push	r4		
    7a2e:	3d 40 9b 1f 	mov	#8091,	r13	;#0x1f9b
    7a32:	3d f0 fe ff 	and	#-2,	r13	;#0xfffe
    7a36:	c2 93 f6 18 	tst.b	&0x18f6	
    7a3a:	05 20       	jnz	$+12     	;abs 0x7a46
    7a3c:	d2 43 f6 18 	mov.b	#1,	&0x18f6	;r3 As==01
    7a40:	bd 40 fe ff 00 00 	mov	#-2,	0(r13)	;#0xfffe, 0x0000(r13)
    7a46:	0a 41       	mov	r1,	r10	
    7a48:	3a 50 d8 ff 	add	#-40,	r10	;#0xffd8
    7a4c:	0c 4f       	mov	r15,	r12	
    7a4e:	1c 53       	inc	r12		
    7a50:	12 c3       	clrc			
    7a52:	0c 10       	rrc	r12		
    7a54:	03 3c       	jmp	$+8      	;abs 0x7a5c
    7a56:	1e 53       	inc	r14		
    7a58:	0e 5e       	rla	r14		
    7a5a:	0d 5e       	add	r14,	r13	
    7a5c:	2f 4d       	mov	@r13,	r15	
    7a5e:	0e 4f       	mov	r15,	r14	
    7a60:	12 c3       	clrc			
    7a62:	0e 10       	rrc	r14		
    7a64:	55 43       	mov.b	#1,	r5	;r3 As==01
    7a66:	3e 90 ff 7f 	cmp	#32767,	r14	;#0x7fff
    7a6a:	01 24       	jz	$+4      	;abs 0x7a6e
    7a6c:	45 43       	clr.b	r5		
    7a6e:	1f f3       	and	#1,	r15	;r3 As==01
    7a70:	4e 20       	jnz	$+158    	;abs 0x7b0e
    7a72:	45 93       	tst.b	r5		
    7a74:	16 24       	jz	$+46     	;abs 0x7aa2
    7a76:	08 4a       	mov	r10,	r8	
    7a78:	0e 4a       	mov	r10,	r14	
    7a7a:	8e 10       	swpb	r14		
    7a7c:	8e 11       	sxt	r14		
    7a7e:	8e 10       	swpb	r14		
    7a80:	8e 11       	sxt	r14		
    7a82:	09 4e       	mov	r14,	r9	
    7a84:	06 4d       	mov	r13,	r6	
    7a86:	0e 4d       	mov	r13,	r14	
    7a88:	8e 10       	swpb	r14		
    7a8a:	8e 11       	sxt	r14		
    7a8c:	8e 10       	swpb	r14		
    7a8e:	8e 11       	sxt	r14		
    7a90:	07 4e       	mov	r14,	r7	
    7a92:	0e 48       	mov	r8,	r14	
    7a94:	0f 49       	mov	r9,	r15	
    7a96:	0e 86       	sub	r6,	r14	
    7a98:	0f 77       	subc	r7,	r15	
    7a9a:	0f 11       	rra	r15		
    7a9c:	0e 10       	rrc	r14		
    7a9e:	3e 53       	add	#-1,	r14	;r3 As==11
    7aa0:	18 3c       	jmp	$+50     	;abs 0x7ad2
    7aa2:	04 4e       	mov	r14,	r4	
    7aa4:	14 53       	inc	r4		
    7aa6:	0b 44       	mov	r4,	r11	
    7aa8:	0b 5b       	rla	r11		
    7aaa:	0b 5d       	add	r13,	r11	
    7aac:	2f 4b       	mov	@r11,	r15	
    7aae:	1f b3       	bit	#1,	r15	;r3 As==01
    7ab0:	10 20       	jnz	$+34     	;abs 0x7ad2
    7ab2:	0e 4f       	mov	r15,	r14	
    7ab4:	3e f0 fe ff 	and	#-2,	r14	;#0xfffe
    7ab8:	3e 90 fe ff 	cmp	#-2,	r14	;#0xfffe
    7abc:	05 24       	jz	$+12     	;abs 0x7ac8
    7abe:	12 c3       	clrc			
    7ac0:	0f 10       	rrc	r15		
    7ac2:	0f 54       	add	r4,	r15	
    7ac4:	0f 5f       	rla	r15		
    7ac6:	02 3c       	jmp	$+6      	;abs 0x7acc
    7ac8:	3f 40 fe ff 	mov	#-2,	r15	;#0xfffe
    7acc:	8d 4f 00 00 	mov	r15,	0(r13)	;0x0000(r13)
    7ad0:	c5 3f       	jmp	$-116    	;abs 0x7a5c
    7ad2:	0e 9c       	cmp	r12,	r14	
    7ad4:	1c 28       	jnc	$+58     	;abs 0x7b0e
    7ad6:	0f 4c       	mov	r12,	r15	
    7ad8:	1f 53       	inc	r15		
    7ada:	0f 5f       	rla	r15		
    7adc:	0f 5d       	add	r13,	r15	
    7ade:	0a 9f       	cmp	r15,	r10	
    7ae0:	18 28       	jnc	$+50     	;abs 0x7b12
    7ae2:	45 93       	tst.b	r5		
    7ae4:	04 24       	jz	$+10     	;abs 0x7aee
    7ae6:	bf 40 fe ff 00 00 	mov	#-2,	0(r15)	;#0xfffe, 0x0000(r15)
    7aec:	09 3c       	jmp	$+20     	;abs 0x7b00
    7aee:	0e 9c       	cmp	r12,	r14	
    7af0:	07 24       	jz	$+16     	;abs 0x7b00
    7af2:	0b 4c       	mov	r12,	r11	
    7af4:	3b e3       	inv	r11		
    7af6:	0b 5e       	add	r14,	r11	
    7af8:	8f 4b 00 00 	mov	r11,	0(r15)	;0x0000(r15)
    7afc:	af 5f 00 00 	add	@r15,	0(r15)	;0x0000(r15)
    7b00:	0c 5c       	rla	r12		
    7b02:	1c d3       	bis	#1,	r12	;r3 As==01
    7b04:	8d 4c 00 00 	mov	r12,	0(r13)	;0x0000(r13)
    7b08:	0f 4d       	mov	r13,	r15	
    7b0a:	2f 53       	incd	r15		
    7b0c:	03 3c       	jmp	$+8      	;abs 0x7b14
    7b0e:	45 93       	tst.b	r5		
    7b10:	a2 27       	jz	$-186    	;abs 0x7a56
    7b12:	0f 43       	clr	r15		
    7b14:	34 41       	pop	r4		
    7b16:	35 41       	pop	r5		
    7b18:	36 41       	pop	r6		
    7b1a:	37 41       	pop	r7		
    7b1c:	38 41       	pop	r8		
    7b1e:	39 41       	pop	r9		
    7b20:	3a 41       	pop	r10		
    7b22:	3b 41       	pop	r11		
    7b24:	30 41       	ret			

00007b26 <free>:
    7b26:	bf f0 fe ff fe ff 	and	#-2,	-2(r15)	;#0xfffe, 0xfffe(r15)
    7b2c:	30 41       	ret			

00007b2e <rand_r>:
    7b2e:	0b 12       	push	r11		
    7b30:	0b 4f       	mov	r15,	r11	
    7b32:	3c 40 6d 4e 	mov	#20077,	r12	;#0x4e6d
    7b36:	3d 40 c6 41 	mov	#16838,	r13	;#0x41c6
    7b3a:	2e 4f       	mov	@r15,	r14	
    7b3c:	0f 43       	clr	r15		
    7b3e:	b0 12 82 7b 	call	#0x7b82	
    7b42:	3e 50 39 30 	add	#12345,	r14	;#0x3039
    7b46:	0f 63       	adc	r15		
    7b48:	8b 4e 00 00 	mov	r14,	0(r11)	;0x0000(r11)
    7b4c:	0f 4e       	mov	r14,	r15	
    7b4e:	3b 41       	pop	r11		
    7b50:	30 41       	ret			

00007b52 <rand>:
    7b52:	3c 40 6d 4e 	mov	#20077,	r12	;#0x4e6d
    7b56:	3d 40 c6 41 	mov	#16838,	r13	;#0x41c6
    7b5a:	1e 42 e0 18 	mov	&0x18e0,r14	
    7b5e:	1f 42 e2 18 	mov	&0x18e2,r15	
    7b62:	b0 12 82 7b 	call	#0x7b82	
    7b66:	3e 50 39 30 	add	#12345,	r14	;#0x3039
    7b6a:	0f 63       	adc	r15		
    7b6c:	82 4e e0 18 	mov	r14,	&0x18e0	
    7b70:	82 4f e2 18 	mov	r15,	&0x18e2	
    7b74:	0f 4e       	mov	r14,	r15	
    7b76:	30 41       	ret			

00007b78 <srand>:
    7b78:	82 4f e0 18 	mov	r15,	&0x18e0	
    7b7c:	82 43 e2 18 	mov	#0,	&0x18e2	;r3 As==00
    7b80:	30 41       	ret			

00007b82 <__mulsi3>:
    7b82:	0b 12       	push	r11		
    7b84:	0a 12       	push	r10		
    7b86:	0b 43       	clr	r11		
    7b88:	0a 43       	clr	r10		
    7b8a:	08 3c       	jmp	$+18     	;abs 0x7b9c
    7b8c:	12 c3       	clrc			
    7b8e:	0d 10       	rrc	r13		
    7b90:	0c 10       	rrc	r12		
    7b92:	02 28       	jnc	$+6      	;abs 0x7b98
    7b94:	0a 5e       	add	r14,	r10	
    7b96:	0b 6f       	addc	r15,	r11	
    7b98:	0e 5e       	rla	r14		
    7b9a:	0f 6f       	rlc	r15		
    7b9c:	0c 93       	tst	r12		
    7b9e:	f6 23       	jnz	$-18     	;abs 0x7b8c
    7ba0:	0d 93       	tst	r13		
    7ba2:	f4 23       	jnz	$-22     	;abs 0x7b8c
    7ba4:	0e 4a       	mov	r10,	r14	
    7ba6:	0f 4b       	mov	r11,	r15	
    7ba8:	3a 41       	pop	r10		
    7baa:	3b 41       	pop	r11		
    7bac:	30 41       	ret			

00007bae <_unexpected_>:
    7bae:	00 13       	reti			

Disassembly of section .vectors:

0000ffe0 <__ivtbl_16>:
    ffe0:	80 45 2e 76 80 45 80 45 40 75 d6 74 b8 74 80 45     .E.v.E.E@u.t.t.E
    fff0:	2c 77 d8 76 80 45 80 45 1a 75 fc 74 80 45 00 40     ,w.v.E.E.u.t.E.@
